
vpos_kernel-elf32:     file format elf32-littlearm


Disassembly of section .text:

20008000 <vh_VPOS_STARTUP>:
20008000:	e1a00000 	nop			; (mov r0, r0)
20008004:	e1a00000 	nop			; (mov r0, r0)
20008008:	e1a00000 	nop			; (mov r0, r0)
2000800c:	e1a00000 	nop			; (mov r0, r0)
20008010:	e1a00000 	nop			; (mov r0, r0)
20008014:	e1a00000 	nop			; (mov r0, r0)
20008018:	e1a00000 	nop			; (mov r0, r0)
2000801c:	e1a00000 	nop			; (mov r0, r0)
20008020:	ea00000e 	b	20008060 <vh_VPOS_reset>

20008024 <magicn>:
20008024:	016f2818 	cmneq	pc, v5, lsl v5	; <UNPREDICTABLE>

20008028 <startn>:
20008028:	00000000 	andeq	a1, a1, a1

2000802c <endn>:
2000802c:	0000d8fc 	strdeq	sp, [a1], -ip
20008030:	e1a00000 	nop			; (mov r0, r0)
20008034:	e1a00000 	nop			; (mov r0, r0)
20008038:	e1a00000 	nop			; (mov r0, r0)
2000803c:	e1a00000 	nop			; (mov r0, r0)

20008040 <vh_vector_start>:
20008040:	ea000006 	b	20008060 <vh_VPOS_reset>
20008044:	ea000037 	b	20008128 <vk_undef>
20008048:	ea00003e 	b	20008148 <vh_entering_swi>
2000804c:	ea000074 	b	20008224 <vh_pabort>
20008050:	ea000036 	b	20008130 <vk_dabort>
20008054:	ea00055a 	b	200095c4 <vk_not_used_handler>
20008058:	ea000050 	b	200081a0 <vh_irq>
2000805c:	ea00054c 	b	20009594 <vk_fiq_handler>

20008060 <vh_VPOS_reset>:
20008060:	e3a00000 	mov	a1, #0
20008064:	e58f02d8 	str	a1, [pc, #728]	; 20008344 <vk_save_swi_mode_stack_ptr>
20008068:	e58f02d8 	str	a1, [pc, #728]	; 20008348 <vk_save_swi_current_tcb_bottom>
2000806c:	e58f02d8 	str	a1, [pc, #728]	; 2000834c <vk_save_irq_mode_stack_ptr>
20008070:	e58f02d8 	str	a1, [pc, #728]	; 20008350 <vk_save_irq_current_tcb_bottom>
20008074:	e10f0000 	mrs	a1, CPSR
20008078:	e38000c0 	orr	a1, a1, #192	; 0xc0
2000807c:	e129f000 	msr	CPSR_fc, a1
20008080:	e3a00000 	mov	a1, #0
20008084:	ee070f15 	mcr	15, 0, a1, cr7, cr5, {0}
20008088:	ee110f10 	mrc	15, 0, a1, cr1, cr0, {0}
2000808c:	e3c00001 	bic	a1, a1, #1
20008090:	e3c00004 	bic	a1, a1, #4
20008094:	e3c00a01 	bic	a1, a1, #4096	; 0x1000
20008098:	e3c00a02 	bic	a1, a1, #8192	; 0x2000
2000809c:	e3800002 	orr	a1, a1, #2
200080a0:	e3800b02 	orr	a1, a1, #2048	; 0x800
200080a4:	ee010f10 	mcr	15, 0, a1, cr1, cr0, {0}
200080a8:	e59f02b0 	ldr	a1, [pc, #688]	; 20008360 <vk_error_addr+0x4>
200080ac:	ee0c0f10 	mcr	15, 0, a1, cr12, cr0, {0}
200080b0:	e10f0000 	mrs	a1, CPSR
200080b4:	e3c000df 	bic	a1, a1, #223	; 0xdf
200080b8:	e38010db 	orr	a2, a1, #219	; 0xdb
200080bc:	e12ff001 	msr	CPSR_fsxc, a2
200080c0:	e59fd29c 	ldr	sp, [pc, #668]	; 20008364 <vk_error_addr+0x8>
200080c4:	e3c000df 	bic	a1, a1, #223	; 0xdf
200080c8:	e38010d7 	orr	a2, a1, #215	; 0xd7
200080cc:	e12ff001 	msr	CPSR_fsxc, a2
200080d0:	e3a0d586 	mov	sp, #562036736	; 0x21800000
200080d4:	e3c000df 	bic	a1, a1, #223	; 0xdf
200080d8:	e38010d2 	orr	a2, a1, #210	; 0xd2
200080dc:	e12ff001 	msr	CPSR_fsxc, a2
200080e0:	e59fd280 	ldr	sp, [pc, #640]	; 20008368 <vk_error_addr+0xc>
200080e4:	e3c000df 	bic	a1, a1, #223	; 0xdf
200080e8:	e38010d1 	orr	a2, a1, #209	; 0xd1
200080ec:	e12ff001 	msr	CPSR_fsxc, a2
200080f0:	e3a0d587 	mov	sp, #566231040	; 0x21c00000
200080f4:	e3c000df 	bic	a1, a1, #223	; 0xdf
200080f8:	e38010d3 	orr	a2, a1, #211	; 0xd3
200080fc:	e12ff001 	msr	CPSR_fsxc, a2
20008100:	e3a0d585 	mov	sp, #557842432	; 0x21400000
20008104:	e3c000df 	bic	a1, a1, #223	; 0xdf
20008108:	e3801010 	orr	a2, a1, #16
2000810c:	e12ff001 	msr	CPSR_fsxc, a2
20008110:	e59fd254 	ldr	sp, [pc, #596]	; 2000836c <vk_error_addr+0x10>
20008114:	ea000643 	b	20009a28 <VPOS_kernel_main>

20008118 <vt_read_sp>:
20008118:	e1a0000d 	mov	a1, sp
2000811c:	e1a0f00e 	mov	pc, lr

20008120 <vt_read>:
20008120:	e10f0000 	mrs	a1, CPSR
20008124:	e1a0f00e 	mov	pc, lr

20008128 <vk_undef>:
20008128:	e58fe22c 	str	lr, [pc, #556]	; 2000835c <vk_error_addr>
2000812c:	ea0004e6 	b	200094cc <vk_undef_handler>

20008130 <vk_dabort>:
20008130:	e58fe224 	str	lr, [pc, #548]	; 2000835c <vk_error_addr>
20008134:	ea000506 	b	20009554 <vk_dabort_handler>

20008138 <vh_svc_int_enable>:
20008138:	e10f0000 	mrs	a1, CPSR
2000813c:	e3c00080 	bic	a1, a1, #128	; 0x80
20008140:	e129f000 	msr	CPSR_fc, a1
20008144:	e12fff1e 	bx	lr

20008148 <vh_entering_swi>:
20008148:	e58fd1f4 	str	sp, [pc, #500]	; 20008344 <vk_save_swi_mode_stack_ptr>
2000814c:	e94d4000 	stmdb	sp, {lr}^
20008150:	e24dd004 	sub	sp, sp, #4
20008154:	e94d2000 	stmdb	sp, {sp}^
20008158:	e24dd004 	sub	sp, sp, #4
2000815c:	e92d1fff 	push	{a1, a2, a3, a4, v1, v2, v3, v4, v5, v6, sl, fp, ip}
20008160:	e14f0000 	mrs	a1, SPSR
20008164:	e92d4001 	push	{a1, lr}
20008168:	e10f0000 	mrs	a1, CPSR
2000816c:	e3800080 	orr	a1, a1, #128	; 0x80
20008170:	e129f000 	msr	CPSR_fc, a1
20008174:	e58fd1cc 	str	sp, [pc, #460]	; 20008348 <vk_save_swi_current_tcb_bottom>
20008178:	e59d0008 	ldr	a1, [sp, #8]
2000817c:	eb00052a 	bl	2000962c <vk_swi_classifier>

20008180 <vh_leaving_swi>:
20008180:	e8bd4001 	pop	{a1, lr}
20008184:	e169f000 	msr	SPSR_fc, a1
20008188:	e8bd1fff 	pop	{a1, a2, a3, a4, v1, v2, v3, v4, v5, v6, sl, fp, ip}
2000818c:	e8dd2000 	ldm	sp, {sp}^
20008190:	e28dd004 	add	sp, sp, #4
20008194:	e8dd4000 	ldm	sp, {lr}^
20008198:	e28dd004 	add	sp, sp, #4
2000819c:	e1b0f00e 	movs	pc, lr

200081a0 <vh_irq>:
200081a0:	e24ee004 	sub	lr, lr, #4
200081a4:	e58fd1a0 	str	sp, [pc, #416]	; 2000834c <vk_save_irq_mode_stack_ptr>
200081a8:	e94d4000 	stmdb	sp, {lr}^
200081ac:	e24dd004 	sub	sp, sp, #4
200081b0:	e94d2000 	stmdb	sp, {sp}^
200081b4:	e24dd004 	sub	sp, sp, #4
200081b8:	e92d1fff 	push	{a1, a2, a3, a4, v1, v2, v3, v4, v5, v6, sl, fp, ip}
200081bc:	e14f0000 	mrs	a1, SPSR
200081c0:	e92d4001 	push	{a1, lr}
200081c4:	e58fd184 	str	sp, [pc, #388]	; 20008350 <vk_save_irq_current_tcb_bottom>
200081c8:	e3a00339 	mov	a1, #-469762048	; 0xe4000000
200081cc:	e5901000 	ldr	a2, [a1]
200081d0:	e3510000 	cmp	a2, #0
200081d4:	1a000003 	bne	200081e8 <vh_irq_VIC0>
200081d8:	e59f0190 	ldr	a1, [pc, #400]	; 20008370 <vk_error_addr+0x14>
200081dc:	e5901000 	ldr	a2, [a1]
200081e0:	e3510000 	cmp	a2, #0
200081e4:	1affffff 	bne	200081e8 <vh_irq_VIC0>

200081e8 <vh_irq_VIC0>:
200081e8:	e59f0184 	ldr	a1, [pc, #388]	; 20008374 <vk_error_addr+0x18>
200081ec:	e5901000 	ldr	a2, [a1]
200081f0:	e1a0e00f 	mov	lr, pc
200081f4:	e1a0f001 	mov	pc, a2
200081f8:	e321f092 	msr	CPSR_c, #146	; 0x92
200081fc:	e59fe170 	ldr	lr, [pc, #368]	; 20008374 <vk_error_addr+0x18>
20008200:	e58ee000 	str	lr, [lr]
20008204:	e8bd4001 	pop	{a1, lr}
20008208:	e16ff000 	msr	SPSR_fsxc, a1
2000820c:	e8bd1fff 	pop	{a1, a2, a3, a4, v1, v2, v3, v4, v5, v6, sl, fp, ip}
20008210:	e8dd2000 	ldm	sp, {sp}^
20008214:	e28dd004 	add	sp, sp, #4
20008218:	e8dd4000 	ldm	sp, {lr}^
2000821c:	e28dd004 	add	sp, sp, #4
20008220:	e1b0f00e 	movs	pc, lr

20008224 <vh_pabort>:
20008224:	e3a0d586 	mov	sp, #562036736	; 0x21800000
20008228:	e24ee004 	sub	lr, lr, #4
2000822c:	e58fd120 	str	sp, [pc, #288]	; 20008354 <vk_save_pabort_stack_ptr>
20008230:	e96d7fff 	stmdb	sp!, {a1, a2, a3, a4, v1, v2, v3, v4, v5, v6, sl, fp, ip, sp, lr}^
20008234:	e14f0000 	mrs	a1, SPSR
20008238:	e92d4001 	push	{a1, lr}
2000823c:	e58fd114 	str	sp, [pc, #276]	; 20008358 <vk_save_pabort_current_tcb_bottom>
20008240:	eb0004b1 	bl	2000950c <vk_pabort_handler>

20008244 <vh_leaving_pabort>:
20008244:	e8bd4001 	pop	{a1, lr}
20008248:	e169f000 	msr	SPSR_fc, a1
2000824c:	e8fd1fff 	ldm	sp!, {a1, a2, a3, a4, v1, v2, v3, v4, v5, v6, sl, fp, ip}^
20008250:	e8dd2000 	ldm	sp, {sp}^
20008254:	e28dd004 	add	sp, sp, #4
20008258:	e8fd4000 	ldm	sp!, {lr}^
2000825c:	e1b0f00e 	movs	pc, lr

20008260 <vh_restore_thread_ctx>:
20008260:	e1a0d000 	mov	sp, a1
20008264:	e8bd4001 	pop	{a1, lr}
20008268:	e169f000 	msr	SPSR_fc, a1
2000826c:	e8bd1fff 	pop	{a1, a2, a3, a4, v1, v2, v3, v4, v5, v6, sl, fp, ip}
20008270:	e8dd2000 	ldm	sp, {sp}^
20008274:	e28dd004 	add	sp, sp, #4
20008278:	e8fd4000 	ldm	sp!, {lr}^
2000827c:	e59fd0c0 	ldr	sp, [pc, #192]	; 20008344 <vk_save_swi_mode_stack_ptr>
20008280:	e1b0f00e 	movs	pc, lr

20008284 <vr_save_thread_ctx>:
20008284:	e59f20cc 	ldr	a3, [pc, #204]	; 20008358 <vk_save_pabort_current_tcb_bottom>
20008288:	ea00000a 	b	200082b8 <vh_save_ctx_bottom>

2000828c <vh_change_ctx>:
2000828c:	e1a02000 	mov	a3, a1
20008290:	e59f00b0 	ldr	a1, [pc, #176]	; 20008348 <vk_save_swi_current_tcb_bottom>
20008294:	ea000007 	b	200082b8 <vh_save_ctx_bottom>

20008298 <vh_save_thread_ctx>:
20008298:	e10f1000 	mrs	a2, CPSR
2000829c:	e201100f 	and	a2, a2, #15
200082a0:	e3a02002 	mov	a3, #2
200082a4:	e1510002 	cmp	a2, a3
200082a8:	059f20a0 	ldreq	a3, [pc, #160]	; 20008350 <vk_save_irq_current_tcb_bottom>
200082ac:	159f10c4 	ldrne	a2, [pc, #196]	; 20008378 <vk_error_addr+0x1c>
200082b0:	15912000 	ldrne	a3, [a2]
200082b4:	eaffffff 	b	200082b8 <vh_save_ctx_bottom>

200082b8 <vh_save_ctx_bottom>:
200082b8:	e4921004 	ldr	a2, [a3], #4
200082bc:	e4801004 	str	a2, [a1], #4
200082c0:	e4921004 	ldr	a2, [a3], #4
200082c4:	e4801004 	str	a2, [a1], #4
200082c8:	e4921004 	ldr	a2, [a3], #4
200082cc:	e4801004 	str	a2, [a1], #4
200082d0:	e4921004 	ldr	a2, [a3], #4
200082d4:	e4801004 	str	a2, [a1], #4
200082d8:	e4921004 	ldr	a2, [a3], #4
200082dc:	e4801004 	str	a2, [a1], #4
200082e0:	e4921004 	ldr	a2, [a3], #4
200082e4:	e4801004 	str	a2, [a1], #4
200082e8:	e4921004 	ldr	a2, [a3], #4
200082ec:	e4801004 	str	a2, [a1], #4
200082f0:	e4921004 	ldr	a2, [a3], #4
200082f4:	e4801004 	str	a2, [a1], #4
200082f8:	e4921004 	ldr	a2, [a3], #4
200082fc:	e4801004 	str	a2, [a1], #4
20008300:	e4921004 	ldr	a2, [a3], #4
20008304:	e4801004 	str	a2, [a1], #4
20008308:	e4921004 	ldr	a2, [a3], #4
2000830c:	e4801004 	str	a2, [a1], #4
20008310:	e4921004 	ldr	a2, [a3], #4
20008314:	e4801004 	str	a2, [a1], #4
20008318:	e4921004 	ldr	a2, [a3], #4
2000831c:	e4801004 	str	a2, [a1], #4
20008320:	e4921004 	ldr	a2, [a3], #4
20008324:	e4801004 	str	a2, [a1], #4
20008328:	e4921004 	ldr	a2, [a3], #4
2000832c:	e4801004 	str	a2, [a1], #4
20008330:	e4921004 	ldr	a2, [a3], #4
20008334:	e4801004 	str	a2, [a1], #4
20008338:	e4921004 	ldr	a2, [a3], #4
2000833c:	e4801004 	str	a2, [a1], #4
20008340:	e1a0f00e 	mov	pc, lr

20008344 <vk_save_swi_mode_stack_ptr>:
20008344:	00000000 	andeq	a1, a1, a1

20008348 <vk_save_swi_current_tcb_bottom>:
20008348:	00000000 	andeq	a1, a1, a1

2000834c <vk_save_irq_mode_stack_ptr>:
2000834c:	00000000 	andeq	a1, a1, a1

20008350 <vk_save_irq_current_tcb_bottom>:
20008350:	00000000 	andeq	a1, a1, a1

20008354 <vk_save_pabort_stack_ptr>:
20008354:	00000000 	andeq	a1, a1, a1

20008358 <vk_save_pabort_current_tcb_bottom>:
20008358:	00000000 	andeq	a1, a1, a1

2000835c <vk_error_addr>:
2000835c:	00000000 	andeq	a1, a1, a1
20008360:	20008044 	andcs	v5, a1, v1, asr #32
20008364:	21a00000 	movcs	a1, a1
20008368:	21600000 	cmncs	a1, a1
2000836c:	21200000 	teqcs	a1, a1
20008370:	e4100000 	ldr	a1, [a1], #-0
20008374:	e4100f00 	ldr	a1, [a1], #-3840	; 0xf00
20008378:	201082d8 			; <UNDEFINED> instruction: 0x201082d8

2000837c <pthread_barrier_init>:
2000837c:	e1a0c00d 	mov	ip, sp
20008380:	e92dd800 	push	{fp, ip, lr, pc}
20008384:	e24cb004 	sub	fp, ip, #4
20008388:	e24dd018 	sub	sp, sp, #24
2000838c:	e50b0018 	str	a1, [fp, #-24]
20008390:	e50b101c 	str	a2, [fp, #-28]
20008394:	e50b2020 	str	a3, [fp, #-32]
20008398:	e3a00020 	mov	a1, #32
2000839c:	eb00072b 	bl	2000a050 <malloc>
200083a0:	e1a03000 	mov	a4, a1
200083a4:	e50b3010 	str	a4, [fp, #-16]
200083a8:	e51b2018 	ldr	a3, [fp, #-24]
200083ac:	e51b3010 	ldr	a4, [fp, #-16]
200083b0:	e5823000 	str	a4, [a3]
200083b4:	e51b3018 	ldr	a4, [fp, #-24]
200083b8:	e5932000 	ldr	a3, [a4]
200083bc:	e51b3020 	ldr	a4, [fp, #-32]
200083c0:	e5823008 	str	a4, [a3, #8]
200083c4:	e51b3018 	ldr	a4, [fp, #-24]
200083c8:	e5932000 	ldr	a3, [a4]
200083cc:	e3a03000 	mov	a4, #0
200083d0:	e582300c 	str	a4, [a3, #12]
200083d4:	e51b3018 	ldr	a4, [fp, #-24]
200083d8:	e5932000 	ldr	a3, [a4]
200083dc:	e3a03000 	mov	a4, #0
200083e0:	e5823010 	str	a4, [a3, #16]
200083e4:	e51b3018 	ldr	a4, [fp, #-24]
200083e8:	e5932000 	ldr	a3, [a4]
200083ec:	e3a03000 	mov	a4, #0
200083f0:	e5823014 	str	a4, [a3, #20]
200083f4:	e51b3018 	ldr	a4, [fp, #-24]
200083f8:	e5932000 	ldr	a3, [a4]
200083fc:	e3a03000 	mov	a4, #0
20008400:	e5823018 	str	a4, [a3, #24]
20008404:	e51b3018 	ldr	a4, [fp, #-24]
20008408:	e5932000 	ldr	a3, [a4]
2000840c:	e3a03000 	mov	a4, #0
20008410:	e582301c 	str	a4, [a3, #28]
20008414:	e3a03000 	mov	a4, #0
20008418:	e1a00003 	mov	a1, a4
2000841c:	e24bd00c 	sub	sp, fp, #12
20008420:	e89da800 	ldm	sp, {fp, sp, pc}

20008424 <pthread_barrier_destroy>:
20008424:	e1a0c00d 	mov	ip, sp
20008428:	e92dd800 	push	{fp, ip, lr, pc}
2000842c:	e24cb004 	sub	fp, ip, #4
20008430:	e24dd008 	sub	sp, sp, #8
20008434:	e50b0010 	str	a1, [fp, #-16]
20008438:	eb0016c0 	bl	2000df40 <vk_scheduler_lock>
2000843c:	e51b3010 	ldr	a4, [fp, #-16]
20008440:	e5932000 	ldr	a3, [a4]
20008444:	e3a03000 	mov	a4, #0
20008448:	e582300c 	str	a4, [a3, #12]
2000844c:	e51b3010 	ldr	a4, [fp, #-16]
20008450:	e5932000 	ldr	a3, [a4]
20008454:	e3a03000 	mov	a4, #0
20008458:	e5823010 	str	a4, [a3, #16]
2000845c:	e51b3010 	ldr	a4, [fp, #-16]
20008460:	e5932000 	ldr	a3, [a4]
20008464:	e3a03000 	mov	a4, #0
20008468:	e5823014 	str	a4, [a3, #20]
2000846c:	e51b3010 	ldr	a4, [fp, #-16]
20008470:	e5932000 	ldr	a3, [a4]
20008474:	e3a03000 	mov	a4, #0
20008478:	e5823018 	str	a4, [a3, #24]
2000847c:	e51b3010 	ldr	a4, [fp, #-16]
20008480:	e5932000 	ldr	a3, [a4]
20008484:	e3a03000 	mov	a4, #0
20008488:	e582301c 	str	a4, [a3, #28]
2000848c:	e51b3010 	ldr	a4, [fp, #-16]
20008490:	e5933000 	ldr	a4, [a4]
20008494:	e1a00003 	mov	a1, a4
20008498:	eb000654 	bl	20009df0 <vk_free>
2000849c:	eb0016c1 	bl	2000dfa8 <vk_scheduler_unlock>
200084a0:	e3a03000 	mov	a4, #0
200084a4:	e1a00003 	mov	a1, a4
200084a8:	e24bd00c 	sub	sp, fp, #12
200084ac:	e89da800 	ldm	sp, {fp, sp, pc}

200084b0 <pthread_barrier_wait>:
200084b0:	e1a0c00d 	mov	ip, sp
200084b4:	e92dd800 	push	{fp, ip, lr, pc}
200084b8:	e24cb004 	sub	fp, ip, #4
200084bc:	e24dd018 	sub	sp, sp, #24
200084c0:	e59f233c 	ldr	a3, [pc, #828]	; 20008804 <pthread_barrier_wait+0x354>
200084c4:	e50b2020 	str	a3, [fp, #-32]
200084c8:	e51b3020 	ldr	a4, [fp, #-32]
200084cc:	e08f3003 	add	a4, pc, a4
200084d0:	e50b3020 	str	a4, [fp, #-32]
200084d4:	e50b0018 	str	a1, [fp, #-24]
200084d8:	eb001698 	bl	2000df40 <vk_scheduler_lock>
200084dc:	e51b3018 	ldr	a4, [fp, #-24]
200084e0:	e5933000 	ldr	a4, [a4]
200084e4:	e50b3010 	str	a4, [fp, #-16]
200084e8:	e51b3010 	ldr	a4, [fp, #-16]
200084ec:	e5933008 	ldr	a4, [a4, #8]
200084f0:	e2432001 	sub	a3, a4, #1
200084f4:	e51b3010 	ldr	a4, [fp, #-16]
200084f8:	e5832008 	str	a3, [a4, #8]
200084fc:	e51b3010 	ldr	a4, [fp, #-16]
20008500:	e5933008 	ldr	a4, [a4, #8]
20008504:	e3530000 	cmp	a4, #0
20008508:	0a000053 	beq	2000865c <pthread_barrier_wait+0x1ac>
2000850c:	e51b3010 	ldr	a4, [fp, #-16]
20008510:	e593300c 	ldr	a4, [a4, #12]
20008514:	e3530000 	cmp	a4, #0
20008518:	1a000006 	bne	20008538 <pthread_barrier_wait+0x88>
2000851c:	e59f32e4 	ldr	a4, [pc, #740]	; 20008808 <pthread_barrier_wait+0x358>
20008520:	e51b2020 	ldr	a3, [fp, #-32]
20008524:	e7923003 	ldr	a4, [a3, a4]
20008528:	e5932000 	ldr	a3, [a4]
2000852c:	e51b3010 	ldr	a4, [fp, #-16]
20008530:	e583200c 	str	a3, [a4, #12]
20008534:	ea000033 	b	20008608 <pthread_barrier_wait+0x158>
20008538:	e51b3010 	ldr	a4, [fp, #-16]
2000853c:	e5933010 	ldr	a4, [a4, #16]
20008540:	e3530000 	cmp	a4, #0
20008544:	1a000006 	bne	20008564 <pthread_barrier_wait+0xb4>
20008548:	e59f32b8 	ldr	a4, [pc, #696]	; 20008808 <pthread_barrier_wait+0x358>
2000854c:	e51b2020 	ldr	a3, [fp, #-32]
20008550:	e7923003 	ldr	a4, [a3, a4]
20008554:	e5932000 	ldr	a3, [a4]
20008558:	e51b3010 	ldr	a4, [fp, #-16]
2000855c:	e5832010 	str	a3, [a4, #16]
20008560:	ea000028 	b	20008608 <pthread_barrier_wait+0x158>
20008564:	e51b3010 	ldr	a4, [fp, #-16]
20008568:	e5933014 	ldr	a4, [a4, #20]
2000856c:	e3530000 	cmp	a4, #0
20008570:	1a000006 	bne	20008590 <pthread_barrier_wait+0xe0>
20008574:	e59f328c 	ldr	a4, [pc, #652]	; 20008808 <pthread_barrier_wait+0x358>
20008578:	e51b2020 	ldr	a3, [fp, #-32]
2000857c:	e7923003 	ldr	a4, [a3, a4]
20008580:	e5932000 	ldr	a3, [a4]
20008584:	e51b3010 	ldr	a4, [fp, #-16]
20008588:	e5832014 	str	a3, [a4, #20]
2000858c:	ea00001d 	b	20008608 <pthread_barrier_wait+0x158>
20008590:	e51b3010 	ldr	a4, [fp, #-16]
20008594:	e5933018 	ldr	a4, [a4, #24]
20008598:	e3530000 	cmp	a4, #0
2000859c:	1a000006 	bne	200085bc <pthread_barrier_wait+0x10c>
200085a0:	e59f3260 	ldr	a4, [pc, #608]	; 20008808 <pthread_barrier_wait+0x358>
200085a4:	e51b2020 	ldr	a3, [fp, #-32]
200085a8:	e7923003 	ldr	a4, [a3, a4]
200085ac:	e5932000 	ldr	a3, [a4]
200085b0:	e51b3010 	ldr	a4, [fp, #-16]
200085b4:	e5832018 	str	a3, [a4, #24]
200085b8:	ea000012 	b	20008608 <pthread_barrier_wait+0x158>
200085bc:	e51b3010 	ldr	a4, [fp, #-16]
200085c0:	e593301c 	ldr	a4, [a4, #28]
200085c4:	e3530000 	cmp	a4, #0
200085c8:	1a000006 	bne	200085e8 <pthread_barrier_wait+0x138>
200085cc:	e59f3234 	ldr	a4, [pc, #564]	; 20008808 <pthread_barrier_wait+0x358>
200085d0:	e51b2020 	ldr	a3, [fp, #-32]
200085d4:	e7923003 	ldr	a4, [a3, a4]
200085d8:	e5932000 	ldr	a3, [a4]
200085dc:	e51b3010 	ldr	a4, [fp, #-16]
200085e0:	e583201c 	str	a3, [a4, #28]
200085e4:	ea000007 	b	20008608 <pthread_barrier_wait+0x158>
200085e8:	e59f321c 	ldr	a4, [pc, #540]	; 2000880c <pthread_barrier_wait+0x35c>
200085ec:	e51b2020 	ldr	a3, [fp, #-32]
200085f0:	e0823003 	add	a4, a3, a4
200085f4:	e1a00003 	mov	a1, a4
200085f8:	eb001145 	bl	2000cb14 <printk>
200085fc:	e3e03000 	mvn	a4, #0
20008600:	e50b301c 	str	a4, [fp, #-28]
20008604:	ea00007a 	b	200087f4 <pthread_barrier_wait+0x344>
20008608:	e59f31f8 	ldr	a4, [pc, #504]	; 20008808 <pthread_barrier_wait+0x358>
2000860c:	e51b2020 	ldr	a3, [fp, #-32]
20008610:	e7923003 	ldr	a4, [a3, a4]
20008614:	e5932000 	ldr	a3, [a4]
20008618:	e3a03002 	mov	a4, #2
2000861c:	e5823000 	str	a4, [a3]
20008620:	e59f31e0 	ldr	a4, [pc, #480]	; 20008808 <pthread_barrier_wait+0x358>
20008624:	e51b2020 	ldr	a3, [fp, #-32]
20008628:	e7923003 	ldr	a4, [a3, a4]
2000862c:	e5933000 	ldr	a4, [a4]
20008630:	e1a00003 	mov	a1, a4
20008634:	e59f31d4 	ldr	a4, [pc, #468]	; 20008810 <pthread_barrier_wait+0x360>
20008638:	e51b2020 	ldr	a3, [fp, #-32]
2000863c:	e7923003 	ldr	a4, [a3, a4]
20008640:	e1a01003 	mov	a2, a4
20008644:	eb001322 	bl	2000d2d4 <vk_thread_dequeue>
20008648:	eb001656 	bl	2000dfa8 <vk_scheduler_unlock>
2000864c:	eb000462 	bl	200097dc <vk_swi_scheduler>
20008650:	e3a03000 	mov	a4, #0
20008654:	e50b301c 	str	a4, [fp, #-28]
20008658:	ea000065 	b	200087f4 <pthread_barrier_wait+0x344>
2000865c:	e51b2010 	ldr	a3, [fp, #-16]
20008660:	e3a03000 	mov	a4, #0
20008664:	e5823008 	str	a4, [a3, #8]
20008668:	e51b3010 	ldr	a4, [fp, #-16]
2000866c:	e593300c 	ldr	a4, [a4, #12]
20008670:	e3530000 	cmp	a4, #0
20008674:	0a00000e 	beq	200086b4 <pthread_barrier_wait+0x204>
20008678:	e51b3010 	ldr	a4, [fp, #-16]
2000867c:	e593200c 	ldr	a3, [a4, #12]
20008680:	e3a03001 	mov	a4, #1
20008684:	e5823000 	str	a4, [a3]
20008688:	e51b3010 	ldr	a4, [fp, #-16]
2000868c:	e593300c 	ldr	a4, [a4, #12]
20008690:	e1a00003 	mov	a1, a4
20008694:	e59f3174 	ldr	a4, [pc, #372]	; 20008810 <pthread_barrier_wait+0x360>
20008698:	e51b2020 	ldr	a3, [fp, #-32]
2000869c:	e7923003 	ldr	a4, [a3, a4]
200086a0:	e1a01003 	mov	a2, a4
200086a4:	eb00129c 	bl	2000d11c <vk_thread_enqueue>
200086a8:	e51b2010 	ldr	a3, [fp, #-16]
200086ac:	e3a03000 	mov	a4, #0
200086b0:	e582300c 	str	a4, [a3, #12]
200086b4:	e51b3010 	ldr	a4, [fp, #-16]
200086b8:	e5933010 	ldr	a4, [a4, #16]
200086bc:	e3530000 	cmp	a4, #0
200086c0:	0a00000e 	beq	20008700 <pthread_barrier_wait+0x250>
200086c4:	e51b3010 	ldr	a4, [fp, #-16]
200086c8:	e5932010 	ldr	a3, [a4, #16]
200086cc:	e3a03001 	mov	a4, #1
200086d0:	e5823000 	str	a4, [a3]
200086d4:	e51b3010 	ldr	a4, [fp, #-16]
200086d8:	e5933010 	ldr	a4, [a4, #16]
200086dc:	e1a00003 	mov	a1, a4
200086e0:	e59f3128 	ldr	a4, [pc, #296]	; 20008810 <pthread_barrier_wait+0x360>
200086e4:	e51b2020 	ldr	a3, [fp, #-32]
200086e8:	e7923003 	ldr	a4, [a3, a4]
200086ec:	e1a01003 	mov	a2, a4
200086f0:	eb001289 	bl	2000d11c <vk_thread_enqueue>
200086f4:	e51b2010 	ldr	a3, [fp, #-16]
200086f8:	e3a03000 	mov	a4, #0
200086fc:	e5823010 	str	a4, [a3, #16]
20008700:	e51b3010 	ldr	a4, [fp, #-16]
20008704:	e5933014 	ldr	a4, [a4, #20]
20008708:	e3530000 	cmp	a4, #0
2000870c:	0a00000e 	beq	2000874c <pthread_barrier_wait+0x29c>
20008710:	e51b3010 	ldr	a4, [fp, #-16]
20008714:	e5932014 	ldr	a3, [a4, #20]
20008718:	e3a03001 	mov	a4, #1
2000871c:	e5823000 	str	a4, [a3]
20008720:	e51b3010 	ldr	a4, [fp, #-16]
20008724:	e5933014 	ldr	a4, [a4, #20]
20008728:	e1a00003 	mov	a1, a4
2000872c:	e59f30dc 	ldr	a4, [pc, #220]	; 20008810 <pthread_barrier_wait+0x360>
20008730:	e51b2020 	ldr	a3, [fp, #-32]
20008734:	e7923003 	ldr	a4, [a3, a4]
20008738:	e1a01003 	mov	a2, a4
2000873c:	eb001276 	bl	2000d11c <vk_thread_enqueue>
20008740:	e51b2010 	ldr	a3, [fp, #-16]
20008744:	e3a03000 	mov	a4, #0
20008748:	e5823014 	str	a4, [a3, #20]
2000874c:	e51b3010 	ldr	a4, [fp, #-16]
20008750:	e5933018 	ldr	a4, [a4, #24]
20008754:	e3530000 	cmp	a4, #0
20008758:	0a00000e 	beq	20008798 <pthread_barrier_wait+0x2e8>
2000875c:	e51b3010 	ldr	a4, [fp, #-16]
20008760:	e5932018 	ldr	a3, [a4, #24]
20008764:	e3a03001 	mov	a4, #1
20008768:	e5823000 	str	a4, [a3]
2000876c:	e51b3010 	ldr	a4, [fp, #-16]
20008770:	e5933018 	ldr	a4, [a4, #24]
20008774:	e1a00003 	mov	a1, a4
20008778:	e59f3090 	ldr	a4, [pc, #144]	; 20008810 <pthread_barrier_wait+0x360>
2000877c:	e51b2020 	ldr	a3, [fp, #-32]
20008780:	e7923003 	ldr	a4, [a3, a4]
20008784:	e1a01003 	mov	a2, a4
20008788:	eb001263 	bl	2000d11c <vk_thread_enqueue>
2000878c:	e51b2010 	ldr	a3, [fp, #-16]
20008790:	e3a03000 	mov	a4, #0
20008794:	e5823018 	str	a4, [a3, #24]
20008798:	e51b3010 	ldr	a4, [fp, #-16]
2000879c:	e593301c 	ldr	a4, [a4, #28]
200087a0:	e3530000 	cmp	a4, #0
200087a4:	0a00000e 	beq	200087e4 <pthread_barrier_wait+0x334>
200087a8:	e51b3010 	ldr	a4, [fp, #-16]
200087ac:	e593201c 	ldr	a3, [a4, #28]
200087b0:	e3a03001 	mov	a4, #1
200087b4:	e5823000 	str	a4, [a3]
200087b8:	e51b3010 	ldr	a4, [fp, #-16]
200087bc:	e593301c 	ldr	a4, [a4, #28]
200087c0:	e1a00003 	mov	a1, a4
200087c4:	e59f3044 	ldr	a4, [pc, #68]	; 20008810 <pthread_barrier_wait+0x360>
200087c8:	e51b2020 	ldr	a3, [fp, #-32]
200087cc:	e7923003 	ldr	a4, [a3, a4]
200087d0:	e1a01003 	mov	a2, a4
200087d4:	eb001250 	bl	2000d11c <vk_thread_enqueue>
200087d8:	e51b2010 	ldr	a3, [fp, #-16]
200087dc:	e3a03000 	mov	a4, #0
200087e0:	e582301c 	str	a4, [a3, #28]
200087e4:	eb0015ef 	bl	2000dfa8 <vk_scheduler_unlock>
200087e8:	eb0003fb 	bl	200097dc <vk_swi_scheduler>
200087ec:	e3a03000 	mov	a4, #0
200087f0:	e50b301c 	str	a4, [fp, #-28]
200087f4:	e51b301c 	ldr	a4, [fp, #-28]
200087f8:	e1a00003 	mov	a1, a4
200087fc:	e24bd00c 	sub	sp, fp, #12
20008800:	e89da800 	ldm	sp, {fp, sp, pc}
20008804:	0000b2c4 	andeq	fp, a1, v1, asr #5
20008808:	000000a4 	andeq	a1, a1, v1, lsr #1
2000880c:	fffff438 			; <UNDEFINED> instruction: 0xfffff438
20008810:	00000074 	andeq	a1, a1, v1, ror a1

20008814 <pthread_cond_init>:
20008814:	e1a0c00d 	mov	ip, sp
20008818:	e92dd800 	push	{fp, ip, lr, pc}
2000881c:	e24cb004 	sub	fp, ip, #4
20008820:	e24dd010 	sub	sp, sp, #16
20008824:	e50b0018 	str	a1, [fp, #-24]
20008828:	e50b101c 	str	a2, [fp, #-28]
2000882c:	e3a00018 	mov	a1, #24
20008830:	eb000606 	bl	2000a050 <malloc>
20008834:	e1a03000 	mov	a4, a1
20008838:	e50b3010 	str	a4, [fp, #-16]
2000883c:	e51b2010 	ldr	a3, [fp, #-16]
20008840:	e3a03000 	mov	a4, #0
20008844:	e582300c 	str	a4, [a3, #12]
20008848:	e51b2010 	ldr	a3, [fp, #-16]
2000884c:	e3a03000 	mov	a4, #0
20008850:	e5823010 	str	a4, [a3, #16]
20008854:	e51b2010 	ldr	a3, [fp, #-16]
20008858:	e3a03000 	mov	a4, #0
2000885c:	e5823014 	str	a4, [a3, #20]
20008860:	e51b2018 	ldr	a3, [fp, #-24]
20008864:	e51b3010 	ldr	a4, [fp, #-16]
20008868:	e5823000 	str	a4, [a3]
2000886c:	e3a03000 	mov	a4, #0
20008870:	e1a00003 	mov	a1, a4
20008874:	e24bd00c 	sub	sp, fp, #12
20008878:	e89da800 	ldm	sp, {fp, sp, pc}

2000887c <pthread_cond_destroy>:
2000887c:	e1a0c00d 	mov	ip, sp
20008880:	e92dd800 	push	{fp, ip, lr, pc}
20008884:	e24cb004 	sub	fp, ip, #4
20008888:	e24dd018 	sub	sp, sp, #24
2000888c:	e59f20b4 	ldr	a3, [pc, #180]	; 20008948 <pthread_cond_destroy+0xcc>
20008890:	e50b2020 	str	a3, [fp, #-32]
20008894:	e51b3020 	ldr	a4, [fp, #-32]
20008898:	e08f3003 	add	a4, pc, a4
2000889c:	e50b3020 	str	a4, [fp, #-32]
200088a0:	e50b0018 	str	a1, [fp, #-24]
200088a4:	eb0003b7 	bl	20009788 <vk_disable_interrupt>
200088a8:	e51b3018 	ldr	a4, [fp, #-24]
200088ac:	e5933000 	ldr	a4, [a4]
200088b0:	e50b3014 	str	a4, [fp, #-20]
200088b4:	e3a03000 	mov	a4, #0
200088b8:	e50b3010 	str	a4, [fp, #-16]
200088bc:	ea000015 	b	20008918 <pthread_cond_destroy+0x9c>
200088c0:	e51b3010 	ldr	a4, [fp, #-16]
200088c4:	e51b1014 	ldr	a2, [fp, #-20]
200088c8:	e2833002 	add	a4, a4, #2
200088cc:	e3a02004 	mov	a3, #4
200088d0:	e1a03103 	lsl	a4, a4, #2
200088d4:	e0813003 	add	a4, a2, a4
200088d8:	e0833002 	add	a4, a4, a3
200088dc:	e5933000 	ldr	a4, [a4]
200088e0:	e3530000 	cmp	a4, #0
200088e4:	0a000008 	beq	2000890c <pthread_cond_destroy+0x90>
200088e8:	e59f305c 	ldr	a4, [pc, #92]	; 2000894c <pthread_cond_destroy+0xd0>
200088ec:	e51b2020 	ldr	a3, [fp, #-32]
200088f0:	e0823003 	add	a4, a3, a4
200088f4:	e1a00003 	mov	a1, a4
200088f8:	eb001085 	bl	2000cb14 <printk>
200088fc:	eb00038c 	bl	20009734 <vk_enable_interrupt>
20008900:	e3e03000 	mvn	a4, #0
20008904:	e50b301c 	str	a4, [fp, #-28]
20008908:	ea00000a 	b	20008938 <pthread_cond_destroy+0xbc>
2000890c:	e51b3010 	ldr	a4, [fp, #-16]
20008910:	e2833001 	add	a4, a4, #1
20008914:	e50b3010 	str	a4, [fp, #-16]
20008918:	e51b3010 	ldr	a4, [fp, #-16]
2000891c:	e3530002 	cmp	a4, #2
20008920:	9affffe6 	bls	200088c0 <pthread_cond_destroy+0x44>
20008924:	e51b0014 	ldr	a1, [fp, #-20]
20008928:	eb000530 	bl	20009df0 <vk_free>
2000892c:	eb000380 	bl	20009734 <vk_enable_interrupt>
20008930:	e3a02001 	mov	a3, #1
20008934:	e50b201c 	str	a3, [fp, #-28]
20008938:	e51b301c 	ldr	a4, [fp, #-28]
2000893c:	e1a00003 	mov	a1, a4
20008940:	e24bd00c 	sub	sp, fp, #12
20008944:	e89da800 	ldm	sp, {fp, sp, pc}
20008948:	0000aef8 	strdeq	sl, [a1], -v5
2000894c:	fffff474 			; <UNDEFINED> instruction: 0xfffff474

20008950 <pthread_cond_wait>:
20008950:	e1a0c00d 	mov	ip, sp
20008954:	e92dd800 	push	{fp, ip, lr, pc}
20008958:	e24cb004 	sub	fp, ip, #4
2000895c:	e24dd018 	sub	sp, sp, #24
20008960:	e59f2138 	ldr	a3, [pc, #312]	; 20008aa0 <pthread_cond_wait+0x150>
20008964:	e50b2024 	str	a3, [fp, #-36]	; 0x24
20008968:	e51b3024 	ldr	a4, [fp, #-36]	; 0x24
2000896c:	e08f3003 	add	a4, pc, a4
20008970:	e50b3024 	str	a4, [fp, #-36]	; 0x24
20008974:	e50b0018 	str	a1, [fp, #-24]
20008978:	e50b101c 	str	a2, [fp, #-28]
2000897c:	eb00156f 	bl	2000df40 <vk_scheduler_lock>
20008980:	e51b3018 	ldr	a4, [fp, #-24]
20008984:	e5933000 	ldr	a4, [a4]
20008988:	e50b3010 	str	a4, [fp, #-16]
2000898c:	e51b3010 	ldr	a4, [fp, #-16]
20008990:	e593300c 	ldr	a4, [a4, #12]
20008994:	e3530000 	cmp	a4, #0
20008998:	1a000006 	bne	200089b8 <pthread_cond_wait+0x68>
2000899c:	e59f3100 	ldr	a4, [pc, #256]	; 20008aa4 <pthread_cond_wait+0x154>
200089a0:	e51b2024 	ldr	a3, [fp, #-36]	; 0x24
200089a4:	e7923003 	ldr	a4, [a3, a4]
200089a8:	e5932000 	ldr	a3, [a4]
200089ac:	e51b3010 	ldr	a4, [fp, #-16]
200089b0:	e583200c 	str	a3, [a4, #12]
200089b4:	ea00001d 	b	20008a30 <pthread_cond_wait+0xe0>
200089b8:	e51b3010 	ldr	a4, [fp, #-16]
200089bc:	e5933010 	ldr	a4, [a4, #16]
200089c0:	e3530000 	cmp	a4, #0
200089c4:	1a000006 	bne	200089e4 <pthread_cond_wait+0x94>
200089c8:	e59f30d4 	ldr	a4, [pc, #212]	; 20008aa4 <pthread_cond_wait+0x154>
200089cc:	e51b2024 	ldr	a3, [fp, #-36]	; 0x24
200089d0:	e7923003 	ldr	a4, [a3, a4]
200089d4:	e5932000 	ldr	a3, [a4]
200089d8:	e51b3010 	ldr	a4, [fp, #-16]
200089dc:	e5832010 	str	a3, [a4, #16]
200089e0:	ea000012 	b	20008a30 <pthread_cond_wait+0xe0>
200089e4:	e51b3010 	ldr	a4, [fp, #-16]
200089e8:	e5933014 	ldr	a4, [a4, #20]
200089ec:	e3530000 	cmp	a4, #0
200089f0:	1a000006 	bne	20008a10 <pthread_cond_wait+0xc0>
200089f4:	e59f30a8 	ldr	a4, [pc, #168]	; 20008aa4 <pthread_cond_wait+0x154>
200089f8:	e51b2024 	ldr	a3, [fp, #-36]	; 0x24
200089fc:	e7923003 	ldr	a4, [a3, a4]
20008a00:	e5932000 	ldr	a3, [a4]
20008a04:	e51b3010 	ldr	a4, [fp, #-16]
20008a08:	e5832014 	str	a3, [a4, #20]
20008a0c:	ea000007 	b	20008a30 <pthread_cond_wait+0xe0>
20008a10:	e59f3090 	ldr	a4, [pc, #144]	; 20008aa8 <pthread_cond_wait+0x158>
20008a14:	e51b2024 	ldr	a3, [fp, #-36]	; 0x24
20008a18:	e0823003 	add	a4, a3, a4
20008a1c:	e1a00003 	mov	a1, a4
20008a20:	eb00103b 	bl	2000cb14 <printk>
20008a24:	e3e03000 	mvn	a4, #0
20008a28:	e50b3020 	str	a4, [fp, #-32]
20008a2c:	ea000017 	b	20008a90 <pthread_cond_wait+0x140>
20008a30:	e59f306c 	ldr	a4, [pc, #108]	; 20008aa4 <pthread_cond_wait+0x154>
20008a34:	e51b2024 	ldr	a3, [fp, #-36]	; 0x24
20008a38:	e7923003 	ldr	a4, [a3, a4]
20008a3c:	e5932000 	ldr	a3, [a4]
20008a40:	e3a03002 	mov	a4, #2
20008a44:	e5823000 	str	a4, [a3]
20008a48:	e59f3054 	ldr	a4, [pc, #84]	; 20008aa4 <pthread_cond_wait+0x154>
20008a4c:	e51b2024 	ldr	a3, [fp, #-36]	; 0x24
20008a50:	e7923003 	ldr	a4, [a3, a4]
20008a54:	e5933000 	ldr	a4, [a4]
20008a58:	e1a00003 	mov	a1, a4
20008a5c:	e59f3048 	ldr	a4, [pc, #72]	; 20008aac <pthread_cond_wait+0x15c>
20008a60:	e51b2024 	ldr	a3, [fp, #-36]	; 0x24
20008a64:	e7923003 	ldr	a4, [a3, a4]
20008a68:	e1a01003 	mov	a2, a4
20008a6c:	eb001218 	bl	2000d2d4 <vk_thread_dequeue>
20008a70:	eb00154c 	bl	2000dfa8 <vk_scheduler_unlock>
20008a74:	e51b001c 	ldr	a1, [fp, #-28]
20008a78:	eb000abf 	bl	2000b57c <pthread_mutex_unlock>
20008a7c:	eb000356 	bl	200097dc <vk_swi_scheduler>
20008a80:	e51b001c 	ldr	a1, [fp, #-28]
20008a84:	eb0009ea 	bl	2000b234 <pthread_mutex_lock>
20008a88:	e3a03000 	mov	a4, #0
20008a8c:	e50b3020 	str	a4, [fp, #-32]
20008a90:	e51b3020 	ldr	a4, [fp, #-32]
20008a94:	e1a00003 	mov	a1, a4
20008a98:	e24bd00c 	sub	sp, fp, #12
20008a9c:	e89da800 	ldm	sp, {fp, sp, pc}
20008aa0:	0000ae24 	andeq	sl, a1, v1, lsr #28
20008aa4:	000000a4 	andeq	a1, a1, v1, lsr #1
20008aa8:	fffff4dc 			; <UNDEFINED> instruction: 0xfffff4dc
20008aac:	00000074 	andeq	a1, a1, v1, ror a1

20008ab0 <pthread_cond_signal>:
20008ab0:	e1a0c00d 	mov	ip, sp
20008ab4:	e92dd800 	push	{fp, ip, lr, pc}
20008ab8:	e24cb004 	sub	fp, ip, #4
20008abc:	e24dd018 	sub	sp, sp, #24
20008ac0:	e59f21c0 	ldr	a3, [pc, #448]	; 20008c88 <pthread_cond_signal+0x1d8>
20008ac4:	e50b2024 	str	a3, [fp, #-36]	; 0x24
20008ac8:	e51b3024 	ldr	a4, [fp, #-36]	; 0x24
20008acc:	e08f3003 	add	a4, pc, a4
20008ad0:	e50b3024 	str	a4, [fp, #-36]	; 0x24
20008ad4:	e50b0020 	str	a1, [fp, #-32]
20008ad8:	eb001518 	bl	2000df40 <vk_scheduler_lock>
20008adc:	e3a03000 	mov	a4, #0
20008ae0:	e50b3018 	str	a4, [fp, #-24]
20008ae4:	e51b3020 	ldr	a4, [fp, #-32]
20008ae8:	e5933000 	ldr	a4, [a4]
20008aec:	e50b3010 	str	a4, [fp, #-16]
20008af0:	e3a03000 	mov	a4, #0
20008af4:	e50b3014 	str	a4, [fp, #-20]
20008af8:	e51b3010 	ldr	a4, [fp, #-16]
20008afc:	e593300c 	ldr	a4, [a4, #12]
20008b00:	e3530000 	cmp	a4, #0
20008b04:	0a000002 	beq	20008b14 <pthread_cond_signal+0x64>
20008b08:	e51b3010 	ldr	a4, [fp, #-16]
20008b0c:	e593300c 	ldr	a4, [a4, #12]
20008b10:	e50b3014 	str	a4, [fp, #-20]
20008b14:	e51b3010 	ldr	a4, [fp, #-16]
20008b18:	e5933010 	ldr	a4, [a4, #16]
20008b1c:	e3530000 	cmp	a4, #0
20008b20:	0a000010 	beq	20008b68 <pthread_cond_signal+0xb8>
20008b24:	e51b3014 	ldr	a4, [fp, #-20]
20008b28:	e3530000 	cmp	a4, #0
20008b2c:	1a000003 	bne	20008b40 <pthread_cond_signal+0x90>
20008b30:	e51b3010 	ldr	a4, [fp, #-16]
20008b34:	e5933010 	ldr	a4, [a4, #16]
20008b38:	e50b3014 	str	a4, [fp, #-20]
20008b3c:	ea000009 	b	20008b68 <pthread_cond_signal+0xb8>
20008b40:	e51b3014 	ldr	a4, [fp, #-20]
20008b44:	e5932008 	ldr	a3, [a4, #8]
20008b48:	e51b3010 	ldr	a4, [fp, #-16]
20008b4c:	e5933010 	ldr	a4, [a4, #16]
20008b50:	e5933008 	ldr	a4, [a4, #8]
20008b54:	e1520003 	cmp	a3, a4
20008b58:	2a000002 	bcs	20008b68 <pthread_cond_signal+0xb8>
20008b5c:	e51b3010 	ldr	a4, [fp, #-16]
20008b60:	e5933010 	ldr	a4, [a4, #16]
20008b64:	e50b3014 	str	a4, [fp, #-20]
20008b68:	e51b3010 	ldr	a4, [fp, #-16]
20008b6c:	e5933014 	ldr	a4, [a4, #20]
20008b70:	e3530000 	cmp	a4, #0
20008b74:	0a00003b 	beq	20008c68 <pthread_cond_signal+0x1b8>
20008b78:	e51b3014 	ldr	a4, [fp, #-20]
20008b7c:	e3530000 	cmp	a4, #0
20008b80:	1a000003 	bne	20008b94 <pthread_cond_signal+0xe4>
20008b84:	e51b3010 	ldr	a4, [fp, #-16]
20008b88:	e5933014 	ldr	a4, [a4, #20]
20008b8c:	e50b3014 	str	a4, [fp, #-20]
20008b90:	ea000034 	b	20008c68 <pthread_cond_signal+0x1b8>
20008b94:	e51b3014 	ldr	a4, [fp, #-20]
20008b98:	e5932008 	ldr	a3, [a4, #8]
20008b9c:	e51b3010 	ldr	a4, [fp, #-16]
20008ba0:	e5933014 	ldr	a4, [a4, #20]
20008ba4:	e5933008 	ldr	a4, [a4, #8]
20008ba8:	e1520003 	cmp	a3, a4
20008bac:	2a00002d 	bcs	20008c68 <pthread_cond_signal+0x1b8>
20008bb0:	e51b3010 	ldr	a4, [fp, #-16]
20008bb4:	e5933014 	ldr	a4, [a4, #20]
20008bb8:	e50b3014 	str	a4, [fp, #-20]
20008bbc:	ea000029 	b	20008c68 <pthread_cond_signal+0x1b8>
20008bc0:	e51b3018 	ldr	a4, [fp, #-24]
20008bc4:	e51b1010 	ldr	a2, [fp, #-16]
20008bc8:	e2833002 	add	a4, a4, #2
20008bcc:	e3a02004 	mov	a3, #4
20008bd0:	e1a03103 	lsl	a4, a4, #2
20008bd4:	e0813003 	add	a4, a2, a4
20008bd8:	e0833002 	add	a4, a4, a3
20008bdc:	e5933000 	ldr	a4, [a4]
20008be0:	e3530000 	cmp	a4, #0
20008be4:	0a00001c 	beq	20008c5c <pthread_cond_signal+0x1ac>
20008be8:	e51b3018 	ldr	a4, [fp, #-24]
20008bec:	e51b1010 	ldr	a2, [fp, #-16]
20008bf0:	e2833002 	add	a4, a4, #2
20008bf4:	e3a02004 	mov	a3, #4
20008bf8:	e1a03103 	lsl	a4, a4, #2
20008bfc:	e0813003 	add	a4, a2, a4
20008c00:	e0833002 	add	a4, a4, a3
20008c04:	e5932000 	ldr	a3, [a4]
20008c08:	e51b3014 	ldr	a4, [fp, #-20]
20008c0c:	e1520003 	cmp	a3, a4
20008c10:	1a000011 	bne	20008c5c <pthread_cond_signal+0x1ac>
20008c14:	e51b3018 	ldr	a4, [fp, #-24]
20008c18:	e51b1010 	ldr	a2, [fp, #-16]
20008c1c:	e2833002 	add	a4, a4, #2
20008c20:	e3a02004 	mov	a3, #4
20008c24:	e1a03103 	lsl	a4, a4, #2
20008c28:	e0813003 	add	a4, a2, a4
20008c2c:	e0832002 	add	a3, a4, a3
20008c30:	e3a03000 	mov	a4, #0
20008c34:	e5823000 	str	a4, [a3]
20008c38:	e51b2014 	ldr	a3, [fp, #-20]
20008c3c:	e3a03001 	mov	a4, #1
20008c40:	e5823000 	str	a4, [a3]
20008c44:	e51b0014 	ldr	a1, [fp, #-20]
20008c48:	e59f303c 	ldr	a4, [pc, #60]	; 20008c8c <pthread_cond_signal+0x1dc>
20008c4c:	e51b2024 	ldr	a3, [fp, #-36]	; 0x24
20008c50:	e7923003 	ldr	a4, [a3, a4]
20008c54:	e1a01003 	mov	a2, a4
20008c58:	eb00112f 	bl	2000d11c <vk_thread_enqueue>
20008c5c:	e51b3018 	ldr	a4, [fp, #-24]
20008c60:	e2833001 	add	a4, a4, #1
20008c64:	e50b3018 	str	a4, [fp, #-24]
20008c68:	e51b3018 	ldr	a4, [fp, #-24]
20008c6c:	e3530002 	cmp	a4, #2
20008c70:	9affffd2 	bls	20008bc0 <pthread_cond_signal+0x110>
20008c74:	eb0014cb 	bl	2000dfa8 <vk_scheduler_unlock>
20008c78:	e3a03000 	mov	a4, #0
20008c7c:	e1a00003 	mov	a1, a4
20008c80:	e24bd00c 	sub	sp, fp, #12
20008c84:	e89da800 	ldm	sp, {fp, sp, pc}
20008c88:	0000acc4 	andeq	sl, a1, v1, asr #25
20008c8c:	00000074 	andeq	a1, a1, v1, ror a1

20008c90 <pthread_cond_broadcast>:
20008c90:	e1a0c00d 	mov	ip, sp
20008c94:	e92dd800 	push	{fp, ip, lr, pc}
20008c98:	e24cb004 	sub	fp, ip, #4
20008c9c:	e24dd018 	sub	sp, sp, #24
20008ca0:	e59f20ec 	ldr	a3, [pc, #236]	; 20008d94 <pthread_cond_broadcast+0x104>
20008ca4:	e50b2024 	str	a3, [fp, #-36]	; 0x24
20008ca8:	e51b3024 	ldr	a4, [fp, #-36]	; 0x24
20008cac:	e08f3003 	add	a4, pc, a4
20008cb0:	e50b3024 	str	a4, [fp, #-36]	; 0x24
20008cb4:	e50b0020 	str	a1, [fp, #-32]
20008cb8:	eb0014a0 	bl	2000df40 <vk_scheduler_lock>
20008cbc:	e51b3020 	ldr	a4, [fp, #-32]
20008cc0:	e5933000 	ldr	a4, [a4]
20008cc4:	e50b3014 	str	a4, [fp, #-20]
20008cc8:	e3a03000 	mov	a4, #0
20008ccc:	e50b3018 	str	a4, [fp, #-24]
20008cd0:	ea000027 	b	20008d74 <pthread_cond_broadcast+0xe4>
20008cd4:	e51b3018 	ldr	a4, [fp, #-24]
20008cd8:	e51b1014 	ldr	a2, [fp, #-20]
20008cdc:	e2833002 	add	a4, a4, #2
20008ce0:	e3a02004 	mov	a3, #4
20008ce4:	e1a03103 	lsl	a4, a4, #2
20008ce8:	e0813003 	add	a4, a2, a4
20008cec:	e0833002 	add	a4, a4, a3
20008cf0:	e5933000 	ldr	a4, [a4]
20008cf4:	e3530000 	cmp	a4, #0
20008cf8:	0a00001a 	beq	20008d68 <pthread_cond_broadcast+0xd8>
20008cfc:	e51b3018 	ldr	a4, [fp, #-24]
20008d00:	e51b1014 	ldr	a2, [fp, #-20]
20008d04:	e2833002 	add	a4, a4, #2
20008d08:	e3a02004 	mov	a3, #4
20008d0c:	e1a03103 	lsl	a4, a4, #2
20008d10:	e0813003 	add	a4, a2, a4
20008d14:	e0832002 	add	a3, a4, a3
20008d18:	e3a03000 	mov	a4, #0
20008d1c:	e5823000 	str	a4, [a3]
20008d20:	e51b3018 	ldr	a4, [fp, #-24]
20008d24:	e51b1014 	ldr	a2, [fp, #-20]
20008d28:	e2833002 	add	a4, a4, #2
20008d2c:	e3a02004 	mov	a3, #4
20008d30:	e1a03103 	lsl	a4, a4, #2
20008d34:	e0813003 	add	a4, a2, a4
20008d38:	e0833002 	add	a4, a4, a3
20008d3c:	e5933000 	ldr	a4, [a4]
20008d40:	e50b3010 	str	a4, [fp, #-16]
20008d44:	e51b2010 	ldr	a3, [fp, #-16]
20008d48:	e3a03001 	mov	a4, #1
20008d4c:	e5823000 	str	a4, [a3]
20008d50:	e51b0010 	ldr	a1, [fp, #-16]
20008d54:	e59f303c 	ldr	a4, [pc, #60]	; 20008d98 <pthread_cond_broadcast+0x108>
20008d58:	e51b2024 	ldr	a3, [fp, #-36]	; 0x24
20008d5c:	e7923003 	ldr	a4, [a3, a4]
20008d60:	e1a01003 	mov	a2, a4
20008d64:	eb0010ec 	bl	2000d11c <vk_thread_enqueue>
20008d68:	e51b3018 	ldr	a4, [fp, #-24]
20008d6c:	e2833001 	add	a4, a4, #1
20008d70:	e50b3018 	str	a4, [fp, #-24]
20008d74:	e51b3018 	ldr	a4, [fp, #-24]
20008d78:	e3530002 	cmp	a4, #2
20008d7c:	9affffd4 	bls	20008cd4 <pthread_cond_broadcast+0x44>
20008d80:	eb001488 	bl	2000dfa8 <vk_scheduler_unlock>
20008d84:	e3a03000 	mov	a4, #0
20008d88:	e1a00003 	mov	a1, a4
20008d8c:	e24bd00c 	sub	sp, fp, #12
20008d90:	e89da800 	ldm	sp, {fp, sp, pc}
20008d94:	0000aae4 	andeq	sl, a1, v1, ror #21
20008d98:	00000074 	andeq	a1, a1, v1, ror a1

20008d9c <vk_init_dd_table>:
20008d9c:	e1a0c00d 	mov	ip, sp
20008da0:	e92dd800 	push	{fp, ip, lr, pc}
20008da4:	e24cb004 	sub	fp, ip, #4
20008da8:	e24dd010 	sub	sp, sp, #16
20008dac:	e59f0104 	ldr	a1, [pc, #260]	; 20008eb8 <vk_init_dd_table+0x11c>
20008db0:	e50b0018 	str	a1, [fp, #-24]
20008db4:	e51b1018 	ldr	a2, [fp, #-24]
20008db8:	e08f1001 	add	a2, pc, a2
20008dbc:	e50b1018 	str	a2, [fp, #-24]
20008dc0:	e3a03000 	mov	a4, #0
20008dc4:	e54b300d 	strb	a4, [fp, #-13]
20008dc8:	ea000026 	b	20008e68 <vk_init_dd_table+0xcc>
20008dcc:	e55b100d 	ldrb	a2, [fp, #-13]
20008dd0:	e59f30e4 	ldr	a4, [pc, #228]	; 20008ebc <vk_init_dd_table+0x120>
20008dd4:	e51b0018 	ldr	a1, [fp, #-24]
20008dd8:	e7902003 	ldr	a3, [a1, a4]
20008ddc:	e3a03000 	mov	a4, #0
20008de0:	e7823201 	str	a4, [a3, a2, lsl #4]
20008de4:	e55b000d 	ldrb	a1, [fp, #-13]
20008de8:	e59f30cc 	ldr	a4, [pc, #204]	; 20008ebc <vk_init_dd_table+0x120>
20008dec:	e51b1018 	ldr	a2, [fp, #-24]
20008df0:	e7912003 	ldr	a3, [a2, a4]
20008df4:	e3a01004 	mov	a2, #4
20008df8:	e1a03200 	lsl	a4, a1, #4
20008dfc:	e0823003 	add	a4, a3, a4
20008e00:	e0832001 	add	a3, a4, a2
20008e04:	e3a03000 	mov	a4, #0
20008e08:	e5823000 	str	a4, [a3]
20008e0c:	e55b200d 	ldrb	a3, [fp, #-13]
20008e10:	e59f30a4 	ldr	a4, [pc, #164]	; 20008ebc <vk_init_dd_table+0x120>
20008e14:	e51b0018 	ldr	a1, [fp, #-24]
20008e18:	e7901003 	ldr	a2, [a1, a4]
20008e1c:	e1a03082 	lsl	a4, a3, #1
20008e20:	e2832001 	add	a3, a4, #1
20008e24:	e3e03000 	mvn	a4, #0
20008e28:	e7813182 	str	a4, [a2, a3, lsl #3]
20008e2c:	e55b200d 	ldrb	a3, [fp, #-13]
20008e30:	e59f3084 	ldr	a4, [pc, #132]	; 20008ebc <vk_init_dd_table+0x120>
20008e34:	e51b0018 	ldr	a1, [fp, #-24]
20008e38:	e7901003 	ldr	a2, [a1, a4]
20008e3c:	e1a03082 	lsl	a4, a3, #1
20008e40:	e2833001 	add	a4, a4, #1
20008e44:	e3a02004 	mov	a3, #4
20008e48:	e1a03183 	lsl	a4, a4, #3
20008e4c:	e0813003 	add	a4, a2, a4
20008e50:	e0832002 	add	a3, a4, a3
20008e54:	e3a03000 	mov	a4, #0
20008e58:	e5823000 	str	a4, [a3]
20008e5c:	e55b300d 	ldrb	a4, [fp, #-13]
20008e60:	e2833001 	add	a4, a4, #1
20008e64:	e54b300d 	strb	a4, [fp, #-13]
20008e68:	e55b300d 	ldrb	a4, [fp, #-13]
20008e6c:	e3530036 	cmp	a4, #54	; 0x36
20008e70:	9affffd5 	bls	20008dcc <vk_init_dd_table+0x30>
20008e74:	e3a03000 	mov	a4, #0
20008e78:	e54b300d 	strb	a4, [fp, #-13]
20008e7c:	ea000008 	b	20008ea4 <vk_init_dd_table+0x108>
20008e80:	e55b100d 	ldrb	a2, [fp, #-13]
20008e84:	e59f3034 	ldr	a4, [pc, #52]	; 20008ec0 <vk_init_dd_table+0x124>
20008e88:	e51b0018 	ldr	a1, [fp, #-24]
20008e8c:	e7902003 	ldr	a3, [a1, a4]
20008e90:	e3e03000 	mvn	a4, #0
20008e94:	e7823101 	str	a4, [a3, a2, lsl #2]
20008e98:	e55b300d 	ldrb	a4, [fp, #-13]
20008e9c:	e2833001 	add	a4, a4, #1
20008ea0:	e54b300d 	strb	a4, [fp, #-13]
20008ea4:	e55b300d 	ldrb	a4, [fp, #-13]
20008ea8:	e3530036 	cmp	a4, #54	; 0x36
20008eac:	9afffff3 	bls	20008e80 <vk_init_dd_table+0xe4>
20008eb0:	e24bd00c 	sub	sp, fp, #12
20008eb4:	e89da800 	ldm	sp, {fp, sp, pc}
20008eb8:	0000a9d8 	ldrdeq	sl, [a1], -v5
20008ebc:	000000c8 	andeq	a1, a1, v5, asr #1
20008ec0:	00000014 	andeq	a1, a1, v1, lsl a1

20008ec4 <vu_register_dev>:
20008ec4:	e1a0c00d 	mov	ip, sp
20008ec8:	e92dd800 	push	{fp, ip, lr, pc}
20008ecc:	e24cb004 	sub	fp, ip, #4
20008ed0:	e24dd020 	sub	sp, sp, #32
20008ed4:	e59fc154 	ldr	ip, [pc, #340]	; 20009030 <vu_register_dev+0x16c>
20008ed8:	e50bc02c 	str	ip, [fp, #-44]	; 0x2c
20008edc:	e51bc02c 	ldr	ip, [fp, #-44]	; 0x2c
20008ee0:	e08fc00c 	add	ip, pc, ip
20008ee4:	e50bc02c 	str	ip, [fp, #-44]	; 0x2c
20008ee8:	e50b0018 	str	a1, [fp, #-24]
20008eec:	e50b101c 	str	a2, [fp, #-28]
20008ef0:	e50b2020 	str	a3, [fp, #-32]
20008ef4:	e50b3024 	str	a4, [fp, #-36]	; 0x24
20008ef8:	e51b3018 	ldr	a4, [fp, #-24]
20008efc:	e50b3010 	str	a4, [fp, #-16]
20008f00:	e51b0010 	ldr	a1, [fp, #-16]
20008f04:	e59f3128 	ldr	a4, [pc, #296]	; 20009034 <vu_register_dev+0x170>
20008f08:	e51b102c 	ldr	a2, [fp, #-44]	; 0x2c
20008f0c:	e7912003 	ldr	a3, [a2, a4]
20008f10:	e3a01004 	mov	a2, #4
20008f14:	e1a03200 	lsl	a4, a1, #4
20008f18:	e0823003 	add	a4, a3, a4
20008f1c:	e0833001 	add	a4, a4, a2
20008f20:	e5933000 	ldr	a4, [a4]
20008f24:	e3530001 	cmp	a4, #1
20008f28:	1a000008 	bne	20008f50 <vu_register_dev+0x8c>
20008f2c:	e59f3104 	ldr	a4, [pc, #260]	; 20009038 <vu_register_dev+0x174>
20008f30:	e51b202c 	ldr	a3, [fp, #-44]	; 0x2c
20008f34:	e0823003 	add	a4, a3, a4
20008f38:	e1a00003 	mov	a1, a4
20008f3c:	e51b101c 	ldr	a2, [fp, #-28]
20008f40:	eb000ef3 	bl	2000cb14 <printk>
20008f44:	e3e03000 	mvn	a4, #0
20008f48:	e50b3028 	str	a4, [fp, #-40]	; 0x28
20008f4c:	ea000033 	b	20009020 <vu_register_dev+0x15c>
20008f50:	e51b0010 	ldr	a1, [fp, #-16]
20008f54:	e59f30d8 	ldr	a4, [pc, #216]	; 20009034 <vu_register_dev+0x170>
20008f58:	e51bc02c 	ldr	ip, [fp, #-44]	; 0x2c
20008f5c:	e79c2003 	ldr	a3, [ip, a4]
20008f60:	e3a01004 	mov	a2, #4
20008f64:	e1a03200 	lsl	a4, a1, #4
20008f68:	e0823003 	add	a4, a3, a4
20008f6c:	e0832001 	add	a3, a4, a2
20008f70:	e3a03001 	mov	a4, #1
20008f74:	e5823000 	str	a4, [a3]
20008f78:	e51b1010 	ldr	a2, [fp, #-16]
20008f7c:	e59f30b0 	ldr	a4, [pc, #176]	; 20009034 <vu_register_dev+0x170>
20008f80:	e51b002c 	ldr	a1, [fp, #-44]	; 0x2c
20008f84:	e7902003 	ldr	a3, [a1, a4]
20008f88:	e51b301c 	ldr	a4, [fp, #-28]
20008f8c:	e7823201 	str	a4, [a3, a2, lsl #4]
20008f90:	e51b2010 	ldr	a3, [fp, #-16]
20008f94:	e59f3098 	ldr	a4, [pc, #152]	; 20009034 <vu_register_dev+0x170>
20008f98:	e51bc02c 	ldr	ip, [fp, #-44]	; 0x2c
20008f9c:	e79c1003 	ldr	a2, [ip, a4]
20008fa0:	e1a03082 	lsl	a4, a3, #1
20008fa4:	e2832001 	add	a3, a4, #1
20008fa8:	e51b3024 	ldr	a4, [fp, #-36]	; 0x24
20008fac:	e7813182 	str	a4, [a2, a3, lsl #3]
20008fb0:	e51b2010 	ldr	a3, [fp, #-16]
20008fb4:	e59f3078 	ldr	a4, [pc, #120]	; 20009034 <vu_register_dev+0x170>
20008fb8:	e51b002c 	ldr	a1, [fp, #-44]	; 0x2c
20008fbc:	e7901003 	ldr	a2, [a1, a4]
20008fc0:	e1a03082 	lsl	a4, a3, #1
20008fc4:	e2833001 	add	a4, a4, #1
20008fc8:	e3a02004 	mov	a3, #4
20008fcc:	e1a03183 	lsl	a4, a4, #3
20008fd0:	e0813003 	add	a4, a2, a4
20008fd4:	e0832002 	add	a3, a4, a3
20008fd8:	e51b3020 	ldr	a4, [fp, #-32]
20008fdc:	e5823000 	str	a4, [a3]
20008fe0:	e59f3054 	ldr	a4, [pc, #84]	; 2000903c <vu_register_dev+0x178>
20008fe4:	e51b102c 	ldr	a2, [fp, #-44]	; 0x2c
20008fe8:	e0813003 	add	a4, a2, a4
20008fec:	e1a00003 	mov	a1, a4
20008ff0:	eb000ec7 	bl	2000cb14 <printk>
20008ff4:	e51b3024 	ldr	a4, [fp, #-36]	; 0x24
20008ff8:	e3530000 	cmp	a4, #0
20008ffc:	ba000005 	blt	20009018 <vu_register_dev+0x154>
20009000:	e51b1024 	ldr	a2, [fp, #-36]	; 0x24
20009004:	e59f3034 	ldr	a4, [pc, #52]	; 20009040 <vu_register_dev+0x17c>
20009008:	e51bc02c 	ldr	ip, [fp, #-44]	; 0x2c
2000900c:	e79c2003 	ldr	a3, [ip, a4]
20009010:	e51b3018 	ldr	a4, [fp, #-24]
20009014:	e7823101 	str	a4, [a3, a2, lsl #2]
20009018:	e3a00000 	mov	a1, #0
2000901c:	e50b0028 	str	a1, [fp, #-40]	; 0x28
20009020:	e51b3028 	ldr	a4, [fp, #-40]	; 0x28
20009024:	e1a00003 	mov	a1, a4
20009028:	e24bd00c 	sub	sp, fp, #12
2000902c:	e89da800 	ldm	sp, {fp, sp, pc}
20009030:	0000a8b0 			; <UNDEFINED> instruction: 0x0000a8b0
20009034:	000000c8 	andeq	a1, a1, v5, asr #1
20009038:	fffff51c 			; <UNDEFINED> instruction: 0xfffff51c
2000903c:	fffff560 			; <UNDEFINED> instruction: 0xfffff560
20009040:	00000014 	andeq	a1, a1, v1, lsl a1

20009044 <vu_unregister_dev>:
20009044:	e1a0c00d 	mov	ip, sp
20009048:	e92dd800 	push	{fp, ip, lr, pc}
2000904c:	e24cb004 	sub	fp, ip, #4
20009050:	e24dd018 	sub	sp, sp, #24
20009054:	e59f2120 	ldr	a3, [pc, #288]	; 2000917c <vu_unregister_dev+0x138>
20009058:	e50b2020 	str	a3, [fp, #-32]
2000905c:	e51b3020 	ldr	a4, [fp, #-32]
20009060:	e08f3003 	add	a4, pc, a4
20009064:	e50b3020 	str	a4, [fp, #-32]
20009068:	e50b0018 	str	a1, [fp, #-24]
2000906c:	e50b101c 	str	a2, [fp, #-28]
20009070:	e51b3018 	ldr	a4, [fp, #-24]
20009074:	e50b3010 	str	a4, [fp, #-16]
20009078:	e51b0010 	ldr	a1, [fp, #-16]
2000907c:	e59f30fc 	ldr	a4, [pc, #252]	; 20009180 <vu_unregister_dev+0x13c>
20009080:	e51b1020 	ldr	a2, [fp, #-32]
20009084:	e7912003 	ldr	a3, [a2, a4]
20009088:	e3a01004 	mov	a2, #4
2000908c:	e1a03200 	lsl	a4, a1, #4
20009090:	e0823003 	add	a4, a3, a4
20009094:	e0832001 	add	a3, a4, a2
20009098:	e3a03000 	mov	a4, #0
2000909c:	e5823000 	str	a4, [a3]
200090a0:	e51b1010 	ldr	a2, [fp, #-16]
200090a4:	e59f30d4 	ldr	a4, [pc, #212]	; 20009180 <vu_unregister_dev+0x13c>
200090a8:	e51b0020 	ldr	a1, [fp, #-32]
200090ac:	e7902003 	ldr	a3, [a1, a4]
200090b0:	e3a03000 	mov	a4, #0
200090b4:	e7823201 	str	a4, [a3, a2, lsl #4]
200090b8:	e51b2010 	ldr	a3, [fp, #-16]
200090bc:	e59f30bc 	ldr	a4, [pc, #188]	; 20009180 <vu_unregister_dev+0x13c>
200090c0:	e51b0020 	ldr	a1, [fp, #-32]
200090c4:	e7901003 	ldr	a2, [a1, a4]
200090c8:	e1a03082 	lsl	a4, a3, #1
200090cc:	e2833001 	add	a4, a4, #1
200090d0:	e7913183 	ldr	a4, [a2, a4, lsl #3]
200090d4:	e3730001 	cmn	a4, #1
200090d8:	0a00000b 	beq	2000910c <vu_unregister_dev+0xc8>
200090dc:	e51b2010 	ldr	a3, [fp, #-16]
200090e0:	e59f3098 	ldr	a4, [pc, #152]	; 20009180 <vu_unregister_dev+0x13c>
200090e4:	e51b0020 	ldr	a1, [fp, #-32]
200090e8:	e7901003 	ldr	a2, [a1, a4]
200090ec:	e1a03082 	lsl	a4, a3, #1
200090f0:	e2833001 	add	a4, a4, #1
200090f4:	e7911183 	ldr	a2, [a2, a4, lsl #3]
200090f8:	e59f3084 	ldr	a4, [pc, #132]	; 20009184 <vu_unregister_dev+0x140>
200090fc:	e51b0020 	ldr	a1, [fp, #-32]
20009100:	e7902003 	ldr	a3, [a1, a4]
20009104:	e3e03000 	mvn	a4, #0
20009108:	e7823101 	str	a4, [a3, a2, lsl #2]
2000910c:	e51b2010 	ldr	a3, [fp, #-16]
20009110:	e59f3068 	ldr	a4, [pc, #104]	; 20009180 <vu_unregister_dev+0x13c>
20009114:	e51b0020 	ldr	a1, [fp, #-32]
20009118:	e7901003 	ldr	a2, [a1, a4]
2000911c:	e1a03082 	lsl	a4, a3, #1
20009120:	e2832001 	add	a3, a4, #1
20009124:	e3e03000 	mvn	a4, #0
20009128:	e7813182 	str	a4, [a2, a3, lsl #3]
2000912c:	e51b2010 	ldr	a3, [fp, #-16]
20009130:	e59f3048 	ldr	a4, [pc, #72]	; 20009180 <vu_unregister_dev+0x13c>
20009134:	e51b0020 	ldr	a1, [fp, #-32]
20009138:	e7901003 	ldr	a2, [a1, a4]
2000913c:	e1a03082 	lsl	a4, a3, #1
20009140:	e2833001 	add	a4, a4, #1
20009144:	e3a02004 	mov	a3, #4
20009148:	e1a03183 	lsl	a4, a4, #3
2000914c:	e0813003 	add	a4, a2, a4
20009150:	e0832002 	add	a3, a4, a3
20009154:	e3a03000 	mov	a4, #0
20009158:	e5823000 	str	a4, [a3]
2000915c:	e59f3024 	ldr	a4, [pc, #36]	; 20009188 <vu_unregister_dev+0x144>
20009160:	e51b1020 	ldr	a2, [fp, #-32]
20009164:	e0813003 	add	a4, a2, a4
20009168:	e1a00003 	mov	a1, a4
2000916c:	e51b101c 	ldr	a2, [fp, #-28]
20009170:	eb000e67 	bl	2000cb14 <printk>
20009174:	e24bd00c 	sub	sp, fp, #12
20009178:	e89da800 	ldm	sp, {fp, sp, pc}
2000917c:	0000a730 	andeq	sl, a1, a1, lsr v4
20009180:	000000c8 	andeq	a1, a1, v5, asr #1
20009184:	00000014 	andeq	a1, a1, v1, lsl a1
20009188:	fffff578 			; <UNDEFINED> instruction: 0xfffff578

2000918c <open>:
2000918c:	e1a0c00d 	mov	ip, sp
20009190:	e92dd800 	push	{fp, ip, lr, pc}
20009194:	e24cb004 	sub	fp, ip, #4
20009198:	e24dd018 	sub	sp, sp, #24
2000919c:	e59f10d4 	ldr	a2, [pc, #212]	; 20009278 <open+0xec>
200091a0:	e50b1020 	str	a2, [fp, #-32]
200091a4:	e51b2020 	ldr	a3, [fp, #-32]
200091a8:	e08f2002 	add	a3, pc, a3
200091ac:	e50b2020 	str	a3, [fp, #-32]
200091b0:	e50b0018 	str	a1, [fp, #-24]
200091b4:	e3a03000 	mov	a4, #0
200091b8:	e50b3010 	str	a4, [fp, #-16]
200091bc:	ea00001e 	b	2000923c <open+0xb0>
200091c0:	e51b2010 	ldr	a3, [fp, #-16]
200091c4:	e59f30b0 	ldr	a4, [pc, #176]	; 2000927c <open+0xf0>
200091c8:	e51b0020 	ldr	a1, [fp, #-32]
200091cc:	e7903003 	ldr	a4, [a1, a4]
200091d0:	e7933202 	ldr	a4, [a4, a3, lsl #4]
200091d4:	e1a00003 	mov	a1, a4
200091d8:	e51b1018 	ldr	a2, [fp, #-24]
200091dc:	eb001ce1 	bl	20010568 <strcmp>
200091e0:	e1a03000 	mov	a4, a1
200091e4:	e3530000 	cmp	a4, #0
200091e8:	1a000010 	bne	20009230 <open+0xa4>
200091ec:	e51b2010 	ldr	a3, [fp, #-16]
200091f0:	e59f3084 	ldr	a4, [pc, #132]	; 2000927c <open+0xf0>
200091f4:	e51b0020 	ldr	a1, [fp, #-32]
200091f8:	e7901003 	ldr	a2, [a1, a4]
200091fc:	e1a03082 	lsl	a4, a3, #1
20009200:	e2833001 	add	a4, a4, #1
20009204:	e3a02004 	mov	a3, #4
20009208:	e1a03183 	lsl	a4, a4, #3
2000920c:	e0813003 	add	a4, a2, a4
20009210:	e0833002 	add	a4, a4, a3
20009214:	e5933000 	ldr	a4, [a4]
20009218:	e5933000 	ldr	a4, [a4]
2000921c:	e51b0018 	ldr	a1, [fp, #-24]
20009220:	e12fff33 	blx	a4
20009224:	e51b1010 	ldr	a2, [fp, #-16]
20009228:	e50b101c 	str	a2, [fp, #-28]
2000922c:	ea00000d 	b	20009268 <open+0xdc>
20009230:	e51b3010 	ldr	a4, [fp, #-16]
20009234:	e2833001 	add	a4, a4, #1
20009238:	e50b3010 	str	a4, [fp, #-16]
2000923c:	e51b3010 	ldr	a4, [fp, #-16]
20009240:	e353001d 	cmp	a4, #29
20009244:	daffffdd 	ble	200091c0 <open+0x34>
20009248:	e59f3030 	ldr	a4, [pc, #48]	; 20009280 <open+0xf4>
2000924c:	e51b2020 	ldr	a3, [fp, #-32]
20009250:	e0823003 	add	a4, a3, a4
20009254:	e1a00003 	mov	a1, a4
20009258:	e51b1018 	ldr	a2, [fp, #-24]
2000925c:	eb000e2c 	bl	2000cb14 <printk>
20009260:	e3a03001 	mov	a4, #1
20009264:	e50b301c 	str	a4, [fp, #-28]
20009268:	e51b301c 	ldr	a4, [fp, #-28]
2000926c:	e1a00003 	mov	a1, a4
20009270:	e24bd00c 	sub	sp, fp, #12
20009274:	e89da800 	ldm	sp, {fp, sp, pc}
20009278:	0000a5e8 	andeq	sl, a1, v5, ror #11
2000927c:	000000c8 	andeq	a1, a1, v5, asr #1
20009280:	fffff59c 			; <UNDEFINED> instruction: 0xfffff59c

20009284 <close>:
20009284:	e1a0c00d 	mov	ip, sp
20009288:	e92dd800 	push	{fp, ip, lr, pc}
2000928c:	e24cb004 	sub	fp, ip, #4
20009290:	e24dd008 	sub	sp, sp, #8
20009294:	e59f2048 	ldr	a3, [pc, #72]	; 200092e4 <close+0x60>
20009298:	e08f2002 	add	a3, pc, a3
2000929c:	e50b0010 	str	a1, [fp, #-16]
200092a0:	e51b1010 	ldr	a2, [fp, #-16]
200092a4:	e59f303c 	ldr	a4, [pc, #60]	; 200092e8 <close+0x64>
200092a8:	e7920003 	ldr	a1, [a3, a4]
200092ac:	e1a03081 	lsl	a4, a2, #1
200092b0:	e2833001 	add	a4, a4, #1
200092b4:	e3a02004 	mov	a3, #4
200092b8:	e1a03183 	lsl	a4, a4, #3
200092bc:	e0803003 	add	a4, a1, a4
200092c0:	e0833002 	add	a4, a4, a3
200092c4:	e5933000 	ldr	a4, [a4]
200092c8:	e5933004 	ldr	a4, [a4, #4]
200092cc:	e51b0010 	ldr	a1, [fp, #-16]
200092d0:	e12fff33 	blx	a4
200092d4:	e3a03000 	mov	a4, #0
200092d8:	e1a00003 	mov	a1, a4
200092dc:	e24bd00c 	sub	sp, fp, #12
200092e0:	e89da800 	ldm	sp, {fp, sp, pc}
200092e4:	0000a4f8 	strdeq	sl, [a1], -v5
200092e8:	000000c8 	andeq	a1, a1, v5, asr #1

200092ec <read>:
200092ec:	e1a0c00d 	mov	ip, sp
200092f0:	e92dd800 	push	{fp, ip, lr, pc}
200092f4:	e24cb004 	sub	fp, ip, #4
200092f8:	e24dd010 	sub	sp, sp, #16
200092fc:	e59fc058 	ldr	ip, [pc, #88]	; 2000935c <read+0x70>
20009300:	e08fc00c 	add	ip, pc, ip
20009304:	e50b0010 	str	a1, [fp, #-16]
20009308:	e50b1014 	str	a2, [fp, #-20]
2000930c:	e50b2018 	str	a3, [fp, #-24]
20009310:	e51b2010 	ldr	a3, [fp, #-16]
20009314:	e59f3044 	ldr	a4, [pc, #68]	; 20009360 <read+0x74>
20009318:	e79c1003 	ldr	a2, [ip, a4]
2000931c:	e1a03082 	lsl	a4, a3, #1
20009320:	e2833001 	add	a4, a4, #1
20009324:	e3a02004 	mov	a3, #4
20009328:	e1a03183 	lsl	a4, a4, #3
2000932c:	e0813003 	add	a4, a2, a4
20009330:	e0833002 	add	a4, a4, a3
20009334:	e5933000 	ldr	a4, [a4]
20009338:	e5933008 	ldr	a4, [a4, #8]
2000933c:	e51b0010 	ldr	a1, [fp, #-16]
20009340:	e51b1014 	ldr	a2, [fp, #-20]
20009344:	e51b2018 	ldr	a3, [fp, #-24]
20009348:	e12fff33 	blx	a4
2000934c:	e3a03000 	mov	a4, #0
20009350:	e1a00003 	mov	a1, a4
20009354:	e24bd00c 	sub	sp, fp, #12
20009358:	e89da800 	ldm	sp, {fp, sp, pc}
2000935c:	0000a490 	muleq	a1, a1, v1
20009360:	000000c8 	andeq	a1, a1, v5, asr #1

20009364 <write>:
20009364:	e1a0c00d 	mov	ip, sp
20009368:	e92dd800 	push	{fp, ip, lr, pc}
2000936c:	e24cb004 	sub	fp, ip, #4
20009370:	e24dd010 	sub	sp, sp, #16
20009374:	e59fc058 	ldr	ip, [pc, #88]	; 200093d4 <write+0x70>
20009378:	e08fc00c 	add	ip, pc, ip
2000937c:	e50b0010 	str	a1, [fp, #-16]
20009380:	e50b1014 	str	a2, [fp, #-20]
20009384:	e50b2018 	str	a3, [fp, #-24]
20009388:	e51b2010 	ldr	a3, [fp, #-16]
2000938c:	e59f3044 	ldr	a4, [pc, #68]	; 200093d8 <write+0x74>
20009390:	e79c1003 	ldr	a2, [ip, a4]
20009394:	e1a03082 	lsl	a4, a3, #1
20009398:	e2833001 	add	a4, a4, #1
2000939c:	e3a02004 	mov	a3, #4
200093a0:	e1a03183 	lsl	a4, a4, #3
200093a4:	e0813003 	add	a4, a2, a4
200093a8:	e0833002 	add	a4, a4, a3
200093ac:	e5933000 	ldr	a4, [a4]
200093b0:	e593300c 	ldr	a4, [a4, #12]
200093b4:	e51b0010 	ldr	a1, [fp, #-16]
200093b8:	e51b1014 	ldr	a2, [fp, #-20]
200093bc:	e51b2018 	ldr	a3, [fp, #-24]
200093c0:	e12fff33 	blx	a4
200093c4:	e3a03000 	mov	a4, #0
200093c8:	e1a00003 	mov	a1, a4
200093cc:	e24bd00c 	sub	sp, fp, #12
200093d0:	e89da800 	ldm	sp, {fp, sp, pc}
200093d4:	0000a418 	andeq	sl, a1, v5, lsl v1
200093d8:	000000c8 	andeq	a1, a1, v5, asr #1

200093dc <ioctl>:
200093dc:	e1a0c00d 	mov	ip, sp
200093e0:	e92dd800 	push	{fp, ip, lr, pc}
200093e4:	e24cb004 	sub	fp, ip, #4
200093e8:	e24dd010 	sub	sp, sp, #16
200093ec:	e59fc058 	ldr	ip, [pc, #88]	; 2000944c <ioctl+0x70>
200093f0:	e08fc00c 	add	ip, pc, ip
200093f4:	e50b0010 	str	a1, [fp, #-16]
200093f8:	e50b1014 	str	a2, [fp, #-20]
200093fc:	e50b2018 	str	a3, [fp, #-24]
20009400:	e51b2010 	ldr	a3, [fp, #-16]
20009404:	e59f3044 	ldr	a4, [pc, #68]	; 20009450 <ioctl+0x74>
20009408:	e79c1003 	ldr	a2, [ip, a4]
2000940c:	e1a03082 	lsl	a4, a3, #1
20009410:	e2833001 	add	a4, a4, #1
20009414:	e3a02004 	mov	a3, #4
20009418:	e1a03183 	lsl	a4, a4, #3
2000941c:	e0813003 	add	a4, a2, a4
20009420:	e0833002 	add	a4, a4, a3
20009424:	e5933000 	ldr	a4, [a4]
20009428:	e5933010 	ldr	a4, [a4, #16]
2000942c:	e51b0010 	ldr	a1, [fp, #-16]
20009430:	e51b1014 	ldr	a2, [fp, #-20]
20009434:	e51b2018 	ldr	a3, [fp, #-24]
20009438:	e12fff33 	blx	a4
2000943c:	e3a03000 	mov	a4, #0
20009440:	e1a00003 	mov	a1, a4
20009444:	e24bd00c 	sub	sp, fp, #12
20009448:	e89da800 	ldm	sp, {fp, sp, pc}
2000944c:	0000a3a0 	andeq	sl, a1, a1, lsr #7
20009450:	000000c8 	andeq	a1, a1, v5, asr #1

20009454 <copy_from_user>:
20009454:	e1a0c00d 	mov	ip, sp
20009458:	e92dd800 	push	{fp, ip, lr, pc}
2000945c:	e24cb004 	sub	fp, ip, #4
20009460:	e24dd010 	sub	sp, sp, #16
20009464:	e50b0010 	str	a1, [fp, #-16]
20009468:	e50b1014 	str	a2, [fp, #-20]
2000946c:	e50b2018 	str	a3, [fp, #-24]
20009470:	e51b0010 	ldr	a1, [fp, #-16]
20009474:	e51b1014 	ldr	a2, [fp, #-20]
20009478:	e51b2018 	ldr	a3, [fp, #-24]
2000947c:	eb002503 	bl	20012890 <memcpy>
20009480:	e51b3018 	ldr	a4, [fp, #-24]
20009484:	e1a00003 	mov	a1, a4
20009488:	e24bd00c 	sub	sp, fp, #12
2000948c:	e89da800 	ldm	sp, {fp, sp, pc}

20009490 <copy_to_user>:
20009490:	e1a0c00d 	mov	ip, sp
20009494:	e92dd800 	push	{fp, ip, lr, pc}
20009498:	e24cb004 	sub	fp, ip, #4
2000949c:	e24dd010 	sub	sp, sp, #16
200094a0:	e50b0010 	str	a1, [fp, #-16]
200094a4:	e50b1014 	str	a2, [fp, #-20]
200094a8:	e50b2018 	str	a3, [fp, #-24]
200094ac:	e51b0010 	ldr	a1, [fp, #-16]
200094b0:	e51b1014 	ldr	a2, [fp, #-20]
200094b4:	e51b2018 	ldr	a3, [fp, #-24]
200094b8:	eb0024f4 	bl	20012890 <memcpy>
200094bc:	e51b3018 	ldr	a4, [fp, #-24]
200094c0:	e1a00003 	mov	a1, a4
200094c4:	e24bd00c 	sub	sp, fp, #12
200094c8:	e89da800 	ldm	sp, {fp, sp, pc}

200094cc <vk_undef_handler>:
200094cc:	e1a0c00d 	mov	ip, sp
200094d0:	e92dd800 	push	{fp, ip, lr, pc}
200094d4:	e24cb004 	sub	fp, ip, #4
200094d8:	e59f2020 	ldr	a3, [pc, #32]	; 20009500 <vk_undef_handler+0x34>
200094dc:	e08f2002 	add	a3, pc, a3
200094e0:	e59f301c 	ldr	a4, [pc, #28]	; 20009504 <vk_undef_handler+0x38>
200094e4:	e7923003 	ldr	a4, [a3, a4]
200094e8:	e5931000 	ldr	a2, [a4]
200094ec:	e59f3014 	ldr	a4, [pc, #20]	; 20009508 <vk_undef_handler+0x3c>
200094f0:	e0823003 	add	a4, a3, a4
200094f4:	e1a00003 	mov	a1, a4
200094f8:	eb000d85 	bl	2000cb14 <printk>
200094fc:	eafffffe 	b	200094fc <vk_undef_handler+0x30>
20009500:	0000a2b4 			; <UNDEFINED> instruction: 0x0000a2b4
20009504:	00000068 	andeq	a1, a1, v5, rrx
20009508:	fffff5b0 			; <UNDEFINED> instruction: 0xfffff5b0

2000950c <vk_pabort_handler>:
2000950c:	e1a0c00d 	mov	ip, sp
20009510:	e92dd800 	push	{fp, ip, lr, pc}
20009514:	e24cb004 	sub	fp, ip, #4
20009518:	e59f2028 	ldr	a3, [pc, #40]	; 20009548 <vk_pabort_handler+0x3c>
2000951c:	e08f2002 	add	a3, pc, a3
20009520:	e59f3024 	ldr	a4, [pc, #36]	; 2000954c <vk_pabort_handler+0x40>
20009524:	e7923003 	ldr	a4, [a3, a4]
20009528:	e5933000 	ldr	a4, [a4]
2000952c:	e2833004 	add	a4, a4, #4
20009530:	e5931000 	ldr	a2, [a4]
20009534:	e59f3014 	ldr	a4, [pc, #20]	; 20009550 <vk_pabort_handler+0x44>
20009538:	e0823003 	add	a4, a3, a4
2000953c:	e1a00003 	mov	a1, a4
20009540:	eb000d73 	bl	2000cb14 <printk>
20009544:	eafffffe 	b	20009544 <vk_pabort_handler+0x38>
20009548:	0000a274 	andeq	sl, a1, v1, ror a3
2000954c:	00000000 	andeq	a1, a1, a1
20009550:	fffff5e4 			; <UNDEFINED> instruction: 0xfffff5e4

20009554 <vk_dabort_handler>:
20009554:	e1a0c00d 	mov	ip, sp
20009558:	e92dd800 	push	{fp, ip, lr, pc}
2000955c:	e24cb004 	sub	fp, ip, #4
20009560:	e59f2020 	ldr	a3, [pc, #32]	; 20009588 <vk_dabort_handler+0x34>
20009564:	e08f2002 	add	a3, pc, a3
20009568:	e59f301c 	ldr	a4, [pc, #28]	; 2000958c <vk_dabort_handler+0x38>
2000956c:	e7923003 	ldr	a4, [a3, a4]
20009570:	e5931000 	ldr	a2, [a4]
20009574:	e59f3014 	ldr	a4, [pc, #20]	; 20009590 <vk_dabort_handler+0x3c>
20009578:	e0823003 	add	a4, a3, a4
2000957c:	e1a00003 	mov	a1, a4
20009580:	eb000d63 	bl	2000cb14 <printk>
20009584:	eafffffe 	b	20009584 <vk_dabort_handler+0x30>
20009588:	0000a22c 	andeq	sl, a1, ip, lsr #4
2000958c:	00000068 	andeq	a1, a1, v5, rrx
20009590:	fffff610 			; <UNDEFINED> instruction: 0xfffff610

20009594 <vk_fiq_handler>:
20009594:	e1a0c00d 	mov	ip, sp
20009598:	e92dd800 	push	{fp, ip, lr, pc}
2000959c:	e24cb004 	sub	fp, ip, #4
200095a0:	e59f3014 	ldr	a4, [pc, #20]	; 200095bc <vk_fiq_handler+0x28>
200095a4:	e08f3003 	add	a4, pc, a4
200095a8:	e59f2010 	ldr	a3, [pc, #16]	; 200095c0 <vk_fiq_handler+0x2c>
200095ac:	e0833002 	add	a4, a4, a3
200095b0:	e1a00003 	mov	a1, a4
200095b4:	eb000d56 	bl	2000cb14 <printk>
200095b8:	eafffffe 	b	200095b8 <vk_fiq_handler+0x24>
200095bc:	0000a1ec 	andeq	sl, a1, ip, ror #3
200095c0:	fffff638 			; <UNDEFINED> instruction: 0xfffff638

200095c4 <vk_not_used_handler>:
200095c4:	e1a0c00d 	mov	ip, sp
200095c8:	e92dd800 	push	{fp, ip, lr, pc}
200095cc:	e24cb004 	sub	fp, ip, #4
200095d0:	e59f3014 	ldr	a4, [pc, #20]	; 200095ec <vk_not_used_handler+0x28>
200095d4:	e08f3003 	add	a4, pc, a4
200095d8:	e59f2010 	ldr	a3, [pc, #16]	; 200095f0 <vk_not_used_handler+0x2c>
200095dc:	e0833002 	add	a4, a4, a3
200095e0:	e1a00003 	mov	a1, a4
200095e4:	eb000d4a 	bl	2000cb14 <printk>
200095e8:	e89da800 	ldm	sp, {fp, sp, pc}
200095ec:	0000a1bc 			; <UNDEFINED> instruction: 0x0000a1bc
200095f0:	fffff650 			; <UNDEFINED> instruction: 0xfffff650

200095f4 <vh_interrupt_mask>:
200095f4:	e1a0c00d 	mov	ip, sp
200095f8:	e92dd800 	push	{fp, ip, lr, pc}
200095fc:	e24cb004 	sub	fp, ip, #4
20009600:	e24dd008 	sub	sp, sp, #8
20009604:	e50b0010 	str	a1, [fp, #-16]
20009608:	e24bd00c 	sub	sp, fp, #12
2000960c:	e89da800 	ldm	sp, {fp, sp, pc}

20009610 <vh_interrupt_unmask>:
20009610:	e1a0c00d 	mov	ip, sp
20009614:	e92dd800 	push	{fp, ip, lr, pc}
20009618:	e24cb004 	sub	fp, ip, #4
2000961c:	e24dd008 	sub	sp, sp, #8
20009620:	e50b0010 	str	a1, [fp, #-16]
20009624:	e24bd00c 	sub	sp, fp, #12
20009628:	e89da800 	ldm	sp, {fp, sp, pc}

2000962c <vk_swi_classifier>:
2000962c:	e1a0c00d 	mov	ip, sp
20009630:	e92dd800 	push	{fp, ip, lr, pc}
20009634:	e24cb004 	sub	fp, ip, #4
20009638:	e24dd020 	sub	sp, sp, #32
2000963c:	e59f20e0 	ldr	a3, [pc, #224]	; 20009724 <vk_swi_classifier+0xf8>
20009640:	e08f2002 	add	a3, pc, a3
20009644:	e50b0028 	str	a1, [fp, #-40]	; 0x28
20009648:	e59f30d8 	ldr	a4, [pc, #216]	; 20009728 <vk_swi_classifier+0xfc>
2000964c:	e7923003 	ldr	a4, [a3, a4]
20009650:	e5933000 	ldr	a4, [a4]
20009654:	e50b3014 	str	a4, [fp, #-20]
20009658:	e59f30cc 	ldr	a4, [pc, #204]	; 2000972c <vk_swi_classifier+0x100>
2000965c:	e7923003 	ldr	a4, [a3, a4]
20009660:	e5933000 	ldr	a4, [a4]
20009664:	e50b3010 	str	a4, [fp, #-16]
20009668:	e59f30c0 	ldr	a4, [pc, #192]	; 20009730 <vk_swi_classifier+0x104>
2000966c:	e0823003 	add	a4, a3, a4
20009670:	e1a00003 	mov	a1, a4
20009674:	eb000d26 	bl	2000cb14 <printk>
20009678:	e51b3028 	ldr	a4, [fp, #-40]	; 0x28
2000967c:	e50b3020 	str	a4, [fp, #-32]
20009680:	e51b3020 	ldr	a4, [fp, #-32]
20009684:	e5933034 	ldr	a4, [a4, #52]	; 0x34
20009688:	e50b3024 	str	a4, [fp, #-36]	; 0x24
2000968c:	e51b3024 	ldr	a4, [fp, #-36]	; 0x24
20009690:	e2433028 	sub	a4, a4, #40	; 0x28
20009694:	e3530004 	cmp	a4, #4
20009698:	908ff103 	addls	pc, pc, a4, lsl #2
2000969c:	ea00001e 	b	2000971c <vk_swi_classifier+0xf0>
200096a0:	ea000003 	b	200096b4 <vk_swi_classifier+0x88>
200096a4:	ea000008 	b	200096cc <vk_swi_classifier+0xa0>
200096a8:	ea00000d 	b	200096e4 <vk_swi_classifier+0xb8>
200096ac:	ea000011 	b	200096f8 <vk_swi_classifier+0xcc>
200096b0:	ea000018 	b	20009718 <vk_swi_classifier+0xec>
200096b4:	e51b2020 	ldr	a3, [fp, #-32]
200096b8:	e3a03000 	mov	a4, #0
200096bc:	e5823038 	str	a4, [a3, #56]	; 0x38
200096c0:	e51b0020 	ldr	a1, [fp, #-32]
200096c4:	eb00007d 	bl	200098c0 <vh_enable_interrupt>
200096c8:	ea000013 	b	2000971c <vk_swi_classifier+0xf0>
200096cc:	e51b2020 	ldr	a3, [fp, #-32]
200096d0:	e3a03001 	mov	a4, #1
200096d4:	e5823038 	str	a4, [a3, #56]	; 0x38
200096d8:	e51b0020 	ldr	a1, [fp, #-32]
200096dc:	eb000082 	bl	200098ec <vh_disable_interrupt>
200096e0:	ea00000d 	b	2000971c <vk_swi_classifier+0xf0>
200096e4:	e51b3020 	ldr	a4, [fp, #-32]
200096e8:	e5933020 	ldr	a4, [a4, #32]
200096ec:	e1a00003 	mov	a1, a4
200096f0:	ebfffae8 	bl	20008298 <vh_save_thread_ctx>
200096f4:	ea000008 	b	2000971c <vk_swi_classifier+0xf0>
200096f8:	e51b3020 	ldr	a4, [fp, #-32]
200096fc:	e5933028 	ldr	a4, [a4, #40]	; 0x28
20009700:	e50b301c 	str	a4, [fp, #-28]
20009704:	e51b3020 	ldr	a4, [fp, #-32]
20009708:	e5933020 	ldr	a4, [a4, #32]
2000970c:	e1a00003 	mov	a1, a4
20009710:	ebfffad2 	bl	20008260 <vh_restore_thread_ctx>
20009714:	ea000000 	b	2000971c <vk_swi_classifier+0xf0>
20009718:	eb0010f9 	bl	2000db04 <vk_scheduler>
2000971c:	e24bd00c 	sub	sp, fp, #12
20009720:	e89da800 	ldm	sp, {fp, sp, pc}
20009724:	0000a150 	andeq	sl, a1, a1, asr a2
20009728:	0000008c 	andeq	a1, a1, ip, lsl #1
2000972c:	000000c4 	andeq	a1, a1, v1, asr #1
20009730:	fffff668 			; <UNDEFINED> instruction: 0xfffff668

20009734 <vk_enable_interrupt>:
20009734:	e1a0c00d 	mov	ip, sp
20009738:	e92dd800 	push	{fp, ip, lr, pc}
2000973c:	e24cb004 	sub	fp, ip, #4
20009740:	e24dd008 	sub	sp, sp, #8
20009744:	e59f2034 	ldr	a3, [pc, #52]	; 20009780 <vk_enable_interrupt+0x4c>
20009748:	e08f2002 	add	a3, pc, a3
2000974c:	e59f3030 	ldr	a4, [pc, #48]	; 20009784 <vk_enable_interrupt+0x50>
20009750:	e7923003 	ldr	a4, [a3, a4]
20009754:	e5931000 	ldr	a2, [a4]
20009758:	e3a03028 	mov	a4, #40	; 0x28
2000975c:	e5813034 	str	a4, [a2, #52]	; 0x34
20009760:	e59f301c 	ldr	a4, [pc, #28]	; 20009784 <vk_enable_interrupt+0x50>
20009764:	e7923003 	ldr	a4, [a3, a4]
20009768:	e5933000 	ldr	a4, [a4]
2000976c:	e50b3010 	str	a4, [fp, #-16]
20009770:	e51b0010 	ldr	a1, [fp, #-16]
20009774:	eb000049 	bl	200098a0 <vh_swi>
20009778:	e24bd00c 	sub	sp, fp, #12
2000977c:	e89da800 	ldm	sp, {fp, sp, pc}
20009780:	0000a048 	andeq	sl, a1, v5, asr #32
20009784:	000000a4 	andeq	a1, a1, v1, lsr #1

20009788 <vk_disable_interrupt>:
20009788:	e1a0c00d 	mov	ip, sp
2000978c:	e92dd800 	push	{fp, ip, lr, pc}
20009790:	e24cb004 	sub	fp, ip, #4
20009794:	e24dd008 	sub	sp, sp, #8
20009798:	e59f2034 	ldr	a3, [pc, #52]	; 200097d4 <vk_disable_interrupt+0x4c>
2000979c:	e08f2002 	add	a3, pc, a3
200097a0:	e59f3030 	ldr	a4, [pc, #48]	; 200097d8 <vk_disable_interrupt+0x50>
200097a4:	e7923003 	ldr	a4, [a3, a4]
200097a8:	e5931000 	ldr	a2, [a4]
200097ac:	e3a03029 	mov	a4, #41	; 0x29
200097b0:	e5813034 	str	a4, [a2, #52]	; 0x34
200097b4:	e59f301c 	ldr	a4, [pc, #28]	; 200097d8 <vk_disable_interrupt+0x50>
200097b8:	e7923003 	ldr	a4, [a3, a4]
200097bc:	e5933000 	ldr	a4, [a4]
200097c0:	e50b3010 	str	a4, [fp, #-16]
200097c4:	e51b0010 	ldr	a1, [fp, #-16]
200097c8:	eb000034 	bl	200098a0 <vh_swi>
200097cc:	e24bd00c 	sub	sp, fp, #12
200097d0:	e89da800 	ldm	sp, {fp, sp, pc}
200097d4:	00009ff4 	strdeq	v6, [a1], -v1
200097d8:	000000a4 	andeq	a1, a1, v1, lsr #1

200097dc <vk_swi_scheduler>:
200097dc:	e1a0c00d 	mov	ip, sp
200097e0:	e92dd800 	push	{fp, ip, lr, pc}
200097e4:	e24cb004 	sub	fp, ip, #4
200097e8:	e24dd008 	sub	sp, sp, #8
200097ec:	e59f2034 	ldr	a3, [pc, #52]	; 20009828 <vk_swi_scheduler+0x4c>
200097f0:	e08f2002 	add	a3, pc, a3
200097f4:	e59f3030 	ldr	a4, [pc, #48]	; 2000982c <vk_swi_scheduler+0x50>
200097f8:	e7923003 	ldr	a4, [a3, a4]
200097fc:	e5931000 	ldr	a2, [a4]
20009800:	e3a0302c 	mov	a4, #44	; 0x2c
20009804:	e5813034 	str	a4, [a2, #52]	; 0x34
20009808:	e59f301c 	ldr	a4, [pc, #28]	; 2000982c <vk_swi_scheduler+0x50>
2000980c:	e7923003 	ldr	a4, [a3, a4]
20009810:	e5933000 	ldr	a4, [a4]
20009814:	e50b3010 	str	a4, [fp, #-16]
20009818:	e51b0010 	ldr	a1, [fp, #-16]
2000981c:	eb00001f 	bl	200098a0 <vh_swi>
20009820:	e24bd00c 	sub	sp, fp, #12
20009824:	e89da800 	ldm	sp, {fp, sp, pc}
20009828:	00009fa0 	andeq	v6, a1, a1, lsr #31
2000982c:	000000a4 	andeq	a1, a1, v1, lsr #1

20009830 <vk_save_thread_ctx>:
20009830:	e1a0c00d 	mov	ip, sp
20009834:	e92dd800 	push	{fp, ip, lr, pc}
20009838:	e24cb004 	sub	fp, ip, #4
2000983c:	e24dd010 	sub	sp, sp, #16
20009840:	e50b0018 	str	a1, [fp, #-24]
20009844:	e51b3018 	ldr	a4, [fp, #-24]
20009848:	e3a0202a 	mov	a3, #42	; 0x2a
2000984c:	e5832034 	str	a3, [a4, #52]	; 0x34
20009850:	e51b3018 	ldr	a4, [fp, #-24]
20009854:	e50b3010 	str	a4, [fp, #-16]
20009858:	e51b0010 	ldr	a1, [fp, #-16]
2000985c:	eb00000f 	bl	200098a0 <vh_swi>
20009860:	e24bd00c 	sub	sp, fp, #12
20009864:	e89da800 	ldm	sp, {fp, sp, pc}

20009868 <vk_restore_thread_ctx>:
20009868:	e1a0c00d 	mov	ip, sp
2000986c:	e92dd800 	push	{fp, ip, lr, pc}
20009870:	e24cb004 	sub	fp, ip, #4
20009874:	e24dd010 	sub	sp, sp, #16
20009878:	e50b0018 	str	a1, [fp, #-24]
2000987c:	e51b3018 	ldr	a4, [fp, #-24]
20009880:	e3a0202b 	mov	a3, #43	; 0x2b
20009884:	e5832034 	str	a3, [a4, #52]	; 0x34
20009888:	e51b3018 	ldr	a4, [fp, #-24]
2000988c:	e50b3010 	str	a4, [fp, #-16]
20009890:	e51b0010 	ldr	a1, [fp, #-16]
20009894:	eb000001 	bl	200098a0 <vh_swi>
20009898:	e24bd00c 	sub	sp, fp, #12
2000989c:	e89da800 	ldm	sp, {fp, sp, pc}

200098a0 <vh_swi>:
200098a0:	e1a0c00d 	mov	ip, sp
200098a4:	e92dd800 	push	{fp, ip, lr, pc}
200098a8:	e24cb004 	sub	fp, ip, #4
200098ac:	e24dd008 	sub	sp, sp, #8
200098b0:	e50b0010 	str	a1, [fp, #-16]
200098b4:	ef000000 	svc	0x00000000
200098b8:	e24bd00c 	sub	sp, fp, #12
200098bc:	e89da800 	ldm	sp, {fp, sp, pc}

200098c0 <vh_enable_interrupt>:
200098c0:	e1a0c00d 	mov	ip, sp
200098c4:	e92dd800 	push	{fp, ip, lr, pc}
200098c8:	e24cb004 	sub	fp, ip, #4
200098cc:	e24dd010 	sub	sp, sp, #16
200098d0:	e50b0018 	str	a1, [fp, #-24]
200098d4:	e14f3000 	mrs	a4, SPSR
200098d8:	e3c330c0 	bic	a4, a4, #192	; 0xc0
200098dc:	e161f003 	msr	SPSR_c, a4
200098e0:	e50b3010 	str	a4, [fp, #-16]
200098e4:	e24bd00c 	sub	sp, fp, #12
200098e8:	e89da800 	ldm	sp, {fp, sp, pc}

200098ec <vh_disable_interrupt>:
200098ec:	e1a0c00d 	mov	ip, sp
200098f0:	e92dd800 	push	{fp, ip, lr, pc}
200098f4:	e24cb004 	sub	fp, ip, #4
200098f8:	e24dd010 	sub	sp, sp, #16
200098fc:	e50b0018 	str	a1, [fp, #-24]
20009900:	e14f3000 	mrs	a4, SPSR
20009904:	e3833080 	orr	a4, a4, #128	; 0x80
20009908:	e161f003 	msr	SPSR_c, a4
2000990c:	e50b3010 	str	a4, [fp, #-16]
20009910:	e24bd00c 	sub	sp, fp, #12
20009914:	e89da800 	ldm	sp, {fp, sp, pc}

20009918 <__aeabi_unwind_cpp_pr0>:
20009918:	e1a0c00d 	mov	ip, sp
2000991c:	e92dd800 	push	{fp, ip, lr, pc}
20009920:	e24cb004 	sub	fp, ip, #4
20009924:	e89da800 	ldm	sp, {fp, sp, pc}

20009928 <set_interrupt>:
20009928:	e1a0c00d 	mov	ip, sp
2000992c:	e92dd800 	push	{fp, ip, lr, pc}
20009930:	e24cb004 	sub	fp, ip, #4
20009934:	eb001598 	bl	2000ef9c <vh_serial_irq_enable>
20009938:	e89da800 	ldm	sp, {fp, sp, pc}

2000993c <TIMER_test>:
2000993c:	e1a0c00d 	mov	ip, sp
20009940:	e92dd800 	push	{fp, ip, lr, pc}
20009944:	e24cb004 	sub	fp, ip, #4
20009948:	e24dd038 	sub	sp, sp, #56	; 0x38
2000994c:	e59f10c4 	ldr	a2, [pc, #196]	; 20009a18 <TIMER_test+0xdc>
20009950:	e50b1040 	str	a2, [fp, #-64]	; 0x40
20009954:	e51b3040 	ldr	a4, [fp, #-64]	; 0x40
20009958:	e08f3003 	add	a4, pc, a4
2000995c:	e50b3040 	str	a4, [fp, #-64]	; 0x40
20009960:	e59f20b4 	ldr	a3, [pc, #180]	; 20009a1c <TIMER_test+0xe0>
20009964:	e59f30b0 	ldr	a4, [pc, #176]	; 20009a1c <TIMER_test+0xe0>
20009968:	e5933000 	ldr	a4, [a4]
2000996c:	e3c33607 	bic	a4, a4, #7340032	; 0x700000
20009970:	e3833606 	orr	a4, a4, #6291456	; 0x600000
20009974:	e5823000 	str	a4, [a3]
20009978:	e59f209c 	ldr	a3, [pc, #156]	; 20009a1c <TIMER_test+0xe0>
2000997c:	e59f3098 	ldr	a4, [pc, #152]	; 20009a1c <TIMER_test+0xe0>
20009980:	e5933000 	ldr	a4, [a4]
20009984:	e3c33607 	bic	a4, a4, #7340032	; 0x700000
20009988:	e3833605 	orr	a4, a4, #5242880	; 0x500000
2000998c:	e5823000 	str	a4, [a3]
20009990:	e3a03000 	mov	a4, #0
20009994:	e50b3010 	str	a4, [fp, #-16]
20009998:	ea000019 	b	20009a04 <TIMER_test+0xc8>
2000999c:	e51b1010 	ldr	a2, [fp, #-16]
200099a0:	e59f3078 	ldr	a4, [pc, #120]	; 20009a20 <TIMER_test+0xe4>
200099a4:	e5933000 	ldr	a4, [a4]
200099a8:	e1a00003 	mov	a1, a4
200099ac:	e3e0202b 	mvn	a3, #43	; 0x2b
200099b0:	e1a03101 	lsl	a4, a2, #2
200099b4:	e24b100c 	sub	a2, fp, #12
200099b8:	e0813003 	add	a4, a2, a4
200099bc:	e0833002 	add	a4, a4, a3
200099c0:	e5830000 	str	a1, [a4]
200099c4:	e51b3010 	ldr	a4, [fp, #-16]
200099c8:	e3e0202b 	mvn	a3, #43	; 0x2b
200099cc:	e1a03103 	lsl	a4, a4, #2
200099d0:	e24b100c 	sub	a2, fp, #12
200099d4:	e0813003 	add	a4, a2, a4
200099d8:	e0833002 	add	a4, a4, a3
200099dc:	e5932000 	ldr	a3, [a4]
200099e0:	e59f303c 	ldr	a4, [pc, #60]	; 20009a24 <TIMER_test+0xe8>
200099e4:	e51b1040 	ldr	a2, [fp, #-64]	; 0x40
200099e8:	e0813003 	add	a4, a2, a4
200099ec:	e1a00003 	mov	a1, a4
200099f0:	e51b1010 	ldr	a2, [fp, #-16]
200099f4:	eb000c46 	bl	2000cb14 <printk>
200099f8:	e51b3010 	ldr	a4, [fp, #-16]
200099fc:	e2833001 	add	a4, a4, #1
20009a00:	e50b3010 	str	a4, [fp, #-16]
20009a04:	e51b3010 	ldr	a4, [fp, #-16]
20009a08:	e3530009 	cmp	a4, #9
20009a0c:	daffffe2 	ble	2000999c <TIMER_test+0x60>
20009a10:	e24bd00c 	sub	sp, fp, #12
20009a14:	e89da800 	ldm	sp, {fp, sp, pc}
20009a18:	00009e38 	andeq	v6, a1, v5, lsr lr
20009a1c:	ea000008 	b	20009a44 <VPOS_kernel_main+0x1c>
20009a20:	ea000040 	b	20009b28 <vk_malloc+0x10>
20009a24:	fffff784 			; <UNDEFINED> instruction: 0xfffff784

20009a28 <VPOS_kernel_main>:
20009a28:	e1a0c00d 	mov	ip, sp
20009a2c:	e92dd830 	push	{v1, v2, fp, ip, lr, pc}
20009a30:	e24cb004 	sub	fp, ip, #4
20009a34:	e24dd020 	sub	sp, sp, #32
20009a38:	e59f40b4 	ldr	v1, [pc, #180]	; 20009af4 <VPOS_kernel_main+0xcc>
20009a3c:	e08f4004 	add	v1, pc, v1
20009a40:	eb001158 	bl	2000dfa8 <vk_scheduler_unlock>
20009a44:	eb001cc9 	bl	20010d70 <init_thread_id>
20009a48:	eb00101c 	bl	2000dac0 <init_thread_pointer>
20009a4c:	e59f30a4 	ldr	a4, [pc, #164]	; 20009af8 <VPOS_kernel_main+0xd0>
20009a50:	e7942003 	ldr	a3, [v1, a4]
20009a54:	e3a03010 	mov	a4, #16
20009a58:	e5823000 	str	a4, [a3]
20009a5c:	eb000c8a 	bl	2000cc8c <vk_init_kdata_struct>
20009a60:	eb000174 	bl	2000a038 <vk_machine_init>
20009a64:	ebffffaf 	bl	20009928 <set_interrupt>
20009a68:	e59f308c 	ldr	a4, [pc, #140]	; 20009afc <VPOS_kernel_main+0xd4>
20009a6c:	e7943003 	ldr	a4, [v1, a4]
20009a70:	e5932000 	ldr	a3, [a4]
20009a74:	e59f3084 	ldr	a4, [pc, #132]	; 20009b00 <VPOS_kernel_main+0xd8>
20009a78:	e7943003 	ldr	a4, [v1, a4]
20009a7c:	e593c000 	ldr	ip, [a4]
20009a80:	e59f307c 	ldr	a4, [pc, #124]	; 20009b04 <VPOS_kernel_main+0xdc>
20009a84:	e7943003 	ldr	a4, [v1, a4]
20009a88:	e5935000 	ldr	v2, [a4]
20009a8c:	e59f3074 	ldr	a4, [pc, #116]	; 20009b08 <VPOS_kernel_main+0xe0>
20009a90:	e0843003 	add	a4, v1, a4
20009a94:	e1a00003 	mov	a1, a4
20009a98:	e1a01002 	mov	a2, a3
20009a9c:	e1a0200c 	mov	a3, ip
20009aa0:	e1a03005 	mov	a4, v2
20009aa4:	eb000c1a 	bl	2000cb14 <printk>
20009aa8:	ebffffa3 	bl	2000993c <TIMER_test>
20009aac:	e59f3058 	ldr	a4, [pc, #88]	; 20009b0c <VPOS_kernel_main+0xe4>
20009ab0:	e7942003 	ldr	a3, [v1, a4]
20009ab4:	e3a03000 	mov	a4, #0
20009ab8:	e5823000 	str	a4, [a3]
20009abc:	e24b301c 	sub	a4, fp, #28
20009ac0:	e1a00003 	mov	a1, a4
20009ac4:	e3a01000 	mov	a2, #0
20009ac8:	e59f3040 	ldr	a4, [pc, #64]	; 20009b10 <VPOS_kernel_main+0xe8>
20009acc:	e7943003 	ldr	a4, [v1, a4]
20009ad0:	e1a02003 	mov	a3, a4
20009ad4:	e3a03000 	mov	a4, #0
20009ad8:	eb001cb0 	bl	20010da0 <pthread_create>
20009adc:	eb001112 	bl	2000df2c <VPOS_start>
20009ae0:	e59f302c 	ldr	a4, [pc, #44]	; 20009b14 <VPOS_kernel_main+0xec>
20009ae4:	e0843003 	add	a4, v1, a4
20009ae8:	e1a00003 	mov	a1, a4
20009aec:	eb000c08 	bl	2000cb14 <printk>
20009af0:	eafffffe 	b	20009af0 <VPOS_kernel_main+0xc8>
20009af4:	00009d54 	andeq	v6, a1, v1, asr sp
20009af8:	0000009c 	muleq	a1, ip, a1
20009afc:	00000040 	andeq	a1, a1, a1, asr #32
20009b00:	00000020 	andeq	a1, a1, a1, lsr #32
20009b04:	00000034 	andeq	a1, a1, v1, lsr a1
20009b08:	fffff79c 			; <UNDEFINED> instruction: 0xfffff79c
20009b0c:	0000002c 	andeq	a1, a1, ip, lsr #32
20009b10:	00000060 	andeq	a1, a1, a1, rrx
20009b14:	fffff7a8 			; <UNDEFINED> instruction: 0xfffff7a8

20009b18 <vk_malloc>:
20009b18:	e1a0c00d 	mov	ip, sp
20009b1c:	e92dd800 	push	{fp, ip, lr, pc}
20009b20:	e24cb004 	sub	fp, ip, #4
20009b24:	e24dd020 	sub	sp, sp, #32
20009b28:	e59f11d8 	ldr	a2, [pc, #472]	; 20009d08 <vk_malloc+0x1f0>
20009b2c:	e50b1028 	str	a2, [fp, #-40]	; 0x28
20009b30:	e51b2028 	ldr	a3, [fp, #-40]	; 0x28
20009b34:	e08f2002 	add	a3, pc, a3
20009b38:	e50b2028 	str	a3, [fp, #-40]	; 0x28
20009b3c:	e50b0020 	str	a1, [fp, #-32]
20009b40:	e59f31c4 	ldr	a4, [pc, #452]	; 20009d0c <vk_malloc+0x1f4>
20009b44:	e51b1028 	ldr	a2, [fp, #-40]	; 0x28
20009b48:	e0813003 	add	a4, a2, a4
20009b4c:	e5933000 	ldr	a4, [a4]
20009b50:	e3530001 	cmp	a4, #1
20009b54:	1a000004 	bne	20009b6c <vk_malloc+0x54>
20009b58:	e59f31ac 	ldr	a4, [pc, #428]	; 20009d0c <vk_malloc+0x1f4>
20009b5c:	e51b1028 	ldr	a2, [fp, #-40]	; 0x28
20009b60:	e0812003 	add	a3, a2, a4
20009b64:	e3a03000 	mov	a4, #0
20009b68:	e5823000 	str	a4, [a3]
20009b6c:	e51b3020 	ldr	a4, [fp, #-32]
20009b70:	e2833007 	add	a4, a4, #7
20009b74:	e1a031a3 	lsr	a4, a4, #3
20009b78:	e2833001 	add	a4, a4, #1
20009b7c:	e50b3010 	str	a4, [fp, #-16]
20009b80:	e59f3184 	ldr	a4, [pc, #388]	; 20009d0c <vk_malloc+0x1f4>
20009b84:	e51b2028 	ldr	a3, [fp, #-40]	; 0x28
20009b88:	e0823003 	add	a4, a3, a4
20009b8c:	e5933000 	ldr	a4, [a4]
20009b90:	e50b3014 	str	a4, [fp, #-20]
20009b94:	e51b3014 	ldr	a4, [fp, #-20]
20009b98:	e3530000 	cmp	a4, #0
20009b9c:	1a000015 	bne	20009bf8 <vk_malloc+0xe0>
20009ba0:	e59f3168 	ldr	a4, [pc, #360]	; 20009d10 <vk_malloc+0x1f8>
20009ba4:	e51b1028 	ldr	a2, [fp, #-40]	; 0x28
20009ba8:	e0813003 	add	a4, a2, a4
20009bac:	e50b3014 	str	a4, [fp, #-20]
20009bb0:	e59f3154 	ldr	a4, [pc, #340]	; 20009d0c <vk_malloc+0x1f4>
20009bb4:	e51b1028 	ldr	a2, [fp, #-40]	; 0x28
20009bb8:	e0812003 	add	a3, a2, a4
20009bbc:	e51b3014 	ldr	a4, [fp, #-20]
20009bc0:	e5823000 	str	a4, [a3]
20009bc4:	e59f3140 	ldr	a4, [pc, #320]	; 20009d0c <vk_malloc+0x1f4>
20009bc8:	e51b2028 	ldr	a3, [fp, #-40]	; 0x28
20009bcc:	e0823003 	add	a4, a3, a4
20009bd0:	e5932000 	ldr	a3, [a4]
20009bd4:	e59f3134 	ldr	a4, [pc, #308]	; 20009d10 <vk_malloc+0x1f8>
20009bd8:	e51b1028 	ldr	a2, [fp, #-40]	; 0x28
20009bdc:	e0813003 	add	a4, a2, a4
20009be0:	e5832000 	str	a3, [a4]
20009be4:	e59f3124 	ldr	a4, [pc, #292]	; 20009d10 <vk_malloc+0x1f8>
20009be8:	e51b1028 	ldr	a2, [fp, #-40]	; 0x28
20009bec:	e0812003 	add	a3, a2, a4
20009bf0:	e3a03000 	mov	a4, #0
20009bf4:	e5823004 	str	a4, [a3, #4]
20009bf8:	e51b3014 	ldr	a4, [fp, #-20]
20009bfc:	e5933000 	ldr	a4, [a4]
20009c00:	e50b3018 	str	a4, [fp, #-24]
20009c04:	e51b3018 	ldr	a4, [fp, #-24]
20009c08:	e5932004 	ldr	a3, [a4, #4]
20009c0c:	e51b3010 	ldr	a4, [fp, #-16]
20009c10:	e1520003 	cmp	a3, a4
20009c14:	3a000021 	bcc	20009ca0 <vk_malloc+0x188>
20009c18:	e51b3018 	ldr	a4, [fp, #-24]
20009c1c:	e5932004 	ldr	a3, [a4, #4]
20009c20:	e51b3010 	ldr	a4, [fp, #-16]
20009c24:	e1520003 	cmp	a3, a4
20009c28:	1a000004 	bne	20009c40 <vk_malloc+0x128>
20009c2c:	e51b3018 	ldr	a4, [fp, #-24]
20009c30:	e5932000 	ldr	a3, [a4]
20009c34:	e51b3014 	ldr	a4, [fp, #-20]
20009c38:	e5832000 	str	a3, [a4]
20009c3c:	ea00000e 	b	20009c7c <vk_malloc+0x164>
20009c40:	e51b3018 	ldr	a4, [fp, #-24]
20009c44:	e5932004 	ldr	a3, [a4, #4]
20009c48:	e51b3010 	ldr	a4, [fp, #-16]
20009c4c:	e0632002 	rsb	a3, a4, a3
20009c50:	e51b3018 	ldr	a4, [fp, #-24]
20009c54:	e5832004 	str	a3, [a4, #4]
20009c58:	e51b3018 	ldr	a4, [fp, #-24]
20009c5c:	e5933004 	ldr	a4, [a4, #4]
20009c60:	e1a02183 	lsl	a3, a4, #3
20009c64:	e51b3018 	ldr	a4, [fp, #-24]
20009c68:	e0833002 	add	a4, a4, a3
20009c6c:	e50b3018 	str	a4, [fp, #-24]
20009c70:	e51b2018 	ldr	a3, [fp, #-24]
20009c74:	e51b3010 	ldr	a4, [fp, #-16]
20009c78:	e5823004 	str	a4, [a3, #4]
20009c7c:	e59f3088 	ldr	a4, [pc, #136]	; 20009d0c <vk_malloc+0x1f4>
20009c80:	e51b1028 	ldr	a2, [fp, #-40]	; 0x28
20009c84:	e0812003 	add	a3, a2, a4
20009c88:	e51b3014 	ldr	a4, [fp, #-20]
20009c8c:	e5823000 	str	a4, [a3]
20009c90:	e51b3018 	ldr	a4, [fp, #-24]
20009c94:	e2833008 	add	a4, a4, #8
20009c98:	e50b3024 	str	a4, [fp, #-36]	; 0x24
20009c9c:	ea000015 	b	20009cf8 <vk_malloc+0x1e0>
20009ca0:	e59f3064 	ldr	a4, [pc, #100]	; 20009d0c <vk_malloc+0x1f4>
20009ca4:	e51b2028 	ldr	a3, [fp, #-40]	; 0x28
20009ca8:	e0823003 	add	a4, a3, a4
20009cac:	e5932000 	ldr	a3, [a4]
20009cb0:	e51b3018 	ldr	a4, [fp, #-24]
20009cb4:	e1530002 	cmp	a4, a3
20009cb8:	1a000008 	bne	20009ce0 <vk_malloc+0x1c8>
20009cbc:	eb000014 	bl	20009d14 <heap_memory_alloc>
20009cc0:	e1a03000 	mov	a4, a1
20009cc4:	e50b3018 	str	a4, [fp, #-24]
20009cc8:	e51b3018 	ldr	a4, [fp, #-24]
20009ccc:	e3530000 	cmp	a4, #0
20009cd0:	1a000002 	bne	20009ce0 <vk_malloc+0x1c8>
20009cd4:	e3a03000 	mov	a4, #0
20009cd8:	e50b3024 	str	a4, [fp, #-36]	; 0x24
20009cdc:	ea000005 	b	20009cf8 <vk_malloc+0x1e0>
20009ce0:	e51b3018 	ldr	a4, [fp, #-24]
20009ce4:	e50b3014 	str	a4, [fp, #-20]
20009ce8:	e51b3018 	ldr	a4, [fp, #-24]
20009cec:	e5933000 	ldr	a4, [a4]
20009cf0:	e50b3018 	str	a4, [fp, #-24]
20009cf4:	eaffffc2 	b	20009c04 <vk_malloc+0xec>
20009cf8:	e51b3024 	ldr	a4, [fp, #-36]	; 0x24
20009cfc:	e1a00003 	mov	a1, a4
20009d00:	e24bd00c 	sub	sp, fp, #12
20009d04:	e89da800 	ldm	sp, {fp, sp, pc}
20009d08:	00009c5c 	andeq	v6, a1, ip, asr ip
20009d0c:	fffffefc 			; <UNDEFINED> instruction: 0xfffffefc
20009d10:	000f431c 	andeq	v1, pc, ip, lsl a4	; <UNPREDICTABLE>

20009d14 <heap_memory_alloc>:
20009d14:	e1a0c00d 	mov	ip, sp
20009d18:	e92dd800 	push	{fp, ip, lr, pc}
20009d1c:	e24cb004 	sub	fp, ip, #4
20009d20:	e24dd010 	sub	sp, sp, #16
20009d24:	e59f10b0 	ldr	a2, [pc, #176]	; 20009ddc <heap_memory_alloc+0xc8>
20009d28:	e50b101c 	str	a2, [fp, #-28]
20009d2c:	e51b201c 	ldr	a3, [fp, #-28]
20009d30:	e08f2002 	add	a3, pc, a3
20009d34:	e50b201c 	str	a3, [fp, #-28]
20009d38:	e59f30a0 	ldr	a4, [pc, #160]	; 20009de0 <heap_memory_alloc+0xcc>
20009d3c:	e51b101c 	ldr	a2, [fp, #-28]
20009d40:	e0812003 	add	a3, a2, a4
20009d44:	e3a03000 	mov	a4, #0
20009d48:	e5823000 	str	a4, [a3]
20009d4c:	e59f308c 	ldr	a4, [pc, #140]	; 20009de0 <heap_memory_alloc+0xcc>
20009d50:	e51b201c 	ldr	a3, [fp, #-28]
20009d54:	e0823003 	add	a4, a3, a4
20009d58:	e5933000 	ldr	a4, [a4]
20009d5c:	e3530000 	cmp	a4, #0
20009d60:	1a000017 	bne	20009dc4 <heap_memory_alloc+0xb0>
20009d64:	e59f3074 	ldr	a4, [pc, #116]	; 20009de0 <heap_memory_alloc+0xcc>
20009d68:	e51b101c 	ldr	a2, [fp, #-28]
20009d6c:	e0812003 	add	a3, a2, a4
20009d70:	e3a03001 	mov	a4, #1
20009d74:	e5823000 	str	a4, [a3]
20009d78:	e59f3064 	ldr	a4, [pc, #100]	; 20009de4 <heap_memory_alloc+0xd0>
20009d7c:	e51b201c 	ldr	a3, [fp, #-28]
20009d80:	e0823003 	add	a4, a3, a4
20009d84:	e50b3014 	str	a4, [fp, #-20]
20009d88:	e51b3014 	ldr	a4, [fp, #-20]
20009d8c:	e50b3010 	str	a4, [fp, #-16]
20009d90:	e51b2010 	ldr	a3, [fp, #-16]
20009d94:	e59f304c 	ldr	a4, [pc, #76]	; 20009de8 <heap_memory_alloc+0xd4>
20009d98:	e5823004 	str	a4, [a3, #4]
20009d9c:	e51b3010 	ldr	a4, [fp, #-16]
20009da0:	e2833008 	add	a4, a4, #8
20009da4:	e1a00003 	mov	a1, a4
20009da8:	eb000010 	bl	20009df0 <vk_free>
20009dac:	e59f3038 	ldr	a4, [pc, #56]	; 20009dec <heap_memory_alloc+0xd8>
20009db0:	e51b101c 	ldr	a2, [fp, #-28]
20009db4:	e0813003 	add	a4, a2, a4
20009db8:	e5933000 	ldr	a4, [a4]
20009dbc:	e50b3018 	str	a4, [fp, #-24]
20009dc0:	ea000001 	b	20009dcc <heap_memory_alloc+0xb8>
20009dc4:	e3a02000 	mov	a3, #0
20009dc8:	e50b2018 	str	a3, [fp, #-24]
20009dcc:	e51b3018 	ldr	a4, [fp, #-24]
20009dd0:	e1a00003 	mov	a1, a4
20009dd4:	e24bd00c 	sub	sp, fp, #12
20009dd8:	e89da800 	ldm	sp, {fp, sp, pc}
20009ddc:	00009a60 	andeq	v6, a1, a1, ror #20
20009de0:	000f4318 	andeq	v1, pc, v5, lsl a4	; <UNPREDICTABLE>
20009de4:	000000d8 	ldrdeq	a1, [a1], -v5
20009de8:	0001e848 	andeq	lr, a2, v5, asr #16
20009dec:	fffffefc 			; <UNDEFINED> instruction: 0xfffffefc

20009df0 <vk_free>:
20009df0:	e1a0c00d 	mov	ip, sp
20009df4:	e92dd800 	push	{fp, ip, lr, pc}
20009df8:	e24cb004 	sub	fp, ip, #4
20009dfc:	e24dd010 	sub	sp, sp, #16
20009e00:	e59f1188 	ldr	a2, [pc, #392]	; 20009f90 <vk_free+0x1a0>
20009e04:	e50b101c 	str	a2, [fp, #-28]
20009e08:	e51b201c 	ldr	a3, [fp, #-28]
20009e0c:	e08f2002 	add	a3, pc, a3
20009e10:	e50b201c 	str	a3, [fp, #-28]
20009e14:	e50b0018 	str	a1, [fp, #-24]
20009e18:	e51b3018 	ldr	a4, [fp, #-24]
20009e1c:	e2433008 	sub	a4, a4, #8
20009e20:	e50b3014 	str	a4, [fp, #-20]
20009e24:	e59f3168 	ldr	a4, [pc, #360]	; 20009f94 <vk_free+0x1a4>
20009e28:	e51b101c 	ldr	a2, [fp, #-28]
20009e2c:	e0813003 	add	a4, a2, a4
20009e30:	e5933000 	ldr	a4, [a4]
20009e34:	e50b3010 	str	a4, [fp, #-16]
20009e38:	ea000010 	b	20009e80 <vk_free+0x90>
20009e3c:	e51b3010 	ldr	a4, [fp, #-16]
20009e40:	e5932000 	ldr	a3, [a4]
20009e44:	e51b3010 	ldr	a4, [fp, #-16]
20009e48:	e1520003 	cmp	a3, a4
20009e4c:	8a000008 	bhi	20009e74 <vk_free+0x84>
20009e50:	e51b2014 	ldr	a3, [fp, #-20]
20009e54:	e51b3010 	ldr	a4, [fp, #-16]
20009e58:	e1520003 	cmp	a3, a4
20009e5c:	8a000010 	bhi	20009ea4 <vk_free+0xb4>
20009e60:	e51b3010 	ldr	a4, [fp, #-16]
20009e64:	e5932000 	ldr	a3, [a4]
20009e68:	e51b3014 	ldr	a4, [fp, #-20]
20009e6c:	e1520003 	cmp	a3, a4
20009e70:	8a00000b 	bhi	20009ea4 <vk_free+0xb4>
20009e74:	e51b3010 	ldr	a4, [fp, #-16]
20009e78:	e5933000 	ldr	a4, [a4]
20009e7c:	e50b3010 	str	a4, [fp, #-16]
20009e80:	e51b2014 	ldr	a3, [fp, #-20]
20009e84:	e51b3010 	ldr	a4, [fp, #-16]
20009e88:	e1520003 	cmp	a3, a4
20009e8c:	9affffea 	bls	20009e3c <vk_free+0x4c>
20009e90:	e51b3010 	ldr	a4, [fp, #-16]
20009e94:	e5932000 	ldr	a3, [a4]
20009e98:	e51b3014 	ldr	a4, [fp, #-20]
20009e9c:	e1520003 	cmp	a3, a4
20009ea0:	9affffe5 	bls	20009e3c <vk_free+0x4c>
20009ea4:	e51b3014 	ldr	a4, [fp, #-20]
20009ea8:	e5933004 	ldr	a4, [a4, #4]
20009eac:	e1a02183 	lsl	a3, a4, #3
20009eb0:	e51b3014 	ldr	a4, [fp, #-20]
20009eb4:	e0832002 	add	a3, a4, a3
20009eb8:	e51b3010 	ldr	a4, [fp, #-16]
20009ebc:	e5933000 	ldr	a4, [a4]
20009ec0:	e1520003 	cmp	a3, a4
20009ec4:	1a00000d 	bne	20009f00 <vk_free+0x110>
20009ec8:	e51b3014 	ldr	a4, [fp, #-20]
20009ecc:	e5932004 	ldr	a3, [a4, #4]
20009ed0:	e51b3010 	ldr	a4, [fp, #-16]
20009ed4:	e5933000 	ldr	a4, [a4]
20009ed8:	e5933004 	ldr	a4, [a4, #4]
20009edc:	e0822003 	add	a3, a3, a4
20009ee0:	e51b3014 	ldr	a4, [fp, #-20]
20009ee4:	e5832004 	str	a3, [a4, #4]
20009ee8:	e51b3010 	ldr	a4, [fp, #-16]
20009eec:	e5933000 	ldr	a4, [a4]
20009ef0:	e5932000 	ldr	a3, [a4]
20009ef4:	e51b3014 	ldr	a4, [fp, #-20]
20009ef8:	e5832000 	str	a3, [a4]
20009efc:	ea000003 	b	20009f10 <vk_free+0x120>
20009f00:	e51b3010 	ldr	a4, [fp, #-16]
20009f04:	e5932000 	ldr	a3, [a4]
20009f08:	e51b3014 	ldr	a4, [fp, #-20]
20009f0c:	e5832000 	str	a3, [a4]
20009f10:	e51b3010 	ldr	a4, [fp, #-16]
20009f14:	e5933004 	ldr	a4, [a4, #4]
20009f18:	e1a02183 	lsl	a3, a4, #3
20009f1c:	e51b3010 	ldr	a4, [fp, #-16]
20009f20:	e0832002 	add	a3, a4, a3
20009f24:	e51b3014 	ldr	a4, [fp, #-20]
20009f28:	e1520003 	cmp	a3, a4
20009f2c:	1a00000b 	bne	20009f60 <vk_free+0x170>
20009f30:	e51b3010 	ldr	a4, [fp, #-16]
20009f34:	e5932004 	ldr	a3, [a4, #4]
20009f38:	e51b3014 	ldr	a4, [fp, #-20]
20009f3c:	e5933004 	ldr	a4, [a4, #4]
20009f40:	e0822003 	add	a3, a3, a4
20009f44:	e51b3010 	ldr	a4, [fp, #-16]
20009f48:	e5832004 	str	a3, [a4, #4]
20009f4c:	e51b3014 	ldr	a4, [fp, #-20]
20009f50:	e5932000 	ldr	a3, [a4]
20009f54:	e51b3010 	ldr	a4, [fp, #-16]
20009f58:	e5832000 	str	a3, [a4]
20009f5c:	ea000002 	b	20009f6c <vk_free+0x17c>
20009f60:	e51b2010 	ldr	a3, [fp, #-16]
20009f64:	e51b3014 	ldr	a4, [fp, #-20]
20009f68:	e5823000 	str	a4, [a3]
20009f6c:	e59f3020 	ldr	a4, [pc, #32]	; 20009f94 <vk_free+0x1a4>
20009f70:	e51b101c 	ldr	a2, [fp, #-28]
20009f74:	e0812003 	add	a3, a2, a4
20009f78:	e51b3010 	ldr	a4, [fp, #-16]
20009f7c:	e5823000 	str	a4, [a3]
20009f80:	e3a03000 	mov	a4, #0
20009f84:	e50b3018 	str	a4, [fp, #-24]
20009f88:	e24bd00c 	sub	sp, fp, #12
20009f8c:	e89da800 	ldm	sp, {fp, sp, pc}
20009f90:	00009984 	andeq	v6, a1, v1, lsl #19
20009f94:	fffffefc 			; <UNDEFINED> instruction: 0xfffffefc

20009f98 <vh_LedInit>:
20009f98:	e1a0c00d 	mov	ip, sp
20009f9c:	e92dd800 	push	{fp, ip, lr, pc}
20009fa0:	e24cb004 	sub	fp, ip, #4
20009fa4:	e59f2020 	ldr	a3, [pc, #32]	; 20009fcc <vh_LedInit+0x34>
20009fa8:	e59f3020 	ldr	a4, [pc, #32]	; 20009fd0 <vh_LedInit+0x38>
20009fac:	e5823000 	str	a4, [a3]
20009fb0:	e59f201c 	ldr	a3, [pc, #28]	; 20009fd4 <vh_LedInit+0x3c>
20009fb4:	e3a0300f 	mov	a4, #15
20009fb8:	e5823000 	str	a4, [a3]
20009fbc:	e59f2010 	ldr	a3, [pc, #16]	; 20009fd4 <vh_LedInit+0x3c>
20009fc0:	e3a03000 	mov	a4, #0
20009fc4:	e5823000 	str	a4, [a3]
20009fc8:	e89da800 	ldm	sp, {fp, sp, pc}
20009fcc:	e0300240 	eors	a1, a1, a1, asr #4
20009fd0:	00001111 	andeq	a2, a1, a2, lsl a2
20009fd4:	e0300244 	eors	a1, a1, v1, asr #4

20009fd8 <vh_LedSet>:
20009fd8:	e1a0c00d 	mov	ip, sp
20009fdc:	e92dd800 	push	{fp, ip, lr, pc}
20009fe0:	e24cb004 	sub	fp, ip, #4
20009fe4:	e24dd008 	sub	sp, sp, #8
20009fe8:	e1a03000 	mov	a4, a1
20009fec:	e54b300d 	strb	a4, [fp, #-13]
20009ff0:	e24bd00c 	sub	sp, fp, #12
20009ff4:	e89da800 	ldm	sp, {fp, sp, pc}

20009ff8 <vh_LedOn>:
20009ff8:	e1a0c00d 	mov	ip, sp
20009ffc:	e92dd800 	push	{fp, ip, lr, pc}
2000a000:	e24cb004 	sub	fp, ip, #4
2000a004:	e24dd008 	sub	sp, sp, #8
2000a008:	e1a03000 	mov	a4, a1
2000a00c:	e54b300d 	strb	a4, [fp, #-13]
2000a010:	e24bd00c 	sub	sp, fp, #12
2000a014:	e89da800 	ldm	sp, {fp, sp, pc}

2000a018 <vh_LedOff>:
2000a018:	e1a0c00d 	mov	ip, sp
2000a01c:	e92dd800 	push	{fp, ip, lr, pc}
2000a020:	e24cb004 	sub	fp, ip, #4
2000a024:	e24dd008 	sub	sp, sp, #8
2000a028:	e1a03000 	mov	a4, a1
2000a02c:	e54b300d 	strb	a4, [fp, #-13]
2000a030:	e24bd00c 	sub	sp, fp, #12
2000a034:	e89da800 	ldm	sp, {fp, sp, pc}

2000a038 <vk_machine_init>:
2000a038:	e1a0c00d 	mov	ip, sp
2000a03c:	e92dd800 	push	{fp, ip, lr, pc}
2000a040:	e24cb004 	sub	fp, ip, #4
2000a044:	eb00137b 	bl	2000ee38 <vh_serial_init>
2000a048:	eb001e49 	bl	20011974 <vh_timer_init>
2000a04c:	e89da800 	ldm	sp, {fp, sp, pc}

2000a050 <malloc>:
2000a050:	e1a0c00d 	mov	ip, sp
2000a054:	e92dd800 	push	{fp, ip, lr, pc}
2000a058:	e24cb004 	sub	fp, ip, #4
2000a05c:	e24dd010 	sub	sp, sp, #16
2000a060:	e59f3058 	ldr	a4, [pc, #88]	; 2000a0c0 <malloc+0x70>
2000a064:	e08f3003 	add	a4, pc, a4
2000a068:	e50b0018 	str	a1, [fp, #-24]
2000a06c:	e59f2050 	ldr	a3, [pc, #80]	; 2000a0c4 <malloc+0x74>
2000a070:	e7933002 	ldr	a4, [a4, a3]
2000a074:	e5933000 	ldr	a4, [a4]
2000a078:	e5933038 	ldr	a4, [a4, #56]	; 0x38
2000a07c:	e50b3010 	str	a4, [fp, #-16]
2000a080:	e51b3010 	ldr	a4, [fp, #-16]
2000a084:	e3530000 	cmp	a4, #0
2000a088:	1a000000 	bne	2000a090 <malloc+0x40>
2000a08c:	ebfffdbd 	bl	20009788 <vk_disable_interrupt>
2000a090:	e51b0018 	ldr	a1, [fp, #-24]
2000a094:	ebfffe9f 	bl	20009b18 <vk_malloc>
2000a098:	e1a03000 	mov	a4, a1
2000a09c:	e50b3014 	str	a4, [fp, #-20]
2000a0a0:	e51b3010 	ldr	a4, [fp, #-16]
2000a0a4:	e3530000 	cmp	a4, #0
2000a0a8:	1a000000 	bne	2000a0b0 <malloc+0x60>
2000a0ac:	ebfffda0 	bl	20009734 <vk_enable_interrupt>
2000a0b0:	e51b3014 	ldr	a4, [fp, #-20]
2000a0b4:	e1a00003 	mov	a1, a4
2000a0b8:	e24bd00c 	sub	sp, fp, #12
2000a0bc:	e89da800 	ldm	sp, {fp, sp, pc}
2000a0c0:	0000972c 	andeq	v6, a1, ip, lsr #14
2000a0c4:	000000a4 	andeq	a1, a1, v1, lsr #1

2000a0c8 <free>:
2000a0c8:	e1a0c00d 	mov	ip, sp
2000a0cc:	e92dd800 	push	{fp, ip, lr, pc}
2000a0d0:	e24cb004 	sub	fp, ip, #4
2000a0d4:	e24dd010 	sub	sp, sp, #16
2000a0d8:	e59f3048 	ldr	a4, [pc, #72]	; 2000a128 <free+0x60>
2000a0dc:	e08f3003 	add	a4, pc, a4
2000a0e0:	e50b0018 	str	a1, [fp, #-24]
2000a0e4:	e59f2040 	ldr	a3, [pc, #64]	; 2000a12c <free+0x64>
2000a0e8:	e7933002 	ldr	a4, [a4, a3]
2000a0ec:	e5933000 	ldr	a4, [a4]
2000a0f0:	e5933038 	ldr	a4, [a4, #56]	; 0x38
2000a0f4:	e50b3010 	str	a4, [fp, #-16]
2000a0f8:	e51b3010 	ldr	a4, [fp, #-16]
2000a0fc:	e3530000 	cmp	a4, #0
2000a100:	1a000000 	bne	2000a108 <free+0x40>
2000a104:	ebfffd9f 	bl	20009788 <vk_disable_interrupt>
2000a108:	e51b0018 	ldr	a1, [fp, #-24]
2000a10c:	ebffff37 	bl	20009df0 <vk_free>
2000a110:	e51b3010 	ldr	a4, [fp, #-16]
2000a114:	e3530000 	cmp	a4, #0
2000a118:	1a000000 	bne	2000a120 <free+0x58>
2000a11c:	ebfffd84 	bl	20009734 <vk_enable_interrupt>
2000a120:	e24bd00c 	sub	sp, fp, #12
2000a124:	e89da800 	ldm	sp, {fp, sp, pc}
2000a128:	000096b4 			; <UNDEFINED> instruction: 0x000096b4
2000a12c:	000000a4 	andeq	a1, a1, v1, lsr #1

2000a130 <mq_open>:
2000a130:	e1a0c00d 	mov	ip, sp
2000a134:	e92dd800 	push	{fp, ip, lr, pc}
2000a138:	e24cb004 	sub	fp, ip, #4
2000a13c:	e24dd018 	sub	sp, sp, #24
2000a140:	e59f22d8 	ldr	a3, [pc, #728]	; 2000a420 <mq_open+0x2f0>
2000a144:	e50b2024 	str	a3, [fp, #-36]	; 0x24
2000a148:	e51b3024 	ldr	a4, [fp, #-36]	; 0x24
2000a14c:	e08f3003 	add	a4, pc, a4
2000a150:	e50b3024 	str	a4, [fp, #-36]	; 0x24
2000a154:	e50b0018 	str	a1, [fp, #-24]
2000a158:	e50b101c 	str	a2, [fp, #-28]
2000a15c:	e59f32c0 	ldr	a4, [pc, #704]	; 2000a424 <mq_open+0x2f4>
2000a160:	e51bc024 	ldr	ip, [fp, #-36]	; 0x24
2000a164:	e79c3003 	ldr	a4, [ip, a4]
2000a168:	e5933000 	ldr	a4, [a4]
2000a16c:	e3530003 	cmp	a4, #3
2000a170:	1a000007 	bne	2000a194 <mq_open+0x64>
2000a174:	e59f32ac 	ldr	a4, [pc, #684]	; 2000a428 <mq_open+0x2f8>
2000a178:	e51b0024 	ldr	a1, [fp, #-36]	; 0x24
2000a17c:	e0803003 	add	a4, a1, a4
2000a180:	e1a00003 	mov	a1, a4
2000a184:	eb000a62 	bl	2000cb14 <printk>
2000a188:	e3e01000 	mvn	a2, #0
2000a18c:	e50b1020 	str	a2, [fp, #-32]
2000a190:	ea00009e 	b	2000a410 <mq_open+0x2e0>
2000a194:	e59f3288 	ldr	a4, [pc, #648]	; 2000a424 <mq_open+0x2f4>
2000a198:	e51b2024 	ldr	a3, [fp, #-36]	; 0x24
2000a19c:	e7923003 	ldr	a4, [a3, a4]
2000a1a0:	e5933000 	ldr	a4, [a4]
2000a1a4:	e1a02103 	lsl	a3, a4, #2
2000a1a8:	e59f327c 	ldr	a4, [pc, #636]	; 2000a42c <mq_open+0x2fc>
2000a1ac:	e51bc024 	ldr	ip, [fp, #-36]	; 0x24
2000a1b0:	e79c3003 	ldr	a4, [ip, a4]
2000a1b4:	e0823003 	add	a4, a3, a4
2000a1b8:	e1a00003 	mov	a1, a4
2000a1bc:	e3a01000 	mov	a2, #0
2000a1c0:	e3a02000 	mov	a3, #0
2000a1c4:	eb001038 	bl	2000e2ac <sem_init>
2000a1c8:	e59f3254 	ldr	a4, [pc, #596]	; 2000a424 <mq_open+0x2f4>
2000a1cc:	e51b0024 	ldr	a1, [fp, #-36]	; 0x24
2000a1d0:	e7903003 	ldr	a4, [a1, a4]
2000a1d4:	e5932000 	ldr	a3, [a4]
2000a1d8:	e59f3250 	ldr	a4, [pc, #592]	; 2000a430 <mq_open+0x300>
2000a1dc:	e51bc024 	ldr	ip, [fp, #-36]	; 0x24
2000a1e0:	e79c1003 	ldr	a2, [ip, a4]
2000a1e4:	e3a00004 	mov	a1, #4
2000a1e8:	e1a03002 	mov	a4, a3
2000a1ec:	e1a02103 	lsl	a3, a4, #2
2000a1f0:	e1a03182 	lsl	a4, a3, #3
2000a1f4:	e0623003 	rsb	a4, a3, a4
2000a1f8:	e0813003 	add	a4, a2, a4
2000a1fc:	e0832000 	add	a3, a4, a1
2000a200:	e3a03000 	mov	a4, #0
2000a204:	e5823000 	str	a4, [a3]
2000a208:	e59f3214 	ldr	a4, [pc, #532]	; 2000a424 <mq_open+0x2f4>
2000a20c:	e51b0024 	ldr	a1, [fp, #-36]	; 0x24
2000a210:	e7903003 	ldr	a4, [a1, a4]
2000a214:	e5932000 	ldr	a3, [a4]
2000a218:	e59f3210 	ldr	a4, [pc, #528]	; 2000a430 <mq_open+0x300>
2000a21c:	e51bc024 	ldr	ip, [fp, #-36]	; 0x24
2000a220:	e79c1003 	ldr	a2, [ip, a4]
2000a224:	e3a00008 	mov	a1, #8
2000a228:	e1a03002 	mov	a4, a3
2000a22c:	e1a02103 	lsl	a3, a4, #2
2000a230:	e1a03182 	lsl	a4, a3, #3
2000a234:	e0623003 	rsb	a4, a3, a4
2000a238:	e0813003 	add	a4, a2, a4
2000a23c:	e0832000 	add	a3, a4, a1
2000a240:	e3a03000 	mov	a4, #0
2000a244:	e5823000 	str	a4, [a3]
2000a248:	e59f31d4 	ldr	a4, [pc, #468]	; 2000a424 <mq_open+0x2f4>
2000a24c:	e51b0024 	ldr	a1, [fp, #-36]	; 0x24
2000a250:	e7903003 	ldr	a4, [a1, a4]
2000a254:	e5932000 	ldr	a3, [a4]
2000a258:	e59f31d0 	ldr	a4, [pc, #464]	; 2000a430 <mq_open+0x300>
2000a25c:	e51bc024 	ldr	ip, [fp, #-36]	; 0x24
2000a260:	e79c1003 	ldr	a2, [ip, a4]
2000a264:	e3a0000c 	mov	a1, #12
2000a268:	e1a03002 	mov	a4, a3
2000a26c:	e1a02103 	lsl	a3, a4, #2
2000a270:	e1a03182 	lsl	a4, a3, #3
2000a274:	e0623003 	rsb	a4, a3, a4
2000a278:	e0813003 	add	a4, a2, a4
2000a27c:	e0832000 	add	a3, a4, a1
2000a280:	e3a03007 	mov	a4, #7
2000a284:	e5823000 	str	a4, [a3]
2000a288:	e59f3194 	ldr	a4, [pc, #404]	; 2000a424 <mq_open+0x2f4>
2000a28c:	e51b0024 	ldr	a1, [fp, #-36]	; 0x24
2000a290:	e7903003 	ldr	a4, [a1, a4]
2000a294:	e5932000 	ldr	a3, [a4]
2000a298:	e59f3190 	ldr	a4, [pc, #400]	; 2000a430 <mq_open+0x300>
2000a29c:	e51bc024 	ldr	ip, [fp, #-36]	; 0x24
2000a2a0:	e79c1003 	ldr	a2, [ip, a4]
2000a2a4:	e3a00010 	mov	a1, #16
2000a2a8:	e1a03002 	mov	a4, a3
2000a2ac:	e1a02103 	lsl	a3, a4, #2
2000a2b0:	e1a03182 	lsl	a4, a3, #3
2000a2b4:	e0623003 	rsb	a4, a3, a4
2000a2b8:	e0813003 	add	a4, a2, a4
2000a2bc:	e0832000 	add	a3, a4, a1
2000a2c0:	e3a03000 	mov	a4, #0
2000a2c4:	e5823000 	str	a4, [a3]
2000a2c8:	e59f3154 	ldr	a4, [pc, #340]	; 2000a424 <mq_open+0x2f4>
2000a2cc:	e51b0024 	ldr	a1, [fp, #-36]	; 0x24
2000a2d0:	e7903003 	ldr	a4, [a1, a4]
2000a2d4:	e5932000 	ldr	a3, [a4]
2000a2d8:	e59f3150 	ldr	a4, [pc, #336]	; 2000a430 <mq_open+0x300>
2000a2dc:	e51bc024 	ldr	ip, [fp, #-36]	; 0x24
2000a2e0:	e79c1003 	ldr	a2, [ip, a4]
2000a2e4:	e3a00014 	mov	a1, #20
2000a2e8:	e1a03002 	mov	a4, a3
2000a2ec:	e1a02103 	lsl	a3, a4, #2
2000a2f0:	e1a03182 	lsl	a4, a3, #3
2000a2f4:	e0623003 	rsb	a4, a3, a4
2000a2f8:	e0813003 	add	a4, a2, a4
2000a2fc:	e0832000 	add	a3, a4, a1
2000a300:	e3a03014 	mov	a4, #20
2000a304:	e5823000 	str	a4, [a3]
2000a308:	e59f3114 	ldr	a4, [pc, #276]	; 2000a424 <mq_open+0x2f4>
2000a30c:	e51b0024 	ldr	a1, [fp, #-36]	; 0x24
2000a310:	e7903003 	ldr	a4, [a1, a4]
2000a314:	e5932000 	ldr	a3, [a4]
2000a318:	e59f3114 	ldr	a4, [pc, #276]	; 2000a434 <mq_open+0x304>
2000a31c:	e51bc024 	ldr	ip, [fp, #-36]	; 0x24
2000a320:	e79c1003 	ldr	a2, [ip, a4]
2000a324:	e1a03002 	mov	a4, a3
2000a328:	e1a02103 	lsl	a3, a4, #2
2000a32c:	e1a03102 	lsl	a4, a3, #2
2000a330:	e0623003 	rsb	a4, a3, a4
2000a334:	e0812003 	add	a3, a2, a4
2000a338:	e3a03003 	mov	a4, #3
2000a33c:	e5823000 	str	a4, [a3]
2000a340:	e59f30dc 	ldr	a4, [pc, #220]	; 2000a424 <mq_open+0x2f4>
2000a344:	e51b0024 	ldr	a1, [fp, #-36]	; 0x24
2000a348:	e7903003 	ldr	a4, [a1, a4]
2000a34c:	e5932000 	ldr	a3, [a4]
2000a350:	e59f30dc 	ldr	a4, [pc, #220]	; 2000a434 <mq_open+0x304>
2000a354:	e51bc024 	ldr	ip, [fp, #-36]	; 0x24
2000a358:	e79c1003 	ldr	a2, [ip, a4]
2000a35c:	e3a00004 	mov	a1, #4
2000a360:	e1a03002 	mov	a4, a3
2000a364:	e1a02103 	lsl	a3, a4, #2
2000a368:	e1a03102 	lsl	a4, a3, #2
2000a36c:	e0623003 	rsb	a4, a3, a4
2000a370:	e0813003 	add	a4, a2, a4
2000a374:	e0832000 	add	a3, a4, a1
2000a378:	e3a03014 	mov	a4, #20
2000a37c:	e5823000 	str	a4, [a3]
2000a380:	e59f309c 	ldr	a4, [pc, #156]	; 2000a424 <mq_open+0x2f4>
2000a384:	e51b0024 	ldr	a1, [fp, #-36]	; 0x24
2000a388:	e7903003 	ldr	a4, [a1, a4]
2000a38c:	e5932000 	ldr	a3, [a4]
2000a390:	e59f308c 	ldr	a4, [pc, #140]	; 2000a424 <mq_open+0x2f4>
2000a394:	e51b1024 	ldr	a2, [fp, #-36]	; 0x24
2000a398:	e7913003 	ldr	a4, [a2, a4]
2000a39c:	e5931000 	ldr	a2, [a4]
2000a3a0:	e59f308c 	ldr	a4, [pc, #140]	; 2000a434 <mq_open+0x304>
2000a3a4:	e51bc024 	ldr	ip, [fp, #-36]	; 0x24
2000a3a8:	e79c0003 	ldr	a1, [ip, a4]
2000a3ac:	e3a0c008 	mov	ip, #8
2000a3b0:	e1a03002 	mov	a4, a3
2000a3b4:	e1a02103 	lsl	a3, a4, #2
2000a3b8:	e1a03102 	lsl	a4, a3, #2
2000a3bc:	e0623003 	rsb	a4, a3, a4
2000a3c0:	e0803003 	add	a4, a1, a4
2000a3c4:	e083300c 	add	a4, a4, ip
2000a3c8:	e5831000 	str	a2, [a4]
2000a3cc:	e59f3050 	ldr	a4, [pc, #80]	; 2000a424 <mq_open+0x2f4>
2000a3d0:	e51b0024 	ldr	a1, [fp, #-36]	; 0x24
2000a3d4:	e7903003 	ldr	a4, [a1, a4]
2000a3d8:	e5933000 	ldr	a4, [a4]
2000a3dc:	e50b3010 	str	a4, [fp, #-16]
2000a3e0:	e59f303c 	ldr	a4, [pc, #60]	; 2000a424 <mq_open+0x2f4>
2000a3e4:	e51b1024 	ldr	a2, [fp, #-36]	; 0x24
2000a3e8:	e7913003 	ldr	a4, [a2, a4]
2000a3ec:	e5933000 	ldr	a4, [a4]
2000a3f0:	e2832001 	add	a3, a4, #1
2000a3f4:	e59f3028 	ldr	a4, [pc, #40]	; 2000a424 <mq_open+0x2f4>
2000a3f8:	e51bc024 	ldr	ip, [fp, #-36]	; 0x24
2000a3fc:	e79c3003 	ldr	a4, [ip, a4]
2000a400:	e5832000 	str	a3, [a4]
2000a404:	eb000ee7 	bl	2000dfa8 <vk_scheduler_unlock>
2000a408:	e51b0010 	ldr	a1, [fp, #-16]
2000a40c:	e50b0020 	str	a1, [fp, #-32]
2000a410:	e51b3020 	ldr	a4, [fp, #-32]
2000a414:	e1a00003 	mov	a1, a4
2000a418:	e24bd00c 	sub	sp, fp, #12
2000a41c:	e89da800 	ldm	sp, {fp, sp, pc}
2000a420:	00009644 	andeq	v6, a1, v1, asr #12
2000a424:	0000005c 	andeq	a1, a1, ip, asr a1
2000a428:	fffff7cc 			; <UNDEFINED> instruction: 0xfffff7cc
2000a42c:	000000d4 	ldrdeq	a1, [a1], -v1
2000a430:	000000d0 	ldrdeq	a1, [a1], -a1	; <UNPREDICTABLE>
2000a434:	000000cc 	andeq	a1, a1, ip, asr #1

2000a438 <mq_send>:
2000a438:	e1a0c00d 	mov	ip, sp
2000a43c:	e92dd830 	push	{v1, v2, fp, ip, lr, pc}
2000a440:	e24cb004 	sub	fp, ip, #4
2000a444:	e24dd020 	sub	sp, sp, #32
2000a448:	e59fc4f0 	ldr	ip, [pc, #1264]	; 2000a940 <mq_send+0x508>
2000a44c:	e50bc034 	str	ip, [fp, #-52]	; 0x34
2000a450:	e51bc034 	ldr	ip, [fp, #-52]	; 0x34
2000a454:	e08fc00c 	add	ip, pc, ip
2000a458:	e50bc034 	str	ip, [fp, #-52]	; 0x34
2000a45c:	e50b0020 	str	a1, [fp, #-32]
2000a460:	e50b1024 	str	a2, [fp, #-36]	; 0x24
2000a464:	e50b2028 	str	a3, [fp, #-40]	; 0x28
2000a468:	e50b302c 	str	a4, [fp, #-44]	; 0x2c
2000a46c:	e51b3020 	ldr	a4, [fp, #-32]
2000a470:	e3530000 	cmp	a4, #0
2000a474:	aa000007 	bge	2000a498 <mq_send+0x60>
2000a478:	e59f34c4 	ldr	a4, [pc, #1220]	; 2000a944 <mq_send+0x50c>
2000a47c:	e51b0034 	ldr	a1, [fp, #-52]	; 0x34
2000a480:	e0803003 	add	a4, a1, a4
2000a484:	e1a00003 	mov	a1, a4
2000a488:	eb0009a1 	bl	2000cb14 <printk>
2000a48c:	e3e01000 	mvn	a2, #0
2000a490:	e50b1030 	str	a2, [fp, #-48]	; 0x30
2000a494:	ea000125 	b	2000a930 <mq_send+0x4f8>
2000a498:	e59f34a8 	ldr	a4, [pc, #1192]	; 2000a948 <mq_send+0x510>
2000a49c:	e51b2034 	ldr	a3, [fp, #-52]	; 0x34
2000a4a0:	e0823003 	add	a4, a3, a4
2000a4a4:	e1a00003 	mov	a1, a4
2000a4a8:	e59f349c 	ldr	a4, [pc, #1180]	; 2000a94c <mq_send+0x514>
2000a4ac:	e51bc034 	ldr	ip, [fp, #-52]	; 0x34
2000a4b0:	e08c3003 	add	a4, ip, a4
2000a4b4:	e1a01003 	mov	a2, a4
2000a4b8:	e51b2020 	ldr	a3, [fp, #-32]
2000a4bc:	eb000994 	bl	2000cb14 <printk>
2000a4c0:	e51b2020 	ldr	a3, [fp, #-32]
2000a4c4:	e59f3484 	ldr	a4, [pc, #1156]	; 2000a950 <mq_send+0x518>
2000a4c8:	e51b0034 	ldr	a1, [fp, #-52]	; 0x34
2000a4cc:	e7901003 	ldr	a2, [a1, a4]
2000a4d0:	e3a00010 	mov	a1, #16
2000a4d4:	e1a03002 	mov	a4, a3
2000a4d8:	e1a02103 	lsl	a3, a4, #2
2000a4dc:	e1a03182 	lsl	a4, a3, #3
2000a4e0:	e0623003 	rsb	a4, a3, a4
2000a4e4:	e0813003 	add	a4, a2, a4
2000a4e8:	e0833000 	add	a4, a4, a1
2000a4ec:	e5933000 	ldr	a4, [a4]
2000a4f0:	e3530006 	cmp	a4, #6
2000a4f4:	da00000c 	ble	2000a52c <mq_send+0xf4>
2000a4f8:	e59f3454 	ldr	a4, [pc, #1108]	; 2000a954 <mq_send+0x51c>
2000a4fc:	e51b1034 	ldr	a2, [fp, #-52]	; 0x34
2000a500:	e0813003 	add	a4, a2, a4
2000a504:	e1a00003 	mov	a1, a4
2000a508:	e59f343c 	ldr	a4, [pc, #1084]	; 2000a94c <mq_send+0x514>
2000a50c:	e51b2034 	ldr	a3, [fp, #-52]	; 0x34
2000a510:	e0823003 	add	a4, a3, a4
2000a514:	e1a01003 	mov	a2, a4
2000a518:	e3a0203d 	mov	a3, #61	; 0x3d
2000a51c:	eb00097c 	bl	2000cb14 <printk>
2000a520:	e3a03001 	mov	a4, #1
2000a524:	e50b3030 	str	a4, [fp, #-48]	; 0x30
2000a528:	ea000100 	b	2000a930 <mq_send+0x4f8>
2000a52c:	e51b2020 	ldr	a3, [fp, #-32]
2000a530:	e59f3418 	ldr	a4, [pc, #1048]	; 2000a950 <mq_send+0x518>
2000a534:	e51bc034 	ldr	ip, [fp, #-52]	; 0x34
2000a538:	e79c1003 	ldr	a2, [ip, a4]
2000a53c:	e3a00014 	mov	a1, #20
2000a540:	e1a03002 	mov	a4, a3
2000a544:	e1a02103 	lsl	a3, a4, #2
2000a548:	e1a03182 	lsl	a4, a3, #3
2000a54c:	e0623003 	rsb	a4, a3, a4
2000a550:	e0813003 	add	a4, a2, a4
2000a554:	e0833000 	add	a4, a4, a1
2000a558:	e5933000 	ldr	a4, [a4]
2000a55c:	e1a02003 	mov	a3, a4
2000a560:	e51b3028 	ldr	a4, [fp, #-40]	; 0x28
2000a564:	e1520003 	cmp	a3, a4
2000a568:	3a0000e9 	bcc	2000a914 <mq_send+0x4dc>
2000a56c:	e59f33e4 	ldr	a4, [pc, #996]	; 2000a958 <mq_send+0x520>
2000a570:	e51b0034 	ldr	a1, [fp, #-52]	; 0x34
2000a574:	e0803003 	add	a4, a1, a4
2000a578:	e1a00003 	mov	a1, a4
2000a57c:	e59f33c8 	ldr	a4, [pc, #968]	; 2000a94c <mq_send+0x514>
2000a580:	e51b1034 	ldr	a2, [fp, #-52]	; 0x34
2000a584:	e0813003 	add	a4, a2, a4
2000a588:	e1a01003 	mov	a2, a4
2000a58c:	eb000960 	bl	2000cb14 <printk>
2000a590:	e3a03000 	mov	a4, #0
2000a594:	e50b3018 	str	a4, [fp, #-24]
2000a598:	ea000050 	b	2000a6e0 <mq_send+0x2a8>
2000a59c:	e51bc020 	ldr	ip, [fp, #-32]
2000a5a0:	e51b2020 	ldr	a3, [fp, #-32]
2000a5a4:	e59f33a4 	ldr	a4, [pc, #932]	; 2000a950 <mq_send+0x518>
2000a5a8:	e51b0034 	ldr	a1, [fp, #-52]	; 0x34
2000a5ac:	e7901003 	ldr	a2, [a1, a4]
2000a5b0:	e3a00004 	mov	a1, #4
2000a5b4:	e1a03002 	mov	a4, a3
2000a5b8:	e1a02103 	lsl	a3, a4, #2
2000a5bc:	e1a03182 	lsl	a4, a3, #3
2000a5c0:	e0623003 	rsb	a4, a3, a4
2000a5c4:	e0813003 	add	a4, a2, a4
2000a5c8:	e0833000 	add	a4, a4, a1
2000a5cc:	e5931000 	ldr	a2, [a4]
2000a5d0:	e51b0018 	ldr	a1, [fp, #-24]
2000a5d4:	e51b2018 	ldr	a3, [fp, #-24]
2000a5d8:	e51b3024 	ldr	a4, [fp, #-36]	; 0x24
2000a5dc:	e0833002 	add	a4, a4, a3
2000a5e0:	e5d3e000 	ldrb	lr, [a4]
2000a5e4:	e59f3370 	ldr	a4, [pc, #880]	; 2000a95c <mq_send+0x524>
2000a5e8:	e51b2034 	ldr	a3, [fp, #-52]	; 0x34
2000a5ec:	e7924003 	ldr	v1, [a3, a4]
2000a5f0:	e3a05010 	mov	v2, #16
2000a5f4:	e1a03001 	mov	a4, a2
2000a5f8:	e1a01183 	lsl	a2, a4, #3
2000a5fc:	e1a03101 	lsl	a4, a2, #2
2000a600:	e0811003 	add	a2, a2, a4
2000a604:	e1a0300c 	mov	a4, ip
2000a608:	e1a02183 	lsl	a3, a4, #3
2000a60c:	e1a03102 	lsl	a4, a3, #2
2000a610:	e0822003 	add	a3, a3, a4
2000a614:	e1a03182 	lsl	a4, a3, #3
2000a618:	e0623003 	rsb	a4, a3, a4
2000a61c:	e0813003 	add	a4, a2, a4
2000a620:	e0843003 	add	a4, v1, a4
2000a624:	e0833000 	add	a4, a4, a1
2000a628:	e0832005 	add	a3, a4, v2
2000a62c:	e1a0300e 	mov	a4, lr
2000a630:	e5c23002 	strb	a4, [a3, #2]
2000a634:	e51bc020 	ldr	ip, [fp, #-32]
2000a638:	e51b2020 	ldr	a3, [fp, #-32]
2000a63c:	e59f330c 	ldr	a4, [pc, #780]	; 2000a950 <mq_send+0x518>
2000a640:	e51b0034 	ldr	a1, [fp, #-52]	; 0x34
2000a644:	e7901003 	ldr	a2, [a1, a4]
2000a648:	e3a00004 	mov	a1, #4
2000a64c:	e1a03002 	mov	a4, a3
2000a650:	e1a02103 	lsl	a3, a4, #2
2000a654:	e1a03182 	lsl	a4, a3, #3
2000a658:	e0623003 	rsb	a4, a3, a4
2000a65c:	e0813003 	add	a4, a2, a4
2000a660:	e0833000 	add	a4, a4, a1
2000a664:	e5932000 	ldr	a3, [a4]
2000a668:	e51b0018 	ldr	a1, [fp, #-24]
2000a66c:	e59f32e8 	ldr	a4, [pc, #744]	; 2000a95c <mq_send+0x524>
2000a670:	e51b1034 	ldr	a2, [fp, #-52]	; 0x34
2000a674:	e791e003 	ldr	lr, [a2, a4]
2000a678:	e3a04010 	mov	v1, #16
2000a67c:	e1a03002 	mov	a4, a3
2000a680:	e1a01183 	lsl	a2, a4, #3
2000a684:	e1a03101 	lsl	a4, a2, #2
2000a688:	e0811003 	add	a2, a2, a4
2000a68c:	e1a0300c 	mov	a4, ip
2000a690:	e1a02183 	lsl	a3, a4, #3
2000a694:	e1a03102 	lsl	a4, a3, #2
2000a698:	e0822003 	add	a3, a3, a4
2000a69c:	e1a03182 	lsl	a4, a3, #3
2000a6a0:	e0623003 	rsb	a4, a3, a4
2000a6a4:	e0813003 	add	a4, a2, a4
2000a6a8:	e08e3003 	add	a4, lr, a4
2000a6ac:	e0833000 	add	a4, a4, a1
2000a6b0:	e0833004 	add	a4, a4, v1
2000a6b4:	e5d33002 	ldrb	a4, [a4, #2]
2000a6b8:	e1a02003 	mov	a3, a4
2000a6bc:	e59f329c 	ldr	a4, [pc, #668]	; 2000a960 <mq_send+0x528>
2000a6c0:	e51bc034 	ldr	ip, [fp, #-52]	; 0x34
2000a6c4:	e08c3003 	add	a4, ip, a4
2000a6c8:	e1a00003 	mov	a1, a4
2000a6cc:	e1a01002 	mov	a2, a3
2000a6d0:	eb00090f 	bl	2000cb14 <printk>
2000a6d4:	e51b3018 	ldr	a4, [fp, #-24]
2000a6d8:	e2833001 	add	a4, a4, #1
2000a6dc:	e50b3018 	str	a4, [fp, #-24]
2000a6e0:	e51b2018 	ldr	a3, [fp, #-24]
2000a6e4:	e51b3028 	ldr	a4, [fp, #-40]	; 0x28
2000a6e8:	e1520003 	cmp	a3, a4
2000a6ec:	3affffaa 	bcc	2000a59c <mq_send+0x164>
2000a6f0:	e59f326c 	ldr	a4, [pc, #620]	; 2000a964 <mq_send+0x52c>
2000a6f4:	e51b0034 	ldr	a1, [fp, #-52]	; 0x34
2000a6f8:	e0803003 	add	a4, a1, a4
2000a6fc:	e1a00003 	mov	a1, a4
2000a700:	eb000903 	bl	2000cb14 <printk>
2000a704:	e51bc020 	ldr	ip, [fp, #-32]
2000a708:	e51b2020 	ldr	a3, [fp, #-32]
2000a70c:	e59f323c 	ldr	a4, [pc, #572]	; 2000a950 <mq_send+0x518>
2000a710:	e51b0034 	ldr	a1, [fp, #-52]	; 0x34
2000a714:	e7901003 	ldr	a2, [a1, a4]
2000a718:	e3a00004 	mov	a1, #4
2000a71c:	e1a03002 	mov	a4, a3
2000a720:	e1a02103 	lsl	a3, a4, #2
2000a724:	e1a03182 	lsl	a4, a3, #3
2000a728:	e0623003 	rsb	a4, a3, a4
2000a72c:	e0813003 	add	a4, a2, a4
2000a730:	e0833000 	add	a4, a4, a1
2000a734:	e5932000 	ldr	a3, [a4]
2000a738:	e51b0018 	ldr	a1, [fp, #-24]
2000a73c:	e59f3218 	ldr	a4, [pc, #536]	; 2000a95c <mq_send+0x524>
2000a740:	e51b1034 	ldr	a2, [fp, #-52]	; 0x34
2000a744:	e7914003 	ldr	v1, [a2, a4]
2000a748:	e3a05010 	mov	v2, #16
2000a74c:	e1a03002 	mov	a4, a3
2000a750:	e1a01183 	lsl	a2, a4, #3
2000a754:	e1a03101 	lsl	a4, a2, #2
2000a758:	e0811003 	add	a2, a2, a4
2000a75c:	e1a0300c 	mov	a4, ip
2000a760:	e1a02183 	lsl	a3, a4, #3
2000a764:	e1a03102 	lsl	a4, a3, #2
2000a768:	e0822003 	add	a3, a3, a4
2000a76c:	e1a03182 	lsl	a4, a3, #3
2000a770:	e0623003 	rsb	a4, a3, a4
2000a774:	e0813003 	add	a4, a2, a4
2000a778:	e0843003 	add	a4, v1, a4
2000a77c:	e0833000 	add	a4, a4, a1
2000a780:	e0832005 	add	a3, a4, v2
2000a784:	e3a03000 	mov	a4, #0
2000a788:	e5c23002 	strb	a4, [a3, #2]
2000a78c:	e51b1020 	ldr	a2, [fp, #-32]
2000a790:	e59f31b8 	ldr	a4, [pc, #440]	; 2000a950 <mq_send+0x518>
2000a794:	e51b2034 	ldr	a3, [fp, #-52]	; 0x34
2000a798:	e7920003 	ldr	a1, [a3, a4]
2000a79c:	e3a0c004 	mov	ip, #4
2000a7a0:	e1a03001 	mov	a4, a2
2000a7a4:	e1a02103 	lsl	a3, a4, #2
2000a7a8:	e1a03182 	lsl	a4, a3, #3
2000a7ac:	e0623003 	rsb	a4, a3, a4
2000a7b0:	e0803003 	add	a4, a1, a4
2000a7b4:	e083300c 	add	a4, a4, ip
2000a7b8:	e5933000 	ldr	a4, [a4]
2000a7bc:	e2830001 	add	a1, a4, #1
2000a7c0:	e59f3188 	ldr	a4, [pc, #392]	; 2000a950 <mq_send+0x518>
2000a7c4:	e51b2034 	ldr	a3, [fp, #-52]	; 0x34
2000a7c8:	e792c003 	ldr	ip, [a3, a4]
2000a7cc:	e3a04004 	mov	v1, #4
2000a7d0:	e1a03001 	mov	a4, a2
2000a7d4:	e1a02103 	lsl	a3, a4, #2
2000a7d8:	e1a03182 	lsl	a4, a3, #3
2000a7dc:	e0623003 	rsb	a4, a3, a4
2000a7e0:	e08c3003 	add	a4, ip, a4
2000a7e4:	e0833004 	add	a4, a4, v1
2000a7e8:	e5830000 	str	a1, [a4]
2000a7ec:	e51b2020 	ldr	a3, [fp, #-32]
2000a7f0:	e59f3158 	ldr	a4, [pc, #344]	; 2000a950 <mq_send+0x518>
2000a7f4:	e51bc034 	ldr	ip, [fp, #-52]	; 0x34
2000a7f8:	e79c1003 	ldr	a2, [ip, a4]
2000a7fc:	e3a00004 	mov	a1, #4
2000a800:	e1a03002 	mov	a4, a3
2000a804:	e1a02103 	lsl	a3, a4, #2
2000a808:	e1a03182 	lsl	a4, a3, #3
2000a80c:	e0623003 	rsb	a4, a3, a4
2000a810:	e0813003 	add	a4, a2, a4
2000a814:	e0833000 	add	a4, a4, a1
2000a818:	e593c000 	ldr	ip, [a4]
2000a81c:	e51b2020 	ldr	a3, [fp, #-32]
2000a820:	e59f3128 	ldr	a4, [pc, #296]	; 2000a950 <mq_send+0x518>
2000a824:	e51b0034 	ldr	a1, [fp, #-52]	; 0x34
2000a828:	e7901003 	ldr	a2, [a1, a4]
2000a82c:	e3a0000c 	mov	a1, #12
2000a830:	e1a03002 	mov	a4, a3
2000a834:	e1a02103 	lsl	a3, a4, #2
2000a838:	e1a03182 	lsl	a4, a3, #3
2000a83c:	e0623003 	rsb	a4, a3, a4
2000a840:	e0813003 	add	a4, a2, a4
2000a844:	e0833000 	add	a4, a4, a1
2000a848:	e5933000 	ldr	a4, [a4]
2000a84c:	e15c0003 	cmp	ip, a4
2000a850:	1a00000c 	bne	2000a888 <mq_send+0x450>
2000a854:	e51b2020 	ldr	a3, [fp, #-32]
2000a858:	e59f30f0 	ldr	a4, [pc, #240]	; 2000a950 <mq_send+0x518>
2000a85c:	e51bc034 	ldr	ip, [fp, #-52]	; 0x34
2000a860:	e79c1003 	ldr	a2, [ip, a4]
2000a864:	e3a00004 	mov	a1, #4
2000a868:	e1a03002 	mov	a4, a3
2000a86c:	e1a02103 	lsl	a3, a4, #2
2000a870:	e1a03182 	lsl	a4, a3, #3
2000a874:	e0623003 	rsb	a4, a3, a4
2000a878:	e0813003 	add	a4, a2, a4
2000a87c:	e0832000 	add	a3, a4, a1
2000a880:	e3a03000 	mov	a4, #0
2000a884:	e5823000 	str	a4, [a3]
2000a888:	e51b1020 	ldr	a2, [fp, #-32]
2000a88c:	e59f30bc 	ldr	a4, [pc, #188]	; 2000a950 <mq_send+0x518>
2000a890:	e51b2034 	ldr	a3, [fp, #-52]	; 0x34
2000a894:	e7920003 	ldr	a1, [a3, a4]
2000a898:	e3a0c010 	mov	ip, #16
2000a89c:	e1a03001 	mov	a4, a2
2000a8a0:	e1a02103 	lsl	a3, a4, #2
2000a8a4:	e1a03182 	lsl	a4, a3, #3
2000a8a8:	e0623003 	rsb	a4, a3, a4
2000a8ac:	e0803003 	add	a4, a1, a4
2000a8b0:	e083300c 	add	a4, a4, ip
2000a8b4:	e5933000 	ldr	a4, [a4]
2000a8b8:	e2830001 	add	a1, a4, #1
2000a8bc:	e59f308c 	ldr	a4, [pc, #140]	; 2000a950 <mq_send+0x518>
2000a8c0:	e51b2034 	ldr	a3, [fp, #-52]	; 0x34
2000a8c4:	e792c003 	ldr	ip, [a3, a4]
2000a8c8:	e3a0e010 	mov	lr, #16
2000a8cc:	e1a03001 	mov	a4, a2
2000a8d0:	e1a02103 	lsl	a3, a4, #2
2000a8d4:	e1a03182 	lsl	a4, a3, #3
2000a8d8:	e0623003 	rsb	a4, a3, a4
2000a8dc:	e08c3003 	add	a4, ip, a4
2000a8e0:	e083300e 	add	a4, a4, lr
2000a8e4:	e5830000 	str	a1, [a4]
2000a8e8:	e51b3020 	ldr	a4, [fp, #-32]
2000a8ec:	e1a02103 	lsl	a3, a4, #2
2000a8f0:	e59f3070 	ldr	a4, [pc, #112]	; 2000a968 <mq_send+0x530>
2000a8f4:	e51bc034 	ldr	ip, [fp, #-52]	; 0x34
2000a8f8:	e79c3003 	ldr	a4, [ip, a4]
2000a8fc:	e0823003 	add	a4, a3, a4
2000a900:	e1a00003 	mov	a1, a4
2000a904:	eb000fd2 	bl	2000e854 <sem_post>
2000a908:	e3a00000 	mov	a1, #0
2000a90c:	e50b0030 	str	a1, [fp, #-48]	; 0x30
2000a910:	ea000006 	b	2000a930 <mq_send+0x4f8>
2000a914:	e59f3050 	ldr	a4, [pc, #80]	; 2000a96c <mq_send+0x534>
2000a918:	e51b1034 	ldr	a2, [fp, #-52]	; 0x34
2000a91c:	e0813003 	add	a4, a2, a4
2000a920:	e1a00003 	mov	a1, a4
2000a924:	eb00087a 	bl	2000cb14 <printk>
2000a928:	e3e02000 	mvn	a3, #0
2000a92c:	e50b2030 	str	a3, [fp, #-48]	; 0x30
2000a930:	e51b3030 	ldr	a4, [fp, #-48]	; 0x30
2000a934:	e1a00003 	mov	a1, a4
2000a938:	e24bd014 	sub	sp, fp, #20
2000a93c:	e89da830 	ldm	sp, {v1, v2, fp, sp, pc}
2000a940:	0000933c 	andeq	v6, a1, ip, lsr a4
2000a944:	fffff7ec 			; <UNDEFINED> instruction: 0xfffff7ec
2000a948:	fffff804 			; <UNDEFINED> instruction: 0xfffff804
2000a94c:	fffff7e4 			; <UNDEFINED> instruction: 0xfffff7e4
2000a950:	000000d0 	ldrdeq	a1, [a1], -a1	; <UNPREDICTABLE>
2000a954:	fffff81c 			; <UNDEFINED> instruction: 0xfffff81c
2000a958:	fffff840 			; <UNDEFINED> instruction: 0xfffff840
2000a95c:	00000080 	andeq	a1, a1, a1, lsl #1
2000a960:	fffff860 			; <UNDEFINED> instruction: 0xfffff860
2000a964:	fffff864 			; <UNDEFINED> instruction: 0xfffff864
2000a968:	000000d4 	ldrdeq	a1, [a1], -v1
2000a96c:	fffff868 			; <UNDEFINED> instruction: 0xfffff868

2000a970 <mq_receive>:
2000a970:	e1a0c00d 	mov	ip, sp
2000a974:	e92dd830 	push	{v1, v2, fp, ip, lr, pc}
2000a978:	e24cb004 	sub	fp, ip, #4
2000a97c:	e24dd020 	sub	sp, sp, #32
2000a980:	e59fc40c 	ldr	ip, [pc, #1036]	; 2000ad94 <mq_receive+0x424>
2000a984:	e50bc034 	str	ip, [fp, #-52]	; 0x34
2000a988:	e51bc034 	ldr	ip, [fp, #-52]	; 0x34
2000a98c:	e08fc00c 	add	ip, pc, ip
2000a990:	e50bc034 	str	ip, [fp, #-52]	; 0x34
2000a994:	e50b0020 	str	a1, [fp, #-32]
2000a998:	e50b1024 	str	a2, [fp, #-36]	; 0x24
2000a99c:	e50b2028 	str	a3, [fp, #-40]	; 0x28
2000a9a0:	e50b302c 	str	a4, [fp, #-44]	; 0x2c
2000a9a4:	e3a03000 	mov	a4, #0
2000a9a8:	e50b3018 	str	a4, [fp, #-24]
2000a9ac:	e51b3020 	ldr	a4, [fp, #-32]
2000a9b0:	e3530000 	cmp	a4, #0
2000a9b4:	aa000007 	bge	2000a9d8 <mq_receive+0x68>
2000a9b8:	e59f33d8 	ldr	a4, [pc, #984]	; 2000ad98 <mq_receive+0x428>
2000a9bc:	e51b0034 	ldr	a1, [fp, #-52]	; 0x34
2000a9c0:	e0803003 	add	a4, a1, a4
2000a9c4:	e1a00003 	mov	a1, a4
2000a9c8:	eb000851 	bl	2000cb14 <printk>
2000a9cc:	e3e01000 	mvn	a2, #0
2000a9d0:	e50b1030 	str	a2, [fp, #-48]	; 0x30
2000a9d4:	ea0000ea 	b	2000ad84 <mq_receive+0x414>
2000a9d8:	e51b3020 	ldr	a4, [fp, #-32]
2000a9dc:	e1a02103 	lsl	a3, a4, #2
2000a9e0:	e59f33b4 	ldr	a4, [pc, #948]	; 2000ad9c <mq_receive+0x42c>
2000a9e4:	e51bc034 	ldr	ip, [fp, #-52]	; 0x34
2000a9e8:	e79c3003 	ldr	a4, [ip, a4]
2000a9ec:	e0823003 	add	a4, a3, a4
2000a9f0:	e1a00003 	mov	a1, a4
2000a9f4:	eb000ebe 	bl	2000e4f4 <sem_wait>
2000a9f8:	e51b2020 	ldr	a3, [fp, #-32]
2000a9fc:	e59f339c 	ldr	a4, [pc, #924]	; 2000ada0 <mq_receive+0x430>
2000aa00:	e51b0034 	ldr	a1, [fp, #-52]	; 0x34
2000aa04:	e7901003 	ldr	a2, [a1, a4]
2000aa08:	e3a00010 	mov	a1, #16
2000aa0c:	e1a03002 	mov	a4, a3
2000aa10:	e1a02103 	lsl	a3, a4, #2
2000aa14:	e1a03182 	lsl	a4, a3, #3
2000aa18:	e0623003 	rsb	a4, a3, a4
2000aa1c:	e0813003 	add	a4, a2, a4
2000aa20:	e0833000 	add	a4, a4, a1
2000aa24:	e5933000 	ldr	a4, [a4]
2000aa28:	e3530000 	cmp	a4, #0
2000aa2c:	da0000cd 	ble	2000ad68 <mq_receive+0x3f8>
2000aa30:	e51b2020 	ldr	a3, [fp, #-32]
2000aa34:	e59f3364 	ldr	a4, [pc, #868]	; 2000ada0 <mq_receive+0x430>
2000aa38:	e51bc034 	ldr	ip, [fp, #-52]	; 0x34
2000aa3c:	e79c1003 	ldr	a2, [ip, a4]
2000aa40:	e3a00014 	mov	a1, #20
2000aa44:	e1a03002 	mov	a4, a3
2000aa48:	e1a02103 	lsl	a3, a4, #2
2000aa4c:	e1a03182 	lsl	a4, a3, #3
2000aa50:	e0623003 	rsb	a4, a3, a4
2000aa54:	e0813003 	add	a4, a2, a4
2000aa58:	e0833000 	add	a4, a4, a1
2000aa5c:	e5933000 	ldr	a4, [a4]
2000aa60:	e1a02003 	mov	a3, a4
2000aa64:	e51b3028 	ldr	a4, [fp, #-40]	; 0x28
2000aa68:	e1520003 	cmp	a3, a4
2000aa6c:	8a0000b5 	bhi	2000ad48 <mq_receive+0x3d8>
2000aa70:	e3a03000 	mov	a4, #0
2000aa74:	e50b301c 	str	a4, [fp, #-28]
2000aa78:	ea000035 	b	2000ab54 <mq_receive+0x1e4>
2000aa7c:	e51b201c 	ldr	a3, [fp, #-28]
2000aa80:	e51b3024 	ldr	a4, [fp, #-36]	; 0x24
2000aa84:	e083c002 	add	ip, a4, a3
2000aa88:	e51be020 	ldr	lr, [fp, #-32]
2000aa8c:	e51b2020 	ldr	a3, [fp, #-32]
2000aa90:	e59f3308 	ldr	a4, [pc, #776]	; 2000ada0 <mq_receive+0x430>
2000aa94:	e51b0034 	ldr	a1, [fp, #-52]	; 0x34
2000aa98:	e7901003 	ldr	a2, [a1, a4]
2000aa9c:	e3a00008 	mov	a1, #8
2000aaa0:	e1a03002 	mov	a4, a3
2000aaa4:	e1a02103 	lsl	a3, a4, #2
2000aaa8:	e1a03182 	lsl	a4, a3, #3
2000aaac:	e0623003 	rsb	a4, a3, a4
2000aab0:	e0813003 	add	a4, a2, a4
2000aab4:	e0833000 	add	a4, a4, a1
2000aab8:	e5932000 	ldr	a3, [a4]
2000aabc:	e51b001c 	ldr	a1, [fp, #-28]
2000aac0:	e59f32dc 	ldr	a4, [pc, #732]	; 2000ada4 <mq_receive+0x434>
2000aac4:	e51b1034 	ldr	a2, [fp, #-52]	; 0x34
2000aac8:	e7914003 	ldr	v1, [a2, a4]
2000aacc:	e3a05010 	mov	v2, #16
2000aad0:	e1a03002 	mov	a4, a3
2000aad4:	e1a01183 	lsl	a2, a4, #3
2000aad8:	e1a03101 	lsl	a4, a2, #2
2000aadc:	e0811003 	add	a2, a2, a4
2000aae0:	e1a0300e 	mov	a4, lr
2000aae4:	e1a02183 	lsl	a3, a4, #3
2000aae8:	e1a03102 	lsl	a4, a3, #2
2000aaec:	e0822003 	add	a3, a3, a4
2000aaf0:	e1a03182 	lsl	a4, a3, #3
2000aaf4:	e0623003 	rsb	a4, a3, a4
2000aaf8:	e0813003 	add	a4, a2, a4
2000aafc:	e0843003 	add	a4, v1, a4
2000ab00:	e0833000 	add	a4, a4, a1
2000ab04:	e0833005 	add	a4, a4, v2
2000ab08:	e5d33002 	ldrb	a4, [a4, #2]
2000ab0c:	e5cc3000 	strb	a4, [ip]
2000ab10:	e51b201c 	ldr	a3, [fp, #-28]
2000ab14:	e51b3024 	ldr	a4, [fp, #-36]	; 0x24
2000ab18:	e0833002 	add	a4, a4, a3
2000ab1c:	e5d33000 	ldrb	a4, [a4]
2000ab20:	e1a02003 	mov	a3, a4
2000ab24:	e59f327c 	ldr	a4, [pc, #636]	; 2000ada8 <mq_receive+0x438>
2000ab28:	e51bc034 	ldr	ip, [fp, #-52]	; 0x34
2000ab2c:	e08c3003 	add	a4, ip, a4
2000ab30:	e1a00003 	mov	a1, a4
2000ab34:	e1a01002 	mov	a2, a3
2000ab38:	eb0007f5 	bl	2000cb14 <printk>
2000ab3c:	e51b3018 	ldr	a4, [fp, #-24]
2000ab40:	e2833001 	add	a4, a4, #1
2000ab44:	e50b3018 	str	a4, [fp, #-24]
2000ab48:	e51b301c 	ldr	a4, [fp, #-28]
2000ab4c:	e2833001 	add	a4, a4, #1
2000ab50:	e50b301c 	str	a4, [fp, #-28]
2000ab54:	e51bc020 	ldr	ip, [fp, #-32]
2000ab58:	e51b2020 	ldr	a3, [fp, #-32]
2000ab5c:	e59f323c 	ldr	a4, [pc, #572]	; 2000ada0 <mq_receive+0x430>
2000ab60:	e51b0034 	ldr	a1, [fp, #-52]	; 0x34
2000ab64:	e7901003 	ldr	a2, [a1, a4]
2000ab68:	e3a00008 	mov	a1, #8
2000ab6c:	e1a03002 	mov	a4, a3
2000ab70:	e1a02103 	lsl	a3, a4, #2
2000ab74:	e1a03182 	lsl	a4, a3, #3
2000ab78:	e0623003 	rsb	a4, a3, a4
2000ab7c:	e0813003 	add	a4, a2, a4
2000ab80:	e0833000 	add	a4, a4, a1
2000ab84:	e5932000 	ldr	a3, [a4]
2000ab88:	e51b001c 	ldr	a1, [fp, #-28]
2000ab8c:	e59f3210 	ldr	a4, [pc, #528]	; 2000ada4 <mq_receive+0x434>
2000ab90:	e51b1034 	ldr	a2, [fp, #-52]	; 0x34
2000ab94:	e7914003 	ldr	v1, [a2, a4]
2000ab98:	e3a05010 	mov	v2, #16
2000ab9c:	e1a03002 	mov	a4, a3
2000aba0:	e1a01183 	lsl	a2, a4, #3
2000aba4:	e1a03101 	lsl	a4, a2, #2
2000aba8:	e0811003 	add	a2, a2, a4
2000abac:	e1a0300c 	mov	a4, ip
2000abb0:	e1a02183 	lsl	a3, a4, #3
2000abb4:	e1a03102 	lsl	a4, a3, #2
2000abb8:	e0822003 	add	a3, a3, a4
2000abbc:	e1a03182 	lsl	a4, a3, #3
2000abc0:	e0623003 	rsb	a4, a3, a4
2000abc4:	e0813003 	add	a4, a2, a4
2000abc8:	e0843003 	add	a4, v1, a4
2000abcc:	e0833000 	add	a4, a4, a1
2000abd0:	e0833005 	add	a4, a4, v2
2000abd4:	e5d33002 	ldrb	a4, [a4, #2]
2000abd8:	e3530000 	cmp	a4, #0
2000abdc:	1affffa6 	bne	2000aa7c <mq_receive+0x10c>
2000abe0:	e51b1020 	ldr	a2, [fp, #-32]
2000abe4:	e59f31b4 	ldr	a4, [pc, #436]	; 2000ada0 <mq_receive+0x430>
2000abe8:	e51b2034 	ldr	a3, [fp, #-52]	; 0x34
2000abec:	e7920003 	ldr	a1, [a3, a4]
2000abf0:	e3a0c008 	mov	ip, #8
2000abf4:	e1a03001 	mov	a4, a2
2000abf8:	e1a02103 	lsl	a3, a4, #2
2000abfc:	e1a03182 	lsl	a4, a3, #3
2000ac00:	e0623003 	rsb	a4, a3, a4
2000ac04:	e0803003 	add	a4, a1, a4
2000ac08:	e083300c 	add	a4, a4, ip
2000ac0c:	e5933000 	ldr	a4, [a4]
2000ac10:	e2830001 	add	a1, a4, #1
2000ac14:	e59f3184 	ldr	a4, [pc, #388]	; 2000ada0 <mq_receive+0x430>
2000ac18:	e51b2034 	ldr	a3, [fp, #-52]	; 0x34
2000ac1c:	e792c003 	ldr	ip, [a3, a4]
2000ac20:	e3a04008 	mov	v1, #8
2000ac24:	e1a03001 	mov	a4, a2
2000ac28:	e1a02103 	lsl	a3, a4, #2
2000ac2c:	e1a03182 	lsl	a4, a3, #3
2000ac30:	e0623003 	rsb	a4, a3, a4
2000ac34:	e08c3003 	add	a4, ip, a4
2000ac38:	e0833004 	add	a4, a4, v1
2000ac3c:	e5830000 	str	a1, [a4]
2000ac40:	e51b1020 	ldr	a2, [fp, #-32]
2000ac44:	e59f3154 	ldr	a4, [pc, #340]	; 2000ada0 <mq_receive+0x430>
2000ac48:	e51bc034 	ldr	ip, [fp, #-52]	; 0x34
2000ac4c:	e79c0003 	ldr	a1, [ip, a4]
2000ac50:	e3a0c010 	mov	ip, #16
2000ac54:	e1a03001 	mov	a4, a2
2000ac58:	e1a02103 	lsl	a3, a4, #2
2000ac5c:	e1a03182 	lsl	a4, a3, #3
2000ac60:	e0623003 	rsb	a4, a3, a4
2000ac64:	e0803003 	add	a4, a1, a4
2000ac68:	e083300c 	add	a4, a4, ip
2000ac6c:	e5933000 	ldr	a4, [a4]
2000ac70:	e2430001 	sub	a1, a4, #1
2000ac74:	e59f3124 	ldr	a4, [pc, #292]	; 2000ada0 <mq_receive+0x430>
2000ac78:	e51b2034 	ldr	a3, [fp, #-52]	; 0x34
2000ac7c:	e792c003 	ldr	ip, [a3, a4]
2000ac80:	e3a04010 	mov	v1, #16
2000ac84:	e1a03001 	mov	a4, a2
2000ac88:	e1a02103 	lsl	a3, a4, #2
2000ac8c:	e1a03182 	lsl	a4, a3, #3
2000ac90:	e0623003 	rsb	a4, a3, a4
2000ac94:	e08c3003 	add	a4, ip, a4
2000ac98:	e0833004 	add	a4, a4, v1
2000ac9c:	e5830000 	str	a1, [a4]
2000aca0:	e51b2020 	ldr	a3, [fp, #-32]
2000aca4:	e59f30f4 	ldr	a4, [pc, #244]	; 2000ada0 <mq_receive+0x430>
2000aca8:	e51bc034 	ldr	ip, [fp, #-52]	; 0x34
2000acac:	e79c1003 	ldr	a2, [ip, a4]
2000acb0:	e3a00008 	mov	a1, #8
2000acb4:	e1a03002 	mov	a4, a3
2000acb8:	e1a02103 	lsl	a3, a4, #2
2000acbc:	e1a03182 	lsl	a4, a3, #3
2000acc0:	e0623003 	rsb	a4, a3, a4
2000acc4:	e0813003 	add	a4, a2, a4
2000acc8:	e0833000 	add	a4, a4, a1
2000accc:	e593c000 	ldr	ip, [a4]
2000acd0:	e51b2020 	ldr	a3, [fp, #-32]
2000acd4:	e59f30c4 	ldr	a4, [pc, #196]	; 2000ada0 <mq_receive+0x430>
2000acd8:	e51b0034 	ldr	a1, [fp, #-52]	; 0x34
2000acdc:	e7901003 	ldr	a2, [a1, a4]
2000ace0:	e3a0000c 	mov	a1, #12
2000ace4:	e1a03002 	mov	a4, a3
2000ace8:	e1a02103 	lsl	a3, a4, #2
2000acec:	e1a03182 	lsl	a4, a3, #3
2000acf0:	e0623003 	rsb	a4, a3, a4
2000acf4:	e0813003 	add	a4, a2, a4
2000acf8:	e0833000 	add	a4, a4, a1
2000acfc:	e5933000 	ldr	a4, [a4]
2000ad00:	e15c0003 	cmp	ip, a4
2000ad04:	1a00000c 	bne	2000ad3c <mq_receive+0x3cc>
2000ad08:	e51b2020 	ldr	a3, [fp, #-32]
2000ad0c:	e59f308c 	ldr	a4, [pc, #140]	; 2000ada0 <mq_receive+0x430>
2000ad10:	e51bc034 	ldr	ip, [fp, #-52]	; 0x34
2000ad14:	e79c1003 	ldr	a2, [ip, a4]
2000ad18:	e3a00008 	mov	a1, #8
2000ad1c:	e1a03002 	mov	a4, a3
2000ad20:	e1a02103 	lsl	a3, a4, #2
2000ad24:	e1a03182 	lsl	a4, a3, #3
2000ad28:	e0623003 	rsb	a4, a3, a4
2000ad2c:	e0813003 	add	a4, a2, a4
2000ad30:	e0832000 	add	a3, a4, a1
2000ad34:	e3a03000 	mov	a4, #0
2000ad38:	e5823000 	str	a4, [a3]
2000ad3c:	e51b0018 	ldr	a1, [fp, #-24]
2000ad40:	e50b0030 	str	a1, [fp, #-48]	; 0x30
2000ad44:	ea00000e 	b	2000ad84 <mq_receive+0x414>
2000ad48:	e59f305c 	ldr	a4, [pc, #92]	; 2000adac <mq_receive+0x43c>
2000ad4c:	e51b1034 	ldr	a2, [fp, #-52]	; 0x34
2000ad50:	e0813003 	add	a4, a2, a4
2000ad54:	e1a00003 	mov	a1, a4
2000ad58:	eb00076d 	bl	2000cb14 <printk>
2000ad5c:	e3e02000 	mvn	a3, #0
2000ad60:	e50b2030 	str	a3, [fp, #-48]	; 0x30
2000ad64:	ea000006 	b	2000ad84 <mq_receive+0x414>
2000ad68:	e59f3040 	ldr	a4, [pc, #64]	; 2000adb0 <mq_receive+0x440>
2000ad6c:	e51bc034 	ldr	ip, [fp, #-52]	; 0x34
2000ad70:	e08c3003 	add	a4, ip, a4
2000ad74:	e1a00003 	mov	a1, a4
2000ad78:	eb000765 	bl	2000cb14 <printk>
2000ad7c:	e3e00000 	mvn	a1, #0
2000ad80:	e50b0030 	str	a1, [fp, #-48]	; 0x30
2000ad84:	e51b3030 	ldr	a4, [fp, #-48]	; 0x30
2000ad88:	e1a00003 	mov	a1, a4
2000ad8c:	e24bd014 	sub	sp, fp, #20
2000ad90:	e89da830 	ldm	sp, {v1, v2, fp, sp, pc}
2000ad94:	00008e04 	andeq	v5, a1, v1, lsl #28
2000ad98:	fffff7ec 			; <UNDEFINED> instruction: 0xfffff7ec
2000ad9c:	000000d4 	ldrdeq	a1, [a1], -v1
2000ada0:	000000d0 	ldrdeq	a1, [a1], -a1	; <UNPREDICTABLE>
2000ada4:	00000080 	andeq	a1, a1, a1, lsl #1
2000ada8:	fffff860 			; <UNDEFINED> instruction: 0xfffff860
2000adac:	fffff87c 			; <UNDEFINED> instruction: 0xfffff87c
2000adb0:	fffff894 			; <UNDEFINED> instruction: 0xfffff894

2000adb4 <mq_getattr>:
2000adb4:	e1a0c00d 	mov	ip, sp
2000adb8:	e92dd800 	push	{fp, ip, lr, pc}
2000adbc:	e24cb004 	sub	fp, ip, #4
2000adc0:	e24dd010 	sub	sp, sp, #16
2000adc4:	e59f20f8 	ldr	a3, [pc, #248]	; 2000aec4 <mq_getattr+0x110>
2000adc8:	e50b201c 	str	a3, [fp, #-28]
2000adcc:	e51b301c 	ldr	a4, [fp, #-28]
2000add0:	e08f3003 	add	a4, pc, a4
2000add4:	e50b301c 	str	a4, [fp, #-28]
2000add8:	e50b0010 	str	a1, [fp, #-16]
2000addc:	e50b1014 	str	a2, [fp, #-20]
2000ade0:	e51b3010 	ldr	a4, [fp, #-16]
2000ade4:	e3530000 	cmp	a4, #0
2000ade8:	aa000007 	bge	2000ae0c <mq_getattr+0x58>
2000adec:	e59f30d4 	ldr	a4, [pc, #212]	; 2000aec8 <mq_getattr+0x114>
2000adf0:	e51b001c 	ldr	a1, [fp, #-28]
2000adf4:	e0803003 	add	a4, a1, a4
2000adf8:	e1a00003 	mov	a1, a4
2000adfc:	eb000744 	bl	2000cb14 <printk>
2000ae00:	e3e02000 	mvn	a3, #0
2000ae04:	e50b2018 	str	a3, [fp, #-24]
2000ae08:	ea000029 	b	2000aeb4 <mq_getattr+0x100>
2000ae0c:	e51b2010 	ldr	a3, [fp, #-16]
2000ae10:	e59f30b4 	ldr	a4, [pc, #180]	; 2000aecc <mq_getattr+0x118>
2000ae14:	e51b001c 	ldr	a1, [fp, #-28]
2000ae18:	e7901003 	ldr	a2, [a1, a4]
2000ae1c:	e1a03002 	mov	a4, a3
2000ae20:	e1a02103 	lsl	a3, a4, #2
2000ae24:	e1a03102 	lsl	a4, a3, #2
2000ae28:	e0623003 	rsb	a4, a3, a4
2000ae2c:	e0813003 	add	a4, a2, a4
2000ae30:	e5932000 	ldr	a3, [a4]
2000ae34:	e51b3014 	ldr	a4, [fp, #-20]
2000ae38:	e5832000 	str	a3, [a4]
2000ae3c:	e51b2010 	ldr	a3, [fp, #-16]
2000ae40:	e59f3084 	ldr	a4, [pc, #132]	; 2000aecc <mq_getattr+0x118>
2000ae44:	e51b001c 	ldr	a1, [fp, #-28]
2000ae48:	e7901003 	ldr	a2, [a1, a4]
2000ae4c:	e3a00004 	mov	a1, #4
2000ae50:	e1a03002 	mov	a4, a3
2000ae54:	e1a02103 	lsl	a3, a4, #2
2000ae58:	e1a03102 	lsl	a4, a3, #2
2000ae5c:	e0623003 	rsb	a4, a3, a4
2000ae60:	e0813003 	add	a4, a2, a4
2000ae64:	e0833000 	add	a4, a4, a1
2000ae68:	e5932000 	ldr	a3, [a4]
2000ae6c:	e51b3014 	ldr	a4, [fp, #-20]
2000ae70:	e5832004 	str	a3, [a4, #4]
2000ae74:	e51b2010 	ldr	a3, [fp, #-16]
2000ae78:	e59f304c 	ldr	a4, [pc, #76]	; 2000aecc <mq_getattr+0x118>
2000ae7c:	e51b001c 	ldr	a1, [fp, #-28]
2000ae80:	e7901003 	ldr	a2, [a1, a4]
2000ae84:	e3a00008 	mov	a1, #8
2000ae88:	e1a03002 	mov	a4, a3
2000ae8c:	e1a02103 	lsl	a3, a4, #2
2000ae90:	e1a03102 	lsl	a4, a3, #2
2000ae94:	e0623003 	rsb	a4, a3, a4
2000ae98:	e0813003 	add	a4, a2, a4
2000ae9c:	e0833000 	add	a4, a4, a1
2000aea0:	e5932000 	ldr	a3, [a4]
2000aea4:	e51b3014 	ldr	a4, [fp, #-20]
2000aea8:	e5832008 	str	a3, [a4, #8]
2000aeac:	e3a02000 	mov	a3, #0
2000aeb0:	e50b2018 	str	a3, [fp, #-24]
2000aeb4:	e51b3018 	ldr	a4, [fp, #-24]
2000aeb8:	e1a00003 	mov	a1, a4
2000aebc:	e24bd00c 	sub	sp, fp, #12
2000aec0:	e89da800 	ldm	sp, {fp, sp, pc}
2000aec4:	000089c0 	andeq	v5, a1, a1, asr #19
2000aec8:	fffff8b4 			; <UNDEFINED> instruction: 0xfffff8b4
2000aecc:	000000cc 	andeq	a1, a1, ip, asr #1

2000aed0 <mq_close>:
2000aed0:	e1a0c00d 	mov	ip, sp
2000aed4:	e92dd810 	push	{v1, fp, ip, lr, pc}
2000aed8:	e24cb004 	sub	fp, ip, #4
2000aedc:	e24dd00c 	sub	sp, sp, #12
2000aee0:	e59f41b8 	ldr	v1, [pc, #440]	; 2000b0a0 <mq_close+0x1d0>
2000aee4:	e08f4004 	add	v1, pc, v1
2000aee8:	e50b0018 	str	a1, [fp, #-24]
2000aeec:	eb000c13 	bl	2000df40 <vk_scheduler_lock>
2000aef0:	e51b2018 	ldr	a3, [fp, #-24]
2000aef4:	e59f31a8 	ldr	a4, [pc, #424]	; 2000b0a4 <mq_close+0x1d4>
2000aef8:	e7941003 	ldr	a2, [v1, a4]
2000aefc:	e3a00004 	mov	a1, #4
2000af00:	e1a03002 	mov	a4, a3
2000af04:	e1a02103 	lsl	a3, a4, #2
2000af08:	e1a03182 	lsl	a4, a3, #3
2000af0c:	e0623003 	rsb	a4, a3, a4
2000af10:	e0813003 	add	a4, a2, a4
2000af14:	e0832000 	add	a3, a4, a1
2000af18:	e3a03000 	mov	a4, #0
2000af1c:	e5823000 	str	a4, [a3]
2000af20:	e51b2018 	ldr	a3, [fp, #-24]
2000af24:	e59f3178 	ldr	a4, [pc, #376]	; 2000b0a4 <mq_close+0x1d4>
2000af28:	e7941003 	ldr	a2, [v1, a4]
2000af2c:	e3a00008 	mov	a1, #8
2000af30:	e1a03002 	mov	a4, a3
2000af34:	e1a02103 	lsl	a3, a4, #2
2000af38:	e1a03182 	lsl	a4, a3, #3
2000af3c:	e0623003 	rsb	a4, a3, a4
2000af40:	e0813003 	add	a4, a2, a4
2000af44:	e0832000 	add	a3, a4, a1
2000af48:	e3a03000 	mov	a4, #0
2000af4c:	e5823000 	str	a4, [a3]
2000af50:	e51b2018 	ldr	a3, [fp, #-24]
2000af54:	e59f3148 	ldr	a4, [pc, #328]	; 2000b0a4 <mq_close+0x1d4>
2000af58:	e7941003 	ldr	a2, [v1, a4]
2000af5c:	e3a0000c 	mov	a1, #12
2000af60:	e1a03002 	mov	a4, a3
2000af64:	e1a02103 	lsl	a3, a4, #2
2000af68:	e1a03182 	lsl	a4, a3, #3
2000af6c:	e0623003 	rsb	a4, a3, a4
2000af70:	e0813003 	add	a4, a2, a4
2000af74:	e0832000 	add	a3, a4, a1
2000af78:	e3a03000 	mov	a4, #0
2000af7c:	e5823000 	str	a4, [a3]
2000af80:	e51b2018 	ldr	a3, [fp, #-24]
2000af84:	e59f3118 	ldr	a4, [pc, #280]	; 2000b0a4 <mq_close+0x1d4>
2000af88:	e7941003 	ldr	a2, [v1, a4]
2000af8c:	e3a00010 	mov	a1, #16
2000af90:	e1a03002 	mov	a4, a3
2000af94:	e1a02103 	lsl	a3, a4, #2
2000af98:	e1a03182 	lsl	a4, a3, #3
2000af9c:	e0623003 	rsb	a4, a3, a4
2000afa0:	e0813003 	add	a4, a2, a4
2000afa4:	e0832000 	add	a3, a4, a1
2000afa8:	e3a03000 	mov	a4, #0
2000afac:	e5823000 	str	a4, [a3]
2000afb0:	e51b2018 	ldr	a3, [fp, #-24]
2000afb4:	e59f30ec 	ldr	a4, [pc, #236]	; 2000b0a8 <mq_close+0x1d8>
2000afb8:	e7941003 	ldr	a2, [v1, a4]
2000afbc:	e1a03002 	mov	a4, a3
2000afc0:	e1a02103 	lsl	a3, a4, #2
2000afc4:	e1a03102 	lsl	a4, a3, #2
2000afc8:	e0623003 	rsb	a4, a3, a4
2000afcc:	e0812003 	add	a3, a2, a4
2000afd0:	e3a03000 	mov	a4, #0
2000afd4:	e5823000 	str	a4, [a3]
2000afd8:	e51b2018 	ldr	a3, [fp, #-24]
2000afdc:	e59f30c4 	ldr	a4, [pc, #196]	; 2000b0a8 <mq_close+0x1d8>
2000afe0:	e7941003 	ldr	a2, [v1, a4]
2000afe4:	e3a00004 	mov	a1, #4
2000afe8:	e1a03002 	mov	a4, a3
2000afec:	e1a02103 	lsl	a3, a4, #2
2000aff0:	e1a03102 	lsl	a4, a3, #2
2000aff4:	e0623003 	rsb	a4, a3, a4
2000aff8:	e0813003 	add	a4, a2, a4
2000affc:	e0832000 	add	a3, a4, a1
2000b000:	e3a03000 	mov	a4, #0
2000b004:	e5823000 	str	a4, [a3]
2000b008:	e51b2018 	ldr	a3, [fp, #-24]
2000b00c:	e59f3094 	ldr	a4, [pc, #148]	; 2000b0a8 <mq_close+0x1d8>
2000b010:	e7941003 	ldr	a2, [v1, a4]
2000b014:	e3a00008 	mov	a1, #8
2000b018:	e1a03002 	mov	a4, a3
2000b01c:	e1a02103 	lsl	a3, a4, #2
2000b020:	e1a03102 	lsl	a4, a3, #2
2000b024:	e0623003 	rsb	a4, a3, a4
2000b028:	e0813003 	add	a4, a2, a4
2000b02c:	e0832000 	add	a3, a4, a1
2000b030:	e3a03000 	mov	a4, #0
2000b034:	e5823000 	str	a4, [a3]
2000b038:	e51b3018 	ldr	a4, [fp, #-24]
2000b03c:	e1a02103 	lsl	a3, a4, #2
2000b040:	e59f3064 	ldr	a4, [pc, #100]	; 2000b0ac <mq_close+0x1dc>
2000b044:	e7943003 	ldr	a4, [v1, a4]
2000b048:	e0823003 	add	a4, a3, a4
2000b04c:	e1a00003 	mov	a1, a4
2000b050:	eb000ccd 	bl	2000e38c <sem_destory>
2000b054:	e51b3018 	ldr	a4, [fp, #-24]
2000b058:	e2433001 	sub	a4, a4, #1
2000b05c:	e50b3018 	str	a4, [fp, #-24]
2000b060:	e59f3048 	ldr	a4, [pc, #72]	; 2000b0b0 <mq_close+0x1e0>
2000b064:	e7943003 	ldr	a4, [v1, a4]
2000b068:	e5933000 	ldr	a4, [a4]
2000b06c:	e2432001 	sub	a3, a4, #1
2000b070:	e59f3038 	ldr	a4, [pc, #56]	; 2000b0b0 <mq_close+0x1e0>
2000b074:	e7943003 	ldr	a4, [v1, a4]
2000b078:	e5832000 	str	a3, [a4]
2000b07c:	eb000bc9 	bl	2000dfa8 <vk_scheduler_unlock>
2000b080:	e59f302c 	ldr	a4, [pc, #44]	; 2000b0b4 <mq_close+0x1e4>
2000b084:	e0843003 	add	a4, v1, a4
2000b088:	e1a00003 	mov	a1, a4
2000b08c:	eb0006a0 	bl	2000cb14 <printk>
2000b090:	e3a03000 	mov	a4, #0
2000b094:	e1a00003 	mov	a1, a4
2000b098:	e24bd010 	sub	sp, fp, #16
2000b09c:	e89da810 	ldm	sp, {v1, fp, sp, pc}
2000b0a0:	000088ac 	andeq	v5, a1, ip, lsr #17
2000b0a4:	000000d0 	ldrdeq	a1, [a1], -a1	; <UNPREDICTABLE>
2000b0a8:	000000cc 	andeq	a1, a1, ip, asr #1
2000b0ac:	000000d4 	ldrdeq	a1, [a1], -v1
2000b0b0:	0000005c 	andeq	a1, a1, ip, asr a1
2000b0b4:	fffff8cc 			; <UNDEFINED> instruction: 0xfffff8cc

2000b0b8 <pthread_mutex_init>:
2000b0b8:	e1a0c00d 	mov	ip, sp
2000b0bc:	e92dd800 	push	{fp, ip, lr, pc}
2000b0c0:	e24cb004 	sub	fp, ip, #4
2000b0c4:	e24dd010 	sub	sp, sp, #16
2000b0c8:	e50b0018 	str	a1, [fp, #-24]
2000b0cc:	e50b101c 	str	a2, [fp, #-28]
2000b0d0:	e3a0002c 	mov	a1, #44	; 0x2c
2000b0d4:	ebfffbdd 	bl	2000a050 <malloc>
2000b0d8:	e1a03000 	mov	a4, a1
2000b0dc:	e50b3010 	str	a4, [fp, #-16]
2000b0e0:	e51b2010 	ldr	a3, [fp, #-16]
2000b0e4:	e3a03000 	mov	a4, #0
2000b0e8:	e5823010 	str	a4, [a3, #16]
2000b0ec:	e51b2010 	ldr	a3, [fp, #-16]
2000b0f0:	e3a03000 	mov	a4, #0
2000b0f4:	e5823014 	str	a4, [a3, #20]
2000b0f8:	e51b2010 	ldr	a3, [fp, #-16]
2000b0fc:	e3a03001 	mov	a4, #1
2000b100:	e5823018 	str	a4, [a3, #24]
2000b104:	e51b2010 	ldr	a3, [fp, #-16]
2000b108:	e3a03000 	mov	a4, #0
2000b10c:	e582301c 	str	a4, [a3, #28]
2000b110:	e51b2010 	ldr	a3, [fp, #-16]
2000b114:	e3a03000 	mov	a4, #0
2000b118:	e5823020 	str	a4, [a3, #32]
2000b11c:	e51b2010 	ldr	a3, [fp, #-16]
2000b120:	e3a03000 	mov	a4, #0
2000b124:	e5823024 	str	a4, [a3, #36]	; 0x24
2000b128:	e51b2010 	ldr	a3, [fp, #-16]
2000b12c:	e3a03000 	mov	a4, #0
2000b130:	e5823028 	str	a4, [a3, #40]	; 0x28
2000b134:	e51b2018 	ldr	a3, [fp, #-24]
2000b138:	e51b3010 	ldr	a4, [fp, #-16]
2000b13c:	e5823000 	str	a4, [a3]
2000b140:	e3a03000 	mov	a4, #0
2000b144:	e1a00003 	mov	a1, a4
2000b148:	e24bd00c 	sub	sp, fp, #12
2000b14c:	e89da800 	ldm	sp, {fp, sp, pc}

2000b150 <pthread_mutex_destroy>:
2000b150:	e1a0c00d 	mov	ip, sp
2000b154:	e92dd800 	push	{fp, ip, lr, pc}
2000b158:	e24cb004 	sub	fp, ip, #4
2000b15c:	e24dd018 	sub	sp, sp, #24
2000b160:	e59f10bc 	ldr	a2, [pc, #188]	; 2000b224 <pthread_mutex_destroy+0xd4>
2000b164:	e50b1020 	str	a2, [fp, #-32]
2000b168:	e51b2020 	ldr	a3, [fp, #-32]
2000b16c:	e08f2002 	add	a3, pc, a3
2000b170:	e50b2020 	str	a3, [fp, #-32]
2000b174:	e50b0018 	str	a1, [fp, #-24]
2000b178:	e51b3018 	ldr	a4, [fp, #-24]
2000b17c:	e5933000 	ldr	a4, [a4]
2000b180:	e50b3010 	str	a4, [fp, #-16]
2000b184:	e51b3010 	ldr	a4, [fp, #-16]
2000b188:	e5933014 	ldr	a4, [a4, #20]
2000b18c:	e3530000 	cmp	a4, #0
2000b190:	1a000008 	bne	2000b1b8 <pthread_mutex_destroy+0x68>
2000b194:	e51b3010 	ldr	a4, [fp, #-16]
2000b198:	e5933018 	ldr	a4, [a4, #24]
2000b19c:	e3530001 	cmp	a4, #1
2000b1a0:	1a000004 	bne	2000b1b8 <pthread_mutex_destroy+0x68>
2000b1a4:	e51b0010 	ldr	a1, [fp, #-16]
2000b1a8:	ebfffbc6 	bl	2000a0c8 <free>
2000b1ac:	e3a03000 	mov	a4, #0
2000b1b0:	e50b301c 	str	a4, [fp, #-28]
2000b1b4:	ea000016 	b	2000b214 <pthread_mutex_destroy+0xc4>
2000b1b8:	e51b3010 	ldr	a4, [fp, #-16]
2000b1bc:	e5932014 	ldr	a3, [a4, #20]
2000b1c0:	e59f3060 	ldr	a4, [pc, #96]	; 2000b228 <pthread_mutex_destroy+0xd8>
2000b1c4:	e51b1020 	ldr	a2, [fp, #-32]
2000b1c8:	e0813003 	add	a4, a2, a4
2000b1cc:	e1a00003 	mov	a1, a4
2000b1d0:	e1a01002 	mov	a2, a3
2000b1d4:	eb00064e 	bl	2000cb14 <printk>
2000b1d8:	e51b3010 	ldr	a4, [fp, #-16]
2000b1dc:	e5932018 	ldr	a3, [a4, #24]
2000b1e0:	e59f3044 	ldr	a4, [pc, #68]	; 2000b22c <pthread_mutex_destroy+0xdc>
2000b1e4:	e51b1020 	ldr	a2, [fp, #-32]
2000b1e8:	e0813003 	add	a4, a2, a4
2000b1ec:	e1a00003 	mov	a1, a4
2000b1f0:	e1a01002 	mov	a2, a3
2000b1f4:	eb000646 	bl	2000cb14 <printk>
2000b1f8:	e59f3030 	ldr	a4, [pc, #48]	; 2000b230 <pthread_mutex_destroy+0xe0>
2000b1fc:	e51b2020 	ldr	a3, [fp, #-32]
2000b200:	e0823003 	add	a4, a3, a4
2000b204:	e1a00003 	mov	a1, a4
2000b208:	eb000641 	bl	2000cb14 <printk>
2000b20c:	e3a03001 	mov	a4, #1
2000b210:	e50b301c 	str	a4, [fp, #-28]
2000b214:	e51b301c 	ldr	a4, [fp, #-28]
2000b218:	e1a00003 	mov	a1, a4
2000b21c:	e24bd00c 	sub	sp, fp, #12
2000b220:	e89da800 	ldm	sp, {fp, sp, pc}
2000b224:	00008624 	andeq	v5, a1, v1, lsr #12
2000b228:	fffff8d8 			; <UNDEFINED> instruction: 0xfffff8d8
2000b22c:	fffff8e8 			; <UNDEFINED> instruction: 0xfffff8e8
2000b230:	fffff8f4 			; <UNDEFINED> instruction: 0xfffff8f4

2000b234 <pthread_mutex_lock>:
2000b234:	e1a0c00d 	mov	ip, sp
2000b238:	e92dd800 	push	{fp, ip, lr, pc}
2000b23c:	e24cb004 	sub	fp, ip, #4
2000b240:	e24dd020 	sub	sp, sp, #32
2000b244:	e59f22b4 	ldr	a3, [pc, #692]	; 2000b500 <pthread_mutex_lock+0x2cc>
2000b248:	e50b2028 	str	a3, [fp, #-40]	; 0x28
2000b24c:	e51b3028 	ldr	a4, [fp, #-40]	; 0x28
2000b250:	e08f3003 	add	a4, pc, a4
2000b254:	e50b3028 	str	a4, [fp, #-40]	; 0x28
2000b258:	e50b0020 	str	a1, [fp, #-32]
2000b25c:	e51b3020 	ldr	a4, [fp, #-32]
2000b260:	e3530000 	cmp	a4, #0
2000b264:	1a000002 	bne	2000b274 <pthread_mutex_lock+0x40>
2000b268:	e3e02000 	mvn	a3, #0
2000b26c:	e50b2024 	str	a3, [fp, #-36]	; 0x24
2000b270:	ea00009e 	b	2000b4f0 <pthread_mutex_lock+0x2bc>
2000b274:	e59f3288 	ldr	a4, [pc, #648]	; 2000b504 <pthread_mutex_lock+0x2d0>
2000b278:	e51b2028 	ldr	a3, [fp, #-40]	; 0x28
2000b27c:	e7923003 	ldr	a4, [a3, a4]
2000b280:	e5933000 	ldr	a4, [a4]
2000b284:	e5933038 	ldr	a4, [a4, #56]	; 0x38
2000b288:	e50b3010 	str	a4, [fp, #-16]
2000b28c:	eb000b2b 	bl	2000df40 <vk_scheduler_lock>
2000b290:	e51b3010 	ldr	a4, [fp, #-16]
2000b294:	e3530000 	cmp	a4, #0
2000b298:	1a000000 	bne	2000b2a0 <pthread_mutex_lock+0x6c>
2000b29c:	ebfff939 	bl	20009788 <vk_disable_interrupt>
2000b2a0:	e51b3020 	ldr	a4, [fp, #-32]
2000b2a4:	e5933000 	ldr	a4, [a4]
2000b2a8:	e50b3018 	str	a4, [fp, #-24]
2000b2ac:	ea00006e 	b	2000b46c <pthread_mutex_lock+0x238>
2000b2b0:	e51b3018 	ldr	a4, [fp, #-24]
2000b2b4:	e593301c 	ldr	a4, [a4, #28]
2000b2b8:	e3530000 	cmp	a4, #0
2000b2bc:	1a000006 	bne	2000b2dc <pthread_mutex_lock+0xa8>
2000b2c0:	e59f323c 	ldr	a4, [pc, #572]	; 2000b504 <pthread_mutex_lock+0x2d0>
2000b2c4:	e51b2028 	ldr	a3, [fp, #-40]	; 0x28
2000b2c8:	e7923003 	ldr	a4, [a3, a4]
2000b2cc:	e5932000 	ldr	a3, [a4]
2000b2d0:	e51b3018 	ldr	a4, [fp, #-24]
2000b2d4:	e583201c 	str	a3, [a4, #28]
2000b2d8:	ea00001d 	b	2000b354 <pthread_mutex_lock+0x120>
2000b2dc:	e51b3018 	ldr	a4, [fp, #-24]
2000b2e0:	e5933020 	ldr	a4, [a4, #32]
2000b2e4:	e3530000 	cmp	a4, #0
2000b2e8:	1a000006 	bne	2000b308 <pthread_mutex_lock+0xd4>
2000b2ec:	e59f3210 	ldr	a4, [pc, #528]	; 2000b504 <pthread_mutex_lock+0x2d0>
2000b2f0:	e51b2028 	ldr	a3, [fp, #-40]	; 0x28
2000b2f4:	e7923003 	ldr	a4, [a3, a4]
2000b2f8:	e5932000 	ldr	a3, [a4]
2000b2fc:	e51b3018 	ldr	a4, [fp, #-24]
2000b300:	e5832020 	str	a3, [a4, #32]
2000b304:	ea000012 	b	2000b354 <pthread_mutex_lock+0x120>
2000b308:	e51b3018 	ldr	a4, [fp, #-24]
2000b30c:	e5933024 	ldr	a4, [a4, #36]	; 0x24
2000b310:	e3530000 	cmp	a4, #0
2000b314:	1a000006 	bne	2000b334 <pthread_mutex_lock+0x100>
2000b318:	e59f31e4 	ldr	a4, [pc, #484]	; 2000b504 <pthread_mutex_lock+0x2d0>
2000b31c:	e51b2028 	ldr	a3, [fp, #-40]	; 0x28
2000b320:	e7923003 	ldr	a4, [a3, a4]
2000b324:	e5932000 	ldr	a3, [a4]
2000b328:	e51b3018 	ldr	a4, [fp, #-24]
2000b32c:	e5832024 	str	a3, [a4, #36]	; 0x24
2000b330:	ea000007 	b	2000b354 <pthread_mutex_lock+0x120>
2000b334:	e59f31cc 	ldr	a4, [pc, #460]	; 2000b508 <pthread_mutex_lock+0x2d4>
2000b338:	e51b2028 	ldr	a3, [fp, #-40]	; 0x28
2000b33c:	e0823003 	add	a4, a3, a4
2000b340:	e1a00003 	mov	a1, a4
2000b344:	eb0005f2 	bl	2000cb14 <printk>
2000b348:	e3e03000 	mvn	a4, #0
2000b34c:	e50b3024 	str	a4, [fp, #-36]	; 0x24
2000b350:	ea000066 	b	2000b4f0 <pthread_mutex_lock+0x2bc>
2000b354:	e59f31a8 	ldr	a4, [pc, #424]	; 2000b504 <pthread_mutex_lock+0x2d0>
2000b358:	e51b2028 	ldr	a3, [fp, #-40]	; 0x28
2000b35c:	e7923003 	ldr	a4, [a3, a4]
2000b360:	e5932000 	ldr	a3, [a4]
2000b364:	e3a03002 	mov	a4, #2
2000b368:	e5823000 	str	a4, [a3]
2000b36c:	e59f3190 	ldr	a4, [pc, #400]	; 2000b504 <pthread_mutex_lock+0x2d0>
2000b370:	e51b2028 	ldr	a3, [fp, #-40]	; 0x28
2000b374:	e7923003 	ldr	a4, [a3, a4]
2000b378:	e5933000 	ldr	a4, [a4]
2000b37c:	e1a00003 	mov	a1, a4
2000b380:	e59f3184 	ldr	a4, [pc, #388]	; 2000b50c <pthread_mutex_lock+0x2d8>
2000b384:	e51b2028 	ldr	a3, [fp, #-40]	; 0x28
2000b388:	e7923003 	ldr	a4, [a3, a4]
2000b38c:	e1a01003 	mov	a2, a4
2000b390:	eb0007cf 	bl	2000d2d4 <vk_thread_dequeue>
2000b394:	e51b3018 	ldr	a4, [fp, #-24]
2000b398:	e5933014 	ldr	a4, [a4, #20]
2000b39c:	e2832001 	add	a3, a4, #1
2000b3a0:	e51b3018 	ldr	a4, [fp, #-24]
2000b3a4:	e5832014 	str	a3, [a4, #20]
2000b3a8:	e59f3154 	ldr	a4, [pc, #340]	; 2000b504 <pthread_mutex_lock+0x2d0>
2000b3ac:	e51b2028 	ldr	a3, [fp, #-40]	; 0x28
2000b3b0:	e7923003 	ldr	a4, [a3, a4]
2000b3b4:	e5933000 	ldr	a4, [a4]
2000b3b8:	e5932008 	ldr	a3, [a4, #8]
2000b3bc:	e51b3018 	ldr	a4, [fp, #-24]
2000b3c0:	e5933010 	ldr	a4, [a4, #16]
2000b3c4:	e1520003 	cmp	a3, a4
2000b3c8:	9a000006 	bls	2000b3e8 <pthread_mutex_lock+0x1b4>
2000b3cc:	e59f3130 	ldr	a4, [pc, #304]	; 2000b504 <pthread_mutex_lock+0x2d0>
2000b3d0:	e51b2028 	ldr	a3, [fp, #-40]	; 0x28
2000b3d4:	e7923003 	ldr	a4, [a3, a4]
2000b3d8:	e5933000 	ldr	a4, [a4]
2000b3dc:	e5932008 	ldr	a3, [a4, #8]
2000b3e0:	e51b3018 	ldr	a4, [fp, #-24]
2000b3e4:	e5832010 	str	a3, [a4, #16]
2000b3e8:	e51b3018 	ldr	a4, [fp, #-24]
2000b3ec:	e5933028 	ldr	a4, [a4, #40]	; 0x28
2000b3f0:	e3530000 	cmp	a4, #0
2000b3f4:	0a00001b 	beq	2000b468 <pthread_mutex_lock+0x234>
2000b3f8:	e51b3018 	ldr	a4, [fp, #-24]
2000b3fc:	e5933028 	ldr	a4, [a4, #40]	; 0x28
2000b400:	e5932008 	ldr	a3, [a4, #8]
2000b404:	e51b3018 	ldr	a4, [fp, #-24]
2000b408:	e5933010 	ldr	a4, [a4, #16]
2000b40c:	e1520003 	cmp	a3, a4
2000b410:	2a000014 	bcs	2000b468 <pthread_mutex_lock+0x234>
2000b414:	e51b3018 	ldr	a4, [fp, #-24]
2000b418:	e5933028 	ldr	a4, [a4, #40]	; 0x28
2000b41c:	e1a00003 	mov	a1, a4
2000b420:	e59f30e4 	ldr	a4, [pc, #228]	; 2000b50c <pthread_mutex_lock+0x2d8>
2000b424:	e51b2028 	ldr	a3, [fp, #-40]	; 0x28
2000b428:	e7923003 	ldr	a4, [a3, a4]
2000b42c:	e1a01003 	mov	a2, a4
2000b430:	eb0007a7 	bl	2000d2d4 <vk_thread_dequeue>
2000b434:	e51b3018 	ldr	a4, [fp, #-24]
2000b438:	e5932028 	ldr	a3, [a4, #40]	; 0x28
2000b43c:	e51b3018 	ldr	a4, [fp, #-24]
2000b440:	e5933010 	ldr	a4, [a4, #16]
2000b444:	e5823008 	str	a4, [a3, #8]
2000b448:	e51b3018 	ldr	a4, [fp, #-24]
2000b44c:	e5933028 	ldr	a4, [a4, #40]	; 0x28
2000b450:	e1a00003 	mov	a1, a4
2000b454:	e59f30b0 	ldr	a4, [pc, #176]	; 2000b50c <pthread_mutex_lock+0x2d8>
2000b458:	e51b2028 	ldr	a3, [fp, #-40]	; 0x28
2000b45c:	e7923003 	ldr	a4, [a3, a4]
2000b460:	e1a01003 	mov	a2, a4
2000b464:	eb00072c 	bl	2000d11c <vk_thread_enqueue>
2000b468:	ebfff8db 	bl	200097dc <vk_swi_scheduler>
2000b46c:	e51b3018 	ldr	a4, [fp, #-24]
2000b470:	e5933018 	ldr	a4, [a4, #24]
2000b474:	e3530000 	cmp	a4, #0
2000b478:	0affff8c 	beq	2000b2b0 <pthread_mutex_lock+0x7c>
2000b47c:	e51b3018 	ldr	a4, [fp, #-24]
2000b480:	e3a02000 	mov	a3, #0
2000b484:	e5832018 	str	a3, [a4, #24]
2000b488:	e3a03000 	mov	a4, #0
2000b48c:	e50b3014 	str	a4, [fp, #-20]
2000b490:	ea00000c 	b	2000b4c8 <pthread_mutex_lock+0x294>
2000b494:	e51b3018 	ldr	a4, [fp, #-24]
2000b498:	e5933028 	ldr	a4, [a4, #40]	; 0x28
2000b49c:	e3530000 	cmp	a4, #0
2000b4a0:	1a000005 	bne	2000b4bc <pthread_mutex_lock+0x288>
2000b4a4:	e59f3058 	ldr	a4, [pc, #88]	; 2000b504 <pthread_mutex_lock+0x2d0>
2000b4a8:	e51b2028 	ldr	a3, [fp, #-40]	; 0x28
2000b4ac:	e7923003 	ldr	a4, [a3, a4]
2000b4b0:	e5932000 	ldr	a3, [a4]
2000b4b4:	e51b3018 	ldr	a4, [fp, #-24]
2000b4b8:	e5832028 	str	a3, [a4, #40]	; 0x28
2000b4bc:	e51b3014 	ldr	a4, [fp, #-20]
2000b4c0:	e2833001 	add	a4, a4, #1
2000b4c4:	e50b3014 	str	a4, [fp, #-20]
2000b4c8:	e51b3014 	ldr	a4, [fp, #-20]
2000b4cc:	e3530002 	cmp	a4, #2
2000b4d0:	9affffef 	bls	2000b494 <pthread_mutex_lock+0x260>
2000b4d4:	e51b3010 	ldr	a4, [fp, #-16]
2000b4d8:	e3530000 	cmp	a4, #0
2000b4dc:	1a000000 	bne	2000b4e4 <pthread_mutex_lock+0x2b0>
2000b4e0:	ebfff893 	bl	20009734 <vk_enable_interrupt>
2000b4e4:	eb000aaf 	bl	2000dfa8 <vk_scheduler_unlock>
2000b4e8:	e3a03000 	mov	a4, #0
2000b4ec:	e50b3024 	str	a4, [fp, #-36]	; 0x24
2000b4f0:	e51b3024 	ldr	a4, [fp, #-36]	; 0x24
2000b4f4:	e1a00003 	mov	a1, a4
2000b4f8:	e24bd00c 	sub	sp, fp, #12
2000b4fc:	e89da800 	ldm	sp, {fp, sp, pc}
2000b500:	00008540 	andeq	v5, a1, a1, asr #10
2000b504:	000000a4 	andeq	a1, a1, v1, lsr #1
2000b508:	fffff94c 			; <UNDEFINED> instruction: 0xfffff94c
2000b50c:	00000074 	andeq	a1, a1, v1, ror a1

2000b510 <pthread_mutex_trylock>:
2000b510:	e1a0c00d 	mov	ip, sp
2000b514:	e92dd800 	push	{fp, ip, lr, pc}
2000b518:	e24cb004 	sub	fp, ip, #4
2000b51c:	e24dd010 	sub	sp, sp, #16
2000b520:	e50b0018 	str	a1, [fp, #-24]
2000b524:	ebfff897 	bl	20009788 <vk_disable_interrupt>
2000b528:	e51b3018 	ldr	a4, [fp, #-24]
2000b52c:	e5933000 	ldr	a4, [a4]
2000b530:	e50b3014 	str	a4, [fp, #-20]
2000b534:	e51b3014 	ldr	a4, [fp, #-20]
2000b538:	e5933018 	ldr	a4, [a4, #24]
2000b53c:	e3530001 	cmp	a4, #1
2000b540:	1a000006 	bne	2000b560 <pthread_mutex_trylock+0x50>
2000b544:	e51b0018 	ldr	a1, [fp, #-24]
2000b548:	ebffff39 	bl	2000b234 <pthread_mutex_lock>
2000b54c:	e1a03000 	mov	a4, a1
2000b550:	e50b3010 	str	a4, [fp, #-16]
2000b554:	e51b3010 	ldr	a4, [fp, #-16]
2000b558:	e50b301c 	str	a4, [fp, #-28]
2000b55c:	ea000002 	b	2000b56c <pthread_mutex_trylock+0x5c>
2000b560:	ebfff873 	bl	20009734 <vk_enable_interrupt>
2000b564:	e3e03000 	mvn	a4, #0
2000b568:	e50b301c 	str	a4, [fp, #-28]
2000b56c:	e51b301c 	ldr	a4, [fp, #-28]
2000b570:	e1a00003 	mov	a1, a4
2000b574:	e24bd00c 	sub	sp, fp, #12
2000b578:	e89da800 	ldm	sp, {fp, sp, pc}

2000b57c <pthread_mutex_unlock>:
2000b57c:	e1a0c00d 	mov	ip, sp
2000b580:	e92dd800 	push	{fp, ip, lr, pc}
2000b584:	e24cb004 	sub	fp, ip, #4
2000b588:	e24dd020 	sub	sp, sp, #32
2000b58c:	e59f12a4 	ldr	a2, [pc, #676]	; 2000b838 <pthread_mutex_unlock+0x2bc>
2000b590:	e50b1028 	str	a2, [fp, #-40]	; 0x28
2000b594:	e51b2028 	ldr	a3, [fp, #-40]	; 0x28
2000b598:	e08f2002 	add	a3, pc, a3
2000b59c:	e50b2028 	str	a3, [fp, #-40]	; 0x28
2000b5a0:	e50b0020 	str	a1, [fp, #-32]
2000b5a4:	e51b3020 	ldr	a4, [fp, #-32]
2000b5a8:	e3530000 	cmp	a4, #0
2000b5ac:	1a000002 	bne	2000b5bc <pthread_mutex_unlock+0x40>
2000b5b0:	e3e03000 	mvn	a4, #0
2000b5b4:	e50b3024 	str	a4, [fp, #-36]	; 0x24
2000b5b8:	ea00009a 	b	2000b828 <pthread_mutex_unlock+0x2ac>
2000b5bc:	e59f3278 	ldr	a4, [pc, #632]	; 2000b83c <pthread_mutex_unlock+0x2c0>
2000b5c0:	e51b1028 	ldr	a2, [fp, #-40]	; 0x28
2000b5c4:	e7913003 	ldr	a4, [a2, a4]
2000b5c8:	e5933000 	ldr	a4, [a4]
2000b5cc:	e5933038 	ldr	a4, [a4, #56]	; 0x38
2000b5d0:	e50b3010 	str	a4, [fp, #-16]
2000b5d4:	eb000a59 	bl	2000df40 <vk_scheduler_lock>
2000b5d8:	e51b3020 	ldr	a4, [fp, #-32]
2000b5dc:	e5933000 	ldr	a4, [a4]
2000b5e0:	e50b3018 	str	a4, [fp, #-24]
2000b5e4:	e51b3018 	ldr	a4, [fp, #-24]
2000b5e8:	e5932028 	ldr	a3, [a4, #40]	; 0x28
2000b5ec:	e59f3248 	ldr	a4, [pc, #584]	; 2000b83c <pthread_mutex_unlock+0x2c0>
2000b5f0:	e51b1028 	ldr	a2, [fp, #-40]	; 0x28
2000b5f4:	e7913003 	ldr	a4, [a2, a4]
2000b5f8:	e5933000 	ldr	a4, [a4]
2000b5fc:	e1520003 	cmp	a3, a4
2000b600:	0a000002 	beq	2000b610 <pthread_mutex_unlock+0x94>
2000b604:	e3e02000 	mvn	a3, #0
2000b608:	e50b2024 	str	a3, [fp, #-36]	; 0x24
2000b60c:	ea000085 	b	2000b828 <pthread_mutex_unlock+0x2ac>
2000b610:	e51b3018 	ldr	a4, [fp, #-24]
2000b614:	e593301c 	ldr	a4, [a4, #28]
2000b618:	e3530000 	cmp	a4, #0
2000b61c:	0a00000e 	beq	2000b65c <pthread_mutex_unlock+0xe0>
2000b620:	e51b3018 	ldr	a4, [fp, #-24]
2000b624:	e593201c 	ldr	a3, [a4, #28]
2000b628:	e3a03001 	mov	a4, #1
2000b62c:	e5823000 	str	a4, [a3]
2000b630:	e51b3018 	ldr	a4, [fp, #-24]
2000b634:	e593301c 	ldr	a4, [a4, #28]
2000b638:	e1a00003 	mov	a1, a4
2000b63c:	e59f31fc 	ldr	a4, [pc, #508]	; 2000b840 <pthread_mutex_unlock+0x2c4>
2000b640:	e51b1028 	ldr	a2, [fp, #-40]	; 0x28
2000b644:	e7913003 	ldr	a4, [a2, a4]
2000b648:	e1a01003 	mov	a2, a4
2000b64c:	eb0006b2 	bl	2000d11c <vk_thread_enqueue>
2000b650:	e51b2018 	ldr	a3, [fp, #-24]
2000b654:	e3a03000 	mov	a4, #0
2000b658:	e582301c 	str	a4, [a3, #28]
2000b65c:	e51b3018 	ldr	a4, [fp, #-24]
2000b660:	e5933020 	ldr	a4, [a4, #32]
2000b664:	e3530000 	cmp	a4, #0
2000b668:	0a00000e 	beq	2000b6a8 <pthread_mutex_unlock+0x12c>
2000b66c:	e51b3018 	ldr	a4, [fp, #-24]
2000b670:	e593201c 	ldr	a3, [a4, #28]
2000b674:	e3a03001 	mov	a4, #1
2000b678:	e5823000 	str	a4, [a3]
2000b67c:	e51b3018 	ldr	a4, [fp, #-24]
2000b680:	e5933020 	ldr	a4, [a4, #32]
2000b684:	e1a00003 	mov	a1, a4
2000b688:	e59f31b0 	ldr	a4, [pc, #432]	; 2000b840 <pthread_mutex_unlock+0x2c4>
2000b68c:	e51b2028 	ldr	a3, [fp, #-40]	; 0x28
2000b690:	e7923003 	ldr	a4, [a3, a4]
2000b694:	e1a01003 	mov	a2, a4
2000b698:	eb00069f 	bl	2000d11c <vk_thread_enqueue>
2000b69c:	e51b2018 	ldr	a3, [fp, #-24]
2000b6a0:	e3a03000 	mov	a4, #0
2000b6a4:	e5823020 	str	a4, [a3, #32]
2000b6a8:	e51b3018 	ldr	a4, [fp, #-24]
2000b6ac:	e5933024 	ldr	a4, [a4, #36]	; 0x24
2000b6b0:	e3530000 	cmp	a4, #0
2000b6b4:	0a00000e 	beq	2000b6f4 <pthread_mutex_unlock+0x178>
2000b6b8:	e51b3018 	ldr	a4, [fp, #-24]
2000b6bc:	e593201c 	ldr	a3, [a4, #28]
2000b6c0:	e3a03001 	mov	a4, #1
2000b6c4:	e5823000 	str	a4, [a3]
2000b6c8:	e51b3018 	ldr	a4, [fp, #-24]
2000b6cc:	e5933024 	ldr	a4, [a4, #36]	; 0x24
2000b6d0:	e1a00003 	mov	a1, a4
2000b6d4:	e59f3164 	ldr	a4, [pc, #356]	; 2000b840 <pthread_mutex_unlock+0x2c4>
2000b6d8:	e51b1028 	ldr	a2, [fp, #-40]	; 0x28
2000b6dc:	e7913003 	ldr	a4, [a2, a4]
2000b6e0:	e1a01003 	mov	a2, a4
2000b6e4:	eb00068c 	bl	2000d11c <vk_thread_enqueue>
2000b6e8:	e51b2018 	ldr	a3, [fp, #-24]
2000b6ec:	e3a03000 	mov	a4, #0
2000b6f0:	e5823024 	str	a4, [a3, #36]	; 0x24
2000b6f4:	e51b2018 	ldr	a3, [fp, #-24]
2000b6f8:	e3a03000 	mov	a4, #0
2000b6fc:	e5823014 	str	a4, [a3, #20]
2000b700:	e59f3134 	ldr	a4, [pc, #308]	; 2000b83c <pthread_mutex_unlock+0x2c0>
2000b704:	e51b2028 	ldr	a3, [fp, #-40]	; 0x28
2000b708:	e7923003 	ldr	a4, [a3, a4]
2000b70c:	e5933000 	ldr	a4, [a4]
2000b710:	e5932008 	ldr	a3, [a4, #8]
2000b714:	e59f3120 	ldr	a4, [pc, #288]	; 2000b83c <pthread_mutex_unlock+0x2c0>
2000b718:	e51b1028 	ldr	a2, [fp, #-40]	; 0x28
2000b71c:	e7913003 	ldr	a4, [a2, a4]
2000b720:	e5933000 	ldr	a4, [a4]
2000b724:	e593300c 	ldr	a4, [a4, #12]
2000b728:	e1520003 	cmp	a3, a4
2000b72c:	0a000022 	beq	2000b7bc <pthread_mutex_unlock+0x240>
2000b730:	e59f3104 	ldr	a4, [pc, #260]	; 2000b83c <pthread_mutex_unlock+0x2c0>
2000b734:	e51b2028 	ldr	a3, [fp, #-40]	; 0x28
2000b738:	e7923003 	ldr	a4, [a3, a4]
2000b73c:	e5933000 	ldr	a4, [a4]
2000b740:	e1a00003 	mov	a1, a4
2000b744:	e59f30f4 	ldr	a4, [pc, #244]	; 2000b840 <pthread_mutex_unlock+0x2c4>
2000b748:	e51b1028 	ldr	a2, [fp, #-40]	; 0x28
2000b74c:	e7913003 	ldr	a4, [a2, a4]
2000b750:	e1a01003 	mov	a2, a4
2000b754:	eb0006de 	bl	2000d2d4 <vk_thread_dequeue>
2000b758:	e1a03000 	mov	a4, a1
2000b75c:	e50b3014 	str	a4, [fp, #-20]
2000b760:	e59f30d4 	ldr	a4, [pc, #212]	; 2000b83c <pthread_mutex_unlock+0x2c0>
2000b764:	e51b2028 	ldr	a3, [fp, #-40]	; 0x28
2000b768:	e7923003 	ldr	a4, [a3, a4]
2000b76c:	e5932000 	ldr	a3, [a4]
2000b770:	e59f30c4 	ldr	a4, [pc, #196]	; 2000b83c <pthread_mutex_unlock+0x2c0>
2000b774:	e51b1028 	ldr	a2, [fp, #-40]	; 0x28
2000b778:	e7913003 	ldr	a4, [a2, a4]
2000b77c:	e5933000 	ldr	a4, [a4]
2000b780:	e593300c 	ldr	a4, [a4, #12]
2000b784:	e5823008 	str	a4, [a3, #8]
2000b788:	e51b3014 	ldr	a4, [fp, #-20]
2000b78c:	e3530000 	cmp	a4, #0
2000b790:	0a000009 	beq	2000b7bc <pthread_mutex_unlock+0x240>
2000b794:	e59f30a0 	ldr	a4, [pc, #160]	; 2000b83c <pthread_mutex_unlock+0x2c0>
2000b798:	e51b2028 	ldr	a3, [fp, #-40]	; 0x28
2000b79c:	e7923003 	ldr	a4, [a3, a4]
2000b7a0:	e5933000 	ldr	a4, [a4]
2000b7a4:	e1a00003 	mov	a1, a4
2000b7a8:	e59f3090 	ldr	a4, [pc, #144]	; 2000b840 <pthread_mutex_unlock+0x2c4>
2000b7ac:	e51b1028 	ldr	a2, [fp, #-40]	; 0x28
2000b7b0:	e7913003 	ldr	a4, [a2, a4]
2000b7b4:	e1a01003 	mov	a2, a4
2000b7b8:	eb000657 	bl	2000d11c <vk_thread_enqueue>
2000b7bc:	e51b3018 	ldr	a4, [fp, #-24]
2000b7c0:	e3a02001 	mov	a3, #1
2000b7c4:	e5832018 	str	a3, [a4, #24]
2000b7c8:	e3a03000 	mov	a4, #0
2000b7cc:	e50b301c 	str	a4, [fp, #-28]
2000b7d0:	ea00000d 	b	2000b80c <pthread_mutex_unlock+0x290>
2000b7d4:	e51b3018 	ldr	a4, [fp, #-24]
2000b7d8:	e5932028 	ldr	a3, [a4, #40]	; 0x28
2000b7dc:	e59f3058 	ldr	a4, [pc, #88]	; 2000b83c <pthread_mutex_unlock+0x2c0>
2000b7e0:	e51b1028 	ldr	a2, [fp, #-40]	; 0x28
2000b7e4:	e7913003 	ldr	a4, [a2, a4]
2000b7e8:	e5933000 	ldr	a4, [a4]
2000b7ec:	e1520003 	cmp	a3, a4
2000b7f0:	1a000002 	bne	2000b800 <pthread_mutex_unlock+0x284>
2000b7f4:	e51b2018 	ldr	a3, [fp, #-24]
2000b7f8:	e3a03000 	mov	a4, #0
2000b7fc:	e5823028 	str	a4, [a3, #40]	; 0x28
2000b800:	e51b301c 	ldr	a4, [fp, #-28]
2000b804:	e2833001 	add	a4, a4, #1
2000b808:	e50b301c 	str	a4, [fp, #-28]
2000b80c:	e51b301c 	ldr	a4, [fp, #-28]
2000b810:	e3530002 	cmp	a4, #2
2000b814:	9affffee 	bls	2000b7d4 <pthread_mutex_unlock+0x258>
2000b818:	eb0009e2 	bl	2000dfa8 <vk_scheduler_unlock>
2000b81c:	ebfff7ee 	bl	200097dc <vk_swi_scheduler>
2000b820:	e3a02000 	mov	a3, #0
2000b824:	e50b2024 	str	a3, [fp, #-36]	; 0x24
2000b828:	e51b3024 	ldr	a4, [fp, #-36]	; 0x24
2000b82c:	e1a00003 	mov	a1, a4
2000b830:	e24bd00c 	sub	sp, fp, #12
2000b834:	e89da800 	ldm	sp, {fp, sp, pc}
2000b838:	000081f8 	strdeq	v5, [a1], -v5	; <UNPREDICTABLE>
2000b83c:	000000a4 	andeq	a1, a1, v1, lsr #1
2000b840:	00000074 	andeq	a1, a1, v1, ror a1

2000b844 <parse_args>:
2000b844:	e1a0c00d 	mov	ip, sp
2000b848:	e92dd800 	push	{fp, ip, lr, pc}
2000b84c:	e24cb004 	sub	fp, ip, #4
2000b850:	e24dd018 	sub	sp, sp, #24
2000b854:	e59f20b8 	ldr	a3, [pc, #184]	; 2000b914 <parse_args+0xd0>
2000b858:	e50b2020 	str	a3, [fp, #-32]
2000b85c:	e51b3020 	ldr	a4, [fp, #-32]
2000b860:	e08f3003 	add	a4, pc, a4
2000b864:	e50b3020 	str	a4, [fp, #-32]
2000b868:	e50b0018 	str	a1, [fp, #-24]
2000b86c:	e50b101c 	str	a2, [fp, #-28]
2000b870:	e3a03000 	mov	a4, #0
2000b874:	e50b3010 	str	a4, [fp, #-16]
2000b878:	e51b3010 	ldr	a4, [fp, #-16]
2000b87c:	e1a02103 	lsl	a3, a4, #2
2000b880:	e51b301c 	ldr	a4, [fp, #-28]
2000b884:	e0832002 	add	a3, a4, a3
2000b888:	e3a03000 	mov	a4, #0
2000b88c:	e5823000 	str	a4, [a3]
2000b890:	e51b0018 	ldr	a1, [fp, #-24]
2000b894:	e59f307c 	ldr	a4, [pc, #124]	; 2000b918 <parse_args+0xd4>
2000b898:	e51b2020 	ldr	a3, [fp, #-32]
2000b89c:	e7923003 	ldr	a4, [a3, a4]
2000b8a0:	e1a01003 	mov	a2, a4
2000b8a4:	eb00141f 	bl	20010928 <strtok>
2000b8a8:	e1a03000 	mov	a4, a1
2000b8ac:	e50b3014 	str	a4, [fp, #-20]
2000b8b0:	ea000010 	b	2000b8f8 <parse_args+0xb4>
2000b8b4:	e51b3010 	ldr	a4, [fp, #-16]
2000b8b8:	e1a02103 	lsl	a3, a4, #2
2000b8bc:	e51b301c 	ldr	a4, [fp, #-28]
2000b8c0:	e0832002 	add	a3, a4, a3
2000b8c4:	e51b3014 	ldr	a4, [fp, #-20]
2000b8c8:	e5823000 	str	a4, [a3]
2000b8cc:	e51b3010 	ldr	a4, [fp, #-16]
2000b8d0:	e2833001 	add	a4, a4, #1
2000b8d4:	e50b3010 	str	a4, [fp, #-16]
2000b8d8:	e3a00000 	mov	a1, #0
2000b8dc:	e59f3034 	ldr	a4, [pc, #52]	; 2000b918 <parse_args+0xd4>
2000b8e0:	e51b2020 	ldr	a3, [fp, #-32]
2000b8e4:	e7923003 	ldr	a4, [a3, a4]
2000b8e8:	e1a01003 	mov	a2, a4
2000b8ec:	eb00140d 	bl	20010928 <strtok>
2000b8f0:	e1a03000 	mov	a4, a1
2000b8f4:	e50b3014 	str	a4, [fp, #-20]
2000b8f8:	e51b3014 	ldr	a4, [fp, #-20]
2000b8fc:	e3530000 	cmp	a4, #0
2000b900:	1affffeb 	bne	2000b8b4 <parse_args+0x70>
2000b904:	e51b3010 	ldr	a4, [fp, #-16]
2000b908:	e1a00003 	mov	a1, a4
2000b90c:	e24bd00c 	sub	sp, fp, #12
2000b910:	e89da800 	ldm	sp, {fp, sp, pc}
2000b914:	00007f30 	andeq	v4, a1, a1, lsr pc
2000b918:	0000000c 	andeq	a1, a1, ip

2000b91c <skip_atoi>:
2000b91c:	e1a0c00d 	mov	ip, sp
2000b920:	e92dd800 	push	{fp, ip, lr, pc}
2000b924:	e24cb004 	sub	fp, ip, #4
2000b928:	e24dd010 	sub	sp, sp, #16
2000b92c:	e59f108c 	ldr	a2, [pc, #140]	; 2000b9c0 <skip_atoi+0xa4>
2000b930:	e50b101c 	str	a2, [fp, #-28]
2000b934:	e51b301c 	ldr	a4, [fp, #-28]
2000b938:	e08f3003 	add	a4, pc, a4
2000b93c:	e50b301c 	str	a4, [fp, #-28]
2000b940:	e50b0018 	str	a1, [fp, #-24]
2000b944:	e3a03000 	mov	a4, #0
2000b948:	e50b3010 	str	a4, [fp, #-16]
2000b94c:	ea00000c 	b	2000b984 <skip_atoi+0x68>
2000b950:	e51b3010 	ldr	a4, [fp, #-16]
2000b954:	e1a02083 	lsl	a3, a4, #1
2000b958:	e1a03102 	lsl	a4, a3, #2
2000b95c:	e0822003 	add	a3, a3, a4
2000b960:	e51b3018 	ldr	a4, [fp, #-24]
2000b964:	e5931000 	ldr	a2, [a4]
2000b968:	e5d13000 	ldrb	a4, [a2]
2000b96c:	e0823003 	add	a4, a3, a4
2000b970:	e2433030 	sub	a4, a4, #48	; 0x30
2000b974:	e50b3010 	str	a4, [fp, #-16]
2000b978:	e2812001 	add	a3, a2, #1
2000b97c:	e51b3018 	ldr	a4, [fp, #-24]
2000b980:	e5832000 	str	a3, [a4]
2000b984:	e51b3018 	ldr	a4, [fp, #-24]
2000b988:	e5933000 	ldr	a4, [a4]
2000b98c:	e5d33000 	ldrb	a4, [a4]
2000b990:	e1a02003 	mov	a3, a4
2000b994:	e59f3028 	ldr	a4, [pc, #40]	; 2000b9c4 <skip_atoi+0xa8>
2000b998:	e51b101c 	ldr	a2, [fp, #-28]
2000b99c:	e7913003 	ldr	a4, [a2, a4]
2000b9a0:	e7d33002 	ldrb	a4, [a4, a3]
2000b9a4:	e2033004 	and	a4, a4, #4
2000b9a8:	e3530000 	cmp	a4, #0
2000b9ac:	1affffe7 	bne	2000b950 <skip_atoi+0x34>
2000b9b0:	e51b3010 	ldr	a4, [fp, #-16]
2000b9b4:	e1a00003 	mov	a1, a4
2000b9b8:	e24bd00c 	sub	sp, fp, #12
2000b9bc:	e89da800 	ldm	sp, {fp, sp, pc}
2000b9c0:	00007e58 	andeq	v4, a1, v5, asr lr
2000b9c4:	00000064 	andeq	a1, a1, v1, rrx

2000b9c8 <number>:
2000b9c8:	e1a0c00d 	mov	ip, sp
2000b9cc:	e92dd830 	push	{v1, v2, fp, ip, lr, pc}
2000b9d0:	e24cb004 	sub	fp, ip, #4
2000b9d4:	e24dd0c0 	sub	sp, sp, #192	; 0xc0
2000b9d8:	e59f45c0 	ldr	v1, [pc, #1472]	; 2000bfa0 <number+0x5d8>
2000b9dc:	e08f4004 	add	v1, pc, v1
2000b9e0:	e50b00b8 	str	a1, [fp, #-184]	; 0xb8
2000b9e4:	e50b10bc 	str	a2, [fp, #-188]	; 0xbc
2000b9e8:	e50b20c4 	str	a3, [fp, #-196]	; 0xc4
2000b9ec:	e50b30c0 	str	a4, [fp, #-192]	; 0xc0
2000b9f0:	e59f35ac 	ldr	a4, [pc, #1452]	; 2000bfa4 <number+0x5dc>
2000b9f4:	e0843003 	add	a4, v1, a4
2000b9f8:	e24b2089 	sub	a3, fp, #137	; 0x89
2000b9fc:	e3a0c025 	mov	ip, #37	; 0x25
2000ba00:	e1a00002 	mov	a1, a3
2000ba04:	e1a01003 	mov	a2, a4
2000ba08:	e1a0200c 	mov	a3, ip
2000ba0c:	eb001b9f 	bl	20012890 <memcpy>
2000ba10:	e59f3590 	ldr	a4, [pc, #1424]	; 2000bfa8 <number+0x5e0>
2000ba14:	e0843003 	add	a4, v1, a4
2000ba18:	e24b20ae 	sub	a3, fp, #174	; 0xae
2000ba1c:	e3a0c025 	mov	ip, #37	; 0x25
2000ba20:	e1a00002 	mov	a1, a3
2000ba24:	e1a01003 	mov	a2, a4
2000ba28:	e1a0200c 	mov	a3, ip
2000ba2c:	eb001b97 	bl	20012890 <memcpy>
2000ba30:	e59b3010 	ldr	a4, [fp, #16]
2000ba34:	e2033040 	and	a4, a4, #64	; 0x40
2000ba38:	e3530000 	cmp	a4, #0
2000ba3c:	0a000002 	beq	2000ba4c <number+0x84>
2000ba40:	e24b00ae 	sub	a1, fp, #174	; 0xae
2000ba44:	e50b00d0 	str	a1, [fp, #-208]	; 0xd0
2000ba48:	ea000001 	b	2000ba54 <number+0x8c>
2000ba4c:	e24b1089 	sub	a2, fp, #137	; 0x89
2000ba50:	e50b10d0 	str	a2, [fp, #-208]	; 0xd0
2000ba54:	e51b20d0 	ldr	a3, [fp, #-208]	; 0xd0
2000ba58:	e50b2020 	str	a3, [fp, #-32]
2000ba5c:	e59b3010 	ldr	a4, [fp, #16]
2000ba60:	e2033010 	and	a4, a4, #16
2000ba64:	e3530000 	cmp	a4, #0
2000ba68:	0a000002 	beq	2000ba78 <number+0xb0>
2000ba6c:	e59b3010 	ldr	a4, [fp, #16]
2000ba70:	e3c33001 	bic	a4, a4, #1
2000ba74:	e58b3010 	str	a4, [fp, #16]
2000ba78:	e59b3004 	ldr	a4, [fp, #4]
2000ba7c:	e3530001 	cmp	a4, #1
2000ba80:	da000002 	ble	2000ba90 <number+0xc8>
2000ba84:	e59b3004 	ldr	a4, [fp, #4]
2000ba88:	e3530024 	cmp	a4, #36	; 0x24
2000ba8c:	da000002 	ble	2000ba9c <number+0xd4>
2000ba90:	e3a03000 	mov	a4, #0
2000ba94:	e50b30cc 	str	a4, [fp, #-204]	; 0xcc
2000ba98:	ea00013c 	b	2000bf90 <number+0x5c8>
2000ba9c:	e59b3010 	ldr	a4, [fp, #16]
2000baa0:	e2033001 	and	a4, a4, #1
2000baa4:	e20330ff 	and	a4, a4, #255	; 0xff
2000baa8:	e3530000 	cmp	a4, #0
2000baac:	0a000002 	beq	2000babc <number+0xf4>
2000bab0:	e3a00030 	mov	a1, #48	; 0x30
2000bab4:	e50b00c8 	str	a1, [fp, #-200]	; 0xc8
2000bab8:	ea000001 	b	2000bac4 <number+0xfc>
2000babc:	e3a01020 	mov	a2, #32
2000bac0:	e50b10c8 	str	a2, [fp, #-200]	; 0xc8
2000bac4:	e51b20c8 	ldr	a3, [fp, #-200]	; 0xc8
2000bac8:	e1a03002 	mov	a4, a3
2000bacc:	e54b3022 	strb	a4, [fp, #-34]	; 0x22
2000bad0:	e3a03000 	mov	a4, #0
2000bad4:	e54b3021 	strb	a4, [fp, #-33]	; 0x21
2000bad8:	e59b3010 	ldr	a4, [fp, #16]
2000badc:	e2033002 	and	a4, a4, #2
2000bae0:	e3530000 	cmp	a4, #0
2000bae4:	0a000027 	beq	2000bb88 <number+0x1c0>
2000bae8:	e51b30c0 	ldr	a4, [fp, #-192]	; 0xc0
2000baec:	e3530000 	cmp	a4, #0
2000baf0:	ba000005 	blt	2000bb0c <number+0x144>
2000baf4:	e51b30c0 	ldr	a4, [fp, #-192]	; 0xc0
2000baf8:	e3530000 	cmp	a4, #0
2000bafc:	1a00000e 	bne	2000bb3c <number+0x174>
2000bb00:	e51b30c4 	ldr	a4, [fp, #-196]	; 0xc4
2000bb04:	e3530000 	cmp	a4, #0
2000bb08:	ea00000b 	b	2000bb3c <number+0x174>
2000bb0c:	e3a0302d 	mov	a4, #45	; 0x2d
2000bb10:	e54b3021 	strb	a4, [fp, #-33]	; 0x21
2000bb14:	e24b30c4 	sub	a4, fp, #196	; 0xc4
2000bb18:	e8930018 	ldm	a4, {a4, v1}
2000bb1c:	e2733000 	rsbs	a4, a4, #0
2000bb20:	e2e44000 	rsc	v1, v1, #0
2000bb24:	e50b30c4 	str	a4, [fp, #-196]	; 0xc4
2000bb28:	e50b40c0 	str	v1, [fp, #-192]	; 0xc0
2000bb2c:	e59b3008 	ldr	a4, [fp, #8]
2000bb30:	e2433001 	sub	a4, a4, #1
2000bb34:	e58b3008 	str	a4, [fp, #8]
2000bb38:	ea000012 	b	2000bb88 <number+0x1c0>
2000bb3c:	e59b3010 	ldr	a4, [fp, #16]
2000bb40:	e2033004 	and	a4, a4, #4
2000bb44:	e3530000 	cmp	a4, #0
2000bb48:	0a000005 	beq	2000bb64 <number+0x19c>
2000bb4c:	e3a0302b 	mov	a4, #43	; 0x2b
2000bb50:	e54b3021 	strb	a4, [fp, #-33]	; 0x21
2000bb54:	e59b3008 	ldr	a4, [fp, #8]
2000bb58:	e2433001 	sub	a4, a4, #1
2000bb5c:	e58b3008 	str	a4, [fp, #8]
2000bb60:	ea000008 	b	2000bb88 <number+0x1c0>
2000bb64:	e59b3010 	ldr	a4, [fp, #16]
2000bb68:	e2033008 	and	a4, a4, #8
2000bb6c:	e3530000 	cmp	a4, #0
2000bb70:	0a000004 	beq	2000bb88 <number+0x1c0>
2000bb74:	e3a03020 	mov	a4, #32
2000bb78:	e54b3021 	strb	a4, [fp, #-33]	; 0x21
2000bb7c:	e59b3008 	ldr	a4, [fp, #8]
2000bb80:	e2433001 	sub	a4, a4, #1
2000bb84:	e58b3008 	str	a4, [fp, #8]
2000bb88:	e59b3010 	ldr	a4, [fp, #16]
2000bb8c:	e2033020 	and	a4, a4, #32
2000bb90:	e3530000 	cmp	a4, #0
2000bb94:	0a00000c 	beq	2000bbcc <number+0x204>
2000bb98:	e59b3004 	ldr	a4, [fp, #4]
2000bb9c:	e3530010 	cmp	a4, #16
2000bba0:	1a000003 	bne	2000bbb4 <number+0x1ec>
2000bba4:	e59b3008 	ldr	a4, [fp, #8]
2000bba8:	e2433002 	sub	a4, a4, #2
2000bbac:	e58b3008 	str	a4, [fp, #8]
2000bbb0:	ea000005 	b	2000bbcc <number+0x204>
2000bbb4:	e59b3004 	ldr	a4, [fp, #4]
2000bbb8:	e3530008 	cmp	a4, #8
2000bbbc:	1a000002 	bne	2000bbcc <number+0x204>
2000bbc0:	e59b3008 	ldr	a4, [fp, #8]
2000bbc4:	e2433001 	sub	a4, a4, #1
2000bbc8:	e58b3008 	str	a4, [fp, #8]
2000bbcc:	e3a03000 	mov	a4, #0
2000bbd0:	e50b301c 	str	a4, [fp, #-28]
2000bbd4:	e51b30c4 	ldr	a4, [fp, #-196]	; 0xc4
2000bbd8:	e51b20c0 	ldr	a3, [fp, #-192]	; 0xc0
2000bbdc:	e1833002 	orr	a4, a4, a3
2000bbe0:	e3530000 	cmp	a4, #0
2000bbe4:	1a000029 	bne	2000bc90 <number+0x2c8>
2000bbe8:	e51b301c 	ldr	a4, [fp, #-28]
2000bbec:	e3e0204f 	mvn	a3, #79	; 0x4f
2000bbf0:	e24b0014 	sub	a1, fp, #20
2000bbf4:	e0803003 	add	a4, a1, a4
2000bbf8:	e0832002 	add	a3, a4, a3
2000bbfc:	e3a03030 	mov	a4, #48	; 0x30
2000bc00:	e5c23000 	strb	a4, [a3]
2000bc04:	e51b301c 	ldr	a4, [fp, #-28]
2000bc08:	e2833001 	add	a4, a4, #1
2000bc0c:	e50b301c 	str	a4, [fp, #-28]
2000bc10:	ea000023 	b	2000bca4 <number+0x2dc>
2000bc14:	e51b501c 	ldr	v2, [fp, #-28]
2000bc18:	e51b30c4 	ldr	a4, [fp, #-196]	; 0xc4
2000bc1c:	e59b2004 	ldr	a3, [fp, #4]
2000bc20:	e1a00003 	mov	a1, a4
2000bc24:	e1a01002 	mov	a2, a3
2000bc28:	eb001aae 	bl	200126e8 <__aeabi_uidivmod>
2000bc2c:	e1a03001 	mov	a4, a2
2000bc30:	e50b3018 	str	a4, [fp, #-24]
2000bc34:	e51b30c4 	ldr	a4, [fp, #-196]	; 0xc4
2000bc38:	e59b2004 	ldr	a3, [fp, #4]
2000bc3c:	e1a00003 	mov	a1, a4
2000bc40:	e1a01002 	mov	a2, a3
2000bc44:	eb001a7c 	bl	2001263c <__aeabi_uidiv>
2000bc48:	e1a03000 	mov	a4, a1
2000bc4c:	e3a04000 	mov	v1, #0
2000bc50:	e50b30c4 	str	a4, [fp, #-196]	; 0xc4
2000bc54:	e50b40c0 	str	v1, [fp, #-192]	; 0xc0
2000bc58:	e51b3018 	ldr	a4, [fp, #-24]
2000bc5c:	e1a02003 	mov	a3, a4
2000bc60:	e51b3020 	ldr	a4, [fp, #-32]
2000bc64:	e0833002 	add	a4, a4, a3
2000bc68:	e5d31000 	ldrb	a2, [a4]
2000bc6c:	e3e0204f 	mvn	a3, #79	; 0x4f
2000bc70:	e24b0014 	sub	a1, fp, #20
2000bc74:	e0803005 	add	a4, a1, v2
2000bc78:	e0832002 	add	a3, a4, a3
2000bc7c:	e1a03001 	mov	a4, a2
2000bc80:	e5c23000 	strb	a4, [a3]
2000bc84:	e51b301c 	ldr	a4, [fp, #-28]
2000bc88:	e2833001 	add	a4, a4, #1
2000bc8c:	e50b301c 	str	a4, [fp, #-28]
2000bc90:	e51b30c4 	ldr	a4, [fp, #-196]	; 0xc4
2000bc94:	e51b20c0 	ldr	a3, [fp, #-192]	; 0xc0
2000bc98:	e1833002 	orr	a4, a4, a3
2000bc9c:	e3530000 	cmp	a4, #0
2000bca0:	1affffdb 	bne	2000bc14 <number+0x24c>
2000bca4:	e51b201c 	ldr	a3, [fp, #-28]
2000bca8:	e59b300c 	ldr	a4, [fp, #12]
2000bcac:	e1520003 	cmp	a3, a4
2000bcb0:	da000001 	ble	2000bcbc <number+0x2f4>
2000bcb4:	e51b301c 	ldr	a4, [fp, #-28]
2000bcb8:	e58b300c 	str	a4, [fp, #12]
2000bcbc:	e59b2008 	ldr	a3, [fp, #8]
2000bcc0:	e59b300c 	ldr	a4, [fp, #12]
2000bcc4:	e0633002 	rsb	a4, a4, a3
2000bcc8:	e58b3008 	str	a4, [fp, #8]
2000bccc:	e59b3010 	ldr	a4, [fp, #16]
2000bcd0:	e2033011 	and	a4, a4, #17
2000bcd4:	e3530000 	cmp	a4, #0
2000bcd8:	1a000014 	bne	2000bd30 <number+0x368>
2000bcdc:	ea000009 	b	2000bd08 <number+0x340>
2000bce0:	e51b20b8 	ldr	a3, [fp, #-184]	; 0xb8
2000bce4:	e51b30bc 	ldr	a4, [fp, #-188]	; 0xbc
2000bce8:	e1520003 	cmp	a3, a4
2000bcec:	8a000002 	bhi	2000bcfc <number+0x334>
2000bcf0:	e51b30b8 	ldr	a4, [fp, #-184]	; 0xb8
2000bcf4:	e3a02020 	mov	a3, #32
2000bcf8:	e5c32000 	strb	a3, [a4]
2000bcfc:	e51b30b8 	ldr	a4, [fp, #-184]	; 0xb8
2000bd00:	e2833001 	add	a4, a4, #1
2000bd04:	e50b30b8 	str	a4, [fp, #-184]	; 0xb8
2000bd08:	e59b3008 	ldr	a4, [fp, #8]
2000bd0c:	e3530000 	cmp	a4, #0
2000bd10:	d3a03000 	movle	a4, #0
2000bd14:	c3a03001 	movgt	a4, #1
2000bd18:	e20320ff 	and	a3, a4, #255	; 0xff
2000bd1c:	e59b3008 	ldr	a4, [fp, #8]
2000bd20:	e2433001 	sub	a4, a4, #1
2000bd24:	e58b3008 	str	a4, [fp, #8]
2000bd28:	e3520000 	cmp	a3, #0
2000bd2c:	1affffeb 	bne	2000bce0 <number+0x318>
2000bd30:	e55b3021 	ldrb	a4, [fp, #-33]	; 0x21
2000bd34:	e3530000 	cmp	a4, #0
2000bd38:	0a000009 	beq	2000bd64 <number+0x39c>
2000bd3c:	e51b20b8 	ldr	a3, [fp, #-184]	; 0xb8
2000bd40:	e51b30bc 	ldr	a4, [fp, #-188]	; 0xbc
2000bd44:	e1520003 	cmp	a3, a4
2000bd48:	8a000002 	bhi	2000bd58 <number+0x390>
2000bd4c:	e51b20b8 	ldr	a3, [fp, #-184]	; 0xb8
2000bd50:	e55b3021 	ldrb	a4, [fp, #-33]	; 0x21
2000bd54:	e5c23000 	strb	a4, [a3]
2000bd58:	e51b30b8 	ldr	a4, [fp, #-184]	; 0xb8
2000bd5c:	e2833001 	add	a4, a4, #1
2000bd60:	e50b30b8 	str	a4, [fp, #-184]	; 0xb8
2000bd64:	e59b3010 	ldr	a4, [fp, #16]
2000bd68:	e2033020 	and	a4, a4, #32
2000bd6c:	e3530000 	cmp	a4, #0
2000bd70:	0a000026 	beq	2000be10 <number+0x448>
2000bd74:	e59b3004 	ldr	a4, [fp, #4]
2000bd78:	e3530008 	cmp	a4, #8
2000bd7c:	1a00000a 	bne	2000bdac <number+0x3e4>
2000bd80:	e51b20b8 	ldr	a3, [fp, #-184]	; 0xb8
2000bd84:	e51b30bc 	ldr	a4, [fp, #-188]	; 0xbc
2000bd88:	e1520003 	cmp	a3, a4
2000bd8c:	8a000002 	bhi	2000bd9c <number+0x3d4>
2000bd90:	e51b30b8 	ldr	a4, [fp, #-184]	; 0xb8
2000bd94:	e3a02030 	mov	a3, #48	; 0x30
2000bd98:	e5c32000 	strb	a3, [a4]
2000bd9c:	e51b30b8 	ldr	a4, [fp, #-184]	; 0xb8
2000bda0:	e2833001 	add	a4, a4, #1
2000bda4:	e50b30b8 	str	a4, [fp, #-184]	; 0xb8
2000bda8:	ea000018 	b	2000be10 <number+0x448>
2000bdac:	e59b3004 	ldr	a4, [fp, #4]
2000bdb0:	e3530010 	cmp	a4, #16
2000bdb4:	1a000015 	bne	2000be10 <number+0x448>
2000bdb8:	e51b20b8 	ldr	a3, [fp, #-184]	; 0xb8
2000bdbc:	e51b30bc 	ldr	a4, [fp, #-188]	; 0xbc
2000bdc0:	e1520003 	cmp	a3, a4
2000bdc4:	8a000002 	bhi	2000bdd4 <number+0x40c>
2000bdc8:	e51b30b8 	ldr	a4, [fp, #-184]	; 0xb8
2000bdcc:	e3a02030 	mov	a3, #48	; 0x30
2000bdd0:	e5c32000 	strb	a3, [a4]
2000bdd4:	e51b30b8 	ldr	a4, [fp, #-184]	; 0xb8
2000bdd8:	e2833001 	add	a4, a4, #1
2000bddc:	e50b30b8 	str	a4, [fp, #-184]	; 0xb8
2000bde0:	e51b20b8 	ldr	a3, [fp, #-184]	; 0xb8
2000bde4:	e51b30bc 	ldr	a4, [fp, #-188]	; 0xbc
2000bde8:	e1520003 	cmp	a3, a4
2000bdec:	8a000004 	bhi	2000be04 <number+0x43c>
2000bdf0:	e51b3020 	ldr	a4, [fp, #-32]
2000bdf4:	e2833021 	add	a4, a4, #33	; 0x21
2000bdf8:	e5d33000 	ldrb	a4, [a4]
2000bdfc:	e51b20b8 	ldr	a3, [fp, #-184]	; 0xb8
2000be00:	e5c23000 	strb	a4, [a3]
2000be04:	e51b30b8 	ldr	a4, [fp, #-184]	; 0xb8
2000be08:	e2833001 	add	a4, a4, #1
2000be0c:	e50b30b8 	str	a4, [fp, #-184]	; 0xb8
2000be10:	e59b3010 	ldr	a4, [fp, #16]
2000be14:	e2033010 	and	a4, a4, #16
2000be18:	e3530000 	cmp	a4, #0
2000be1c:	1a00001f 	bne	2000bea0 <number+0x4d8>
2000be20:	ea000009 	b	2000be4c <number+0x484>
2000be24:	e51b20b8 	ldr	a3, [fp, #-184]	; 0xb8
2000be28:	e51b30bc 	ldr	a4, [fp, #-188]	; 0xbc
2000be2c:	e1520003 	cmp	a3, a4
2000be30:	8a000002 	bhi	2000be40 <number+0x478>
2000be34:	e51b20b8 	ldr	a3, [fp, #-184]	; 0xb8
2000be38:	e55b3022 	ldrb	a4, [fp, #-34]	; 0x22
2000be3c:	e5c23000 	strb	a4, [a3]
2000be40:	e51b30b8 	ldr	a4, [fp, #-184]	; 0xb8
2000be44:	e2833001 	add	a4, a4, #1
2000be48:	e50b30b8 	str	a4, [fp, #-184]	; 0xb8
2000be4c:	e59b3008 	ldr	a4, [fp, #8]
2000be50:	e3530000 	cmp	a4, #0
2000be54:	d3a03000 	movle	a4, #0
2000be58:	c3a03001 	movgt	a4, #1
2000be5c:	e20320ff 	and	a3, a4, #255	; 0xff
2000be60:	e59b3008 	ldr	a4, [fp, #8]
2000be64:	e2433001 	sub	a4, a4, #1
2000be68:	e58b3008 	str	a4, [fp, #8]
2000be6c:	e3520000 	cmp	a3, #0
2000be70:	1affffeb 	bne	2000be24 <number+0x45c>
2000be74:	ea000009 	b	2000bea0 <number+0x4d8>
2000be78:	e51b20b8 	ldr	a3, [fp, #-184]	; 0xb8
2000be7c:	e51b30bc 	ldr	a4, [fp, #-188]	; 0xbc
2000be80:	e1520003 	cmp	a3, a4
2000be84:	8a000002 	bhi	2000be94 <number+0x4cc>
2000be88:	e51b30b8 	ldr	a4, [fp, #-184]	; 0xb8
2000be8c:	e3a02030 	mov	a3, #48	; 0x30
2000be90:	e5c32000 	strb	a3, [a4]
2000be94:	e51b30b8 	ldr	a4, [fp, #-184]	; 0xb8
2000be98:	e2833001 	add	a4, a4, #1
2000be9c:	e50b30b8 	str	a4, [fp, #-184]	; 0xb8
2000bea0:	e59b200c 	ldr	a3, [fp, #12]
2000bea4:	e51b301c 	ldr	a4, [fp, #-28]
2000bea8:	e1520003 	cmp	a3, a4
2000beac:	d3a03000 	movle	a4, #0
2000beb0:	c3a03001 	movgt	a4, #1
2000beb4:	e20320ff 	and	a3, a4, #255	; 0xff
2000beb8:	e59b300c 	ldr	a4, [fp, #12]
2000bebc:	e2433001 	sub	a4, a4, #1
2000bec0:	e58b300c 	str	a4, [fp, #12]
2000bec4:	e3520000 	cmp	a3, #0
2000bec8:	1affffea 	bne	2000be78 <number+0x4b0>
2000becc:	ea00000e 	b	2000bf0c <number+0x544>
2000bed0:	e51b20b8 	ldr	a3, [fp, #-184]	; 0xb8
2000bed4:	e51b30bc 	ldr	a4, [fp, #-188]	; 0xbc
2000bed8:	e1520003 	cmp	a3, a4
2000bedc:	8a000007 	bhi	2000bf00 <number+0x538>
2000bee0:	e51b301c 	ldr	a4, [fp, #-28]
2000bee4:	e3e0204f 	mvn	a3, #79	; 0x4f
2000bee8:	e24b1014 	sub	a2, fp, #20
2000beec:	e0813003 	add	a4, a2, a4
2000bef0:	e0833002 	add	a4, a4, a3
2000bef4:	e5d33000 	ldrb	a4, [a4]
2000bef8:	e51b20b8 	ldr	a3, [fp, #-184]	; 0xb8
2000befc:	e5c23000 	strb	a4, [a3]
2000bf00:	e51b30b8 	ldr	a4, [fp, #-184]	; 0xb8
2000bf04:	e2833001 	add	a4, a4, #1
2000bf08:	e50b30b8 	str	a4, [fp, #-184]	; 0xb8
2000bf0c:	e51b301c 	ldr	a4, [fp, #-28]
2000bf10:	e3530000 	cmp	a4, #0
2000bf14:	d3a03000 	movle	a4, #0
2000bf18:	c3a03001 	movgt	a4, #1
2000bf1c:	e20320ff 	and	a3, a4, #255	; 0xff
2000bf20:	e51b301c 	ldr	a4, [fp, #-28]
2000bf24:	e2433001 	sub	a4, a4, #1
2000bf28:	e50b301c 	str	a4, [fp, #-28]
2000bf2c:	e3520000 	cmp	a3, #0
2000bf30:	1affffe6 	bne	2000bed0 <number+0x508>
2000bf34:	ea000009 	b	2000bf60 <number+0x598>
2000bf38:	e51b20b8 	ldr	a3, [fp, #-184]	; 0xb8
2000bf3c:	e51b30bc 	ldr	a4, [fp, #-188]	; 0xbc
2000bf40:	e1520003 	cmp	a3, a4
2000bf44:	8a000002 	bhi	2000bf54 <number+0x58c>
2000bf48:	e51b30b8 	ldr	a4, [fp, #-184]	; 0xb8
2000bf4c:	e3a02020 	mov	a3, #32
2000bf50:	e5c32000 	strb	a3, [a4]
2000bf54:	e51b30b8 	ldr	a4, [fp, #-184]	; 0xb8
2000bf58:	e2833001 	add	a4, a4, #1
2000bf5c:	e50b30b8 	str	a4, [fp, #-184]	; 0xb8
2000bf60:	e59b3008 	ldr	a4, [fp, #8]
2000bf64:	e3530000 	cmp	a4, #0
2000bf68:	d3a03000 	movle	a4, #0
2000bf6c:	c3a03001 	movgt	a4, #1
2000bf70:	e20320ff 	and	a3, a4, #255	; 0xff
2000bf74:	e59b3008 	ldr	a4, [fp, #8]
2000bf78:	e2433001 	sub	a4, a4, #1
2000bf7c:	e58b3008 	str	a4, [fp, #8]
2000bf80:	e3520000 	cmp	a3, #0
2000bf84:	1affffeb 	bne	2000bf38 <number+0x570>
2000bf88:	e51b20b8 	ldr	a3, [fp, #-184]	; 0xb8
2000bf8c:	e50b20cc 	str	a3, [fp, #-204]	; 0xcc
2000bf90:	e51b30cc 	ldr	a4, [fp, #-204]	; 0xcc
2000bf94:	e1a00003 	mov	a1, a4
2000bf98:	e24bd014 	sub	sp, fp, #20
2000bf9c:	e89da830 	ldm	sp, {v1, v2, fp, sp, pc}
2000bfa0:	00007db4 			; <UNDEFINED> instruction: 0x00007db4
2000bfa4:	fffff980 			; <UNDEFINED> instruction: 0xfffff980
2000bfa8:	fffff9a8 			; <UNDEFINED> instruction: 0xfffff9a8

2000bfac <vsnprintf>:
2000bfac:	e1a0c00d 	mov	ip, sp
2000bfb0:	e92dd830 	push	{v1, v2, fp, ip, lr, pc}
2000bfb4:	e24cb004 	sub	fp, ip, #4
2000bfb8:	e24dd070 	sub	sp, sp, #112	; 0x70
2000bfbc:	e59fcb44 	ldr	ip, [pc, #2884]	; 2000cb08 <vsnprintf+0xb5c>
2000bfc0:	e50bc070 	str	ip, [fp, #-112]	; 0x70
2000bfc4:	e51bc070 	ldr	ip, [fp, #-112]	; 0x70
2000bfc8:	e08fc00c 	add	ip, pc, ip
2000bfcc:	e50bc070 	str	ip, [fp, #-112]	; 0x70
2000bfd0:	e50b0060 	str	a1, [fp, #-96]	; 0x60
2000bfd4:	e50b1064 	str	a2, [fp, #-100]	; 0x64
2000bfd8:	e50b2068 	str	a3, [fp, #-104]	; 0x68
2000bfdc:	e50b306c 	str	a4, [fp, #-108]	; 0x6c
2000bfe0:	e51b3060 	ldr	a4, [fp, #-96]	; 0x60
2000bfe4:	e50b3040 	str	a4, [fp, #-64]	; 0x40
2000bfe8:	e51b3064 	ldr	a4, [fp, #-100]	; 0x64
2000bfec:	e2432001 	sub	a3, a4, #1
2000bff0:	e51b3060 	ldr	a4, [fp, #-96]	; 0x60
2000bff4:	e0833002 	add	a4, a4, a3
2000bff8:	e50b303c 	str	a4, [fp, #-60]	; 0x3c
2000bffc:	e51b3060 	ldr	a4, [fp, #-96]	; 0x60
2000c000:	e2432001 	sub	a3, a4, #1
2000c004:	e51b303c 	ldr	a4, [fp, #-60]	; 0x3c
2000c008:	e1520003 	cmp	a3, a4
2000c00c:	9a0002a5 	bls	2000caa8 <vsnprintf+0xafc>
2000c010:	e3e03000 	mvn	a4, #0
2000c014:	e50b303c 	str	a4, [fp, #-60]	; 0x3c
2000c018:	e51b203c 	ldr	a3, [fp, #-60]	; 0x3c
2000c01c:	e51b3060 	ldr	a4, [fp, #-96]	; 0x60
2000c020:	e0633002 	rsb	a4, a4, a3
2000c024:	e2833001 	add	a4, a4, #1
2000c028:	e50b3064 	str	a4, [fp, #-100]	; 0x64
2000c02c:	ea00029d 	b	2000caa8 <vsnprintf+0xafc>
2000c030:	e51b3068 	ldr	a4, [fp, #-104]	; 0x68
2000c034:	e5d33000 	ldrb	a4, [a4]
2000c038:	e3530025 	cmp	a4, #37	; 0x25
2000c03c:	0a00000b 	beq	2000c070 <vsnprintf+0xc4>
2000c040:	e51b2040 	ldr	a3, [fp, #-64]	; 0x40
2000c044:	e51b303c 	ldr	a4, [fp, #-60]	; 0x3c
2000c048:	e1520003 	cmp	a3, a4
2000c04c:	8a000003 	bhi	2000c060 <vsnprintf+0xb4>
2000c050:	e51b3068 	ldr	a4, [fp, #-104]	; 0x68
2000c054:	e5d33000 	ldrb	a4, [a4]
2000c058:	e51b2040 	ldr	a3, [fp, #-64]	; 0x40
2000c05c:	e5c23000 	strb	a4, [a3]
2000c060:	e51b3040 	ldr	a4, [fp, #-64]	; 0x40
2000c064:	e2833001 	add	a4, a4, #1
2000c068:	e50b3040 	str	a4, [fp, #-64]	; 0x40
2000c06c:	ea00028a 	b	2000ca9c <vsnprintf+0xaf0>
2000c070:	e3a03000 	mov	a4, #0
2000c074:	e50b3030 	str	a4, [fp, #-48]	; 0x30
2000c078:	e51b3068 	ldr	a4, [fp, #-104]	; 0x68
2000c07c:	e2833001 	add	a4, a4, #1
2000c080:	e50b3068 	str	a4, [fp, #-104]	; 0x68
2000c084:	e51b3068 	ldr	a4, [fp, #-104]	; 0x68
2000c088:	e5d33000 	ldrb	a4, [a4]
2000c08c:	e2433020 	sub	a4, a4, #32
2000c090:	e3530010 	cmp	a4, #16
2000c094:	908ff103 	addls	pc, pc, a4, lsl #2
2000c098:	ea000024 	b	2000c130 <vsnprintf+0x184>
2000c09c:	ea000017 	b	2000c100 <vsnprintf+0x154>
2000c0a0:	ea000022 	b	2000c130 <vsnprintf+0x184>
2000c0a4:	ea000021 	b	2000c130 <vsnprintf+0x184>
2000c0a8:	ea000018 	b	2000c110 <vsnprintf+0x164>
2000c0ac:	ea00001f 	b	2000c130 <vsnprintf+0x184>
2000c0b0:	ea00001e 	b	2000c130 <vsnprintf+0x184>
2000c0b4:	ea00001d 	b	2000c130 <vsnprintf+0x184>
2000c0b8:	ea00001c 	b	2000c130 <vsnprintf+0x184>
2000c0bc:	ea00001b 	b	2000c130 <vsnprintf+0x184>
2000c0c0:	ea00001a 	b	2000c130 <vsnprintf+0x184>
2000c0c4:	ea000019 	b	2000c130 <vsnprintf+0x184>
2000c0c8:	ea000008 	b	2000c0f0 <vsnprintf+0x144>
2000c0cc:	ea000017 	b	2000c130 <vsnprintf+0x184>
2000c0d0:	ea000002 	b	2000c0e0 <vsnprintf+0x134>
2000c0d4:	ea000015 	b	2000c130 <vsnprintf+0x184>
2000c0d8:	ea000014 	b	2000c130 <vsnprintf+0x184>
2000c0dc:	ea00000f 	b	2000c120 <vsnprintf+0x174>
2000c0e0:	e51b3030 	ldr	a4, [fp, #-48]	; 0x30
2000c0e4:	e3833010 	orr	a4, a4, #16
2000c0e8:	e50b3030 	str	a4, [fp, #-48]	; 0x30
2000c0ec:	eaffffe1 	b	2000c078 <vsnprintf+0xcc>
2000c0f0:	e51b3030 	ldr	a4, [fp, #-48]	; 0x30
2000c0f4:	e3833004 	orr	a4, a4, #4
2000c0f8:	e50b3030 	str	a4, [fp, #-48]	; 0x30
2000c0fc:	eaffffdd 	b	2000c078 <vsnprintf+0xcc>
2000c100:	e51b3030 	ldr	a4, [fp, #-48]	; 0x30
2000c104:	e3833008 	orr	a4, a4, #8
2000c108:	e50b3030 	str	a4, [fp, #-48]	; 0x30
2000c10c:	eaffffd9 	b	2000c078 <vsnprintf+0xcc>
2000c110:	e51b3030 	ldr	a4, [fp, #-48]	; 0x30
2000c114:	e3833020 	orr	a4, a4, #32
2000c118:	e50b3030 	str	a4, [fp, #-48]	; 0x30
2000c11c:	eaffffd5 	b	2000c078 <vsnprintf+0xcc>
2000c120:	e51b3030 	ldr	a4, [fp, #-48]	; 0x30
2000c124:	e3833001 	orr	a4, a4, #1
2000c128:	e50b3030 	str	a4, [fp, #-48]	; 0x30
2000c12c:	eaffffd1 	b	2000c078 <vsnprintf+0xcc>
2000c130:	e3e03000 	mvn	a4, #0
2000c134:	e50b302c 	str	a4, [fp, #-44]	; 0x2c
2000c138:	e51b3068 	ldr	a4, [fp, #-104]	; 0x68
2000c13c:	e5d33000 	ldrb	a4, [a4]
2000c140:	e1a02003 	mov	a3, a4
2000c144:	e59f39c0 	ldr	a4, [pc, #2496]	; 2000cb0c <vsnprintf+0xb60>
2000c148:	e51b1070 	ldr	a2, [fp, #-112]	; 0x70
2000c14c:	e7913003 	ldr	a4, [a2, a4]
2000c150:	e7d33002 	ldrb	a4, [a4, a3]
2000c154:	e2033004 	and	a4, a4, #4
2000c158:	e3530000 	cmp	a4, #0
2000c15c:	0a000005 	beq	2000c178 <vsnprintf+0x1cc>
2000c160:	e24b3068 	sub	a4, fp, #104	; 0x68
2000c164:	e1a00003 	mov	a1, a4
2000c168:	ebfffdeb 	bl	2000b91c <skip_atoi>
2000c16c:	e1a03000 	mov	a4, a1
2000c170:	e50b302c 	str	a4, [fp, #-44]	; 0x2c
2000c174:	ea000016 	b	2000c1d4 <vsnprintf+0x228>
2000c178:	e51b3068 	ldr	a4, [fp, #-104]	; 0x68
2000c17c:	e5d33000 	ldrb	a4, [a4]
2000c180:	e353002a 	cmp	a4, #42	; 0x2a
2000c184:	1a000012 	bne	2000c1d4 <vsnprintf+0x228>
2000c188:	e51b3068 	ldr	a4, [fp, #-104]	; 0x68
2000c18c:	e2833001 	add	a4, a4, #1
2000c190:	e50b3068 	str	a4, [fp, #-104]	; 0x68
2000c194:	e51b306c 	ldr	a4, [fp, #-108]	; 0x6c
2000c198:	e2833004 	add	a4, a4, #4
2000c19c:	e50b306c 	str	a4, [fp, #-108]	; 0x6c
2000c1a0:	e51b306c 	ldr	a4, [fp, #-108]	; 0x6c
2000c1a4:	e2433004 	sub	a4, a4, #4
2000c1a8:	e5933000 	ldr	a4, [a4]
2000c1ac:	e50b302c 	str	a4, [fp, #-44]	; 0x2c
2000c1b0:	e51b302c 	ldr	a4, [fp, #-44]	; 0x2c
2000c1b4:	e3530000 	cmp	a4, #0
2000c1b8:	aa000005 	bge	2000c1d4 <vsnprintf+0x228>
2000c1bc:	e51b302c 	ldr	a4, [fp, #-44]	; 0x2c
2000c1c0:	e2633000 	rsb	a4, a4, #0
2000c1c4:	e50b302c 	str	a4, [fp, #-44]	; 0x2c
2000c1c8:	e51b3030 	ldr	a4, [fp, #-48]	; 0x30
2000c1cc:	e3833010 	orr	a4, a4, #16
2000c1d0:	e50b3030 	str	a4, [fp, #-48]	; 0x30
2000c1d4:	e3e03000 	mvn	a4, #0
2000c1d8:	e50b3028 	str	a4, [fp, #-40]	; 0x28
2000c1dc:	e51b3068 	ldr	a4, [fp, #-104]	; 0x68
2000c1e0:	e5d33000 	ldrb	a4, [a4]
2000c1e4:	e353002e 	cmp	a4, #46	; 0x2e
2000c1e8:	1a000025 	bne	2000c284 <vsnprintf+0x2d8>
2000c1ec:	e51b3068 	ldr	a4, [fp, #-104]	; 0x68
2000c1f0:	e2833001 	add	a4, a4, #1
2000c1f4:	e50b3068 	str	a4, [fp, #-104]	; 0x68
2000c1f8:	e51b3068 	ldr	a4, [fp, #-104]	; 0x68
2000c1fc:	e5d33000 	ldrb	a4, [a4]
2000c200:	e1a02003 	mov	a3, a4
2000c204:	e59f3900 	ldr	a4, [pc, #2304]	; 2000cb0c <vsnprintf+0xb60>
2000c208:	e51bc070 	ldr	ip, [fp, #-112]	; 0x70
2000c20c:	e79c3003 	ldr	a4, [ip, a4]
2000c210:	e7d33002 	ldrb	a4, [a4, a3]
2000c214:	e2033004 	and	a4, a4, #4
2000c218:	e3530000 	cmp	a4, #0
2000c21c:	0a000005 	beq	2000c238 <vsnprintf+0x28c>
2000c220:	e24b3068 	sub	a4, fp, #104	; 0x68
2000c224:	e1a00003 	mov	a1, a4
2000c228:	ebfffdbb 	bl	2000b91c <skip_atoi>
2000c22c:	e1a03000 	mov	a4, a1
2000c230:	e50b3028 	str	a4, [fp, #-40]	; 0x28
2000c234:	ea00000d 	b	2000c270 <vsnprintf+0x2c4>
2000c238:	e51b3068 	ldr	a4, [fp, #-104]	; 0x68
2000c23c:	e5d33000 	ldrb	a4, [a4]
2000c240:	e353002a 	cmp	a4, #42	; 0x2a
2000c244:	1a000009 	bne	2000c270 <vsnprintf+0x2c4>
2000c248:	e51b3068 	ldr	a4, [fp, #-104]	; 0x68
2000c24c:	e2833001 	add	a4, a4, #1
2000c250:	e50b3068 	str	a4, [fp, #-104]	; 0x68
2000c254:	e51b306c 	ldr	a4, [fp, #-108]	; 0x6c
2000c258:	e2833004 	add	a4, a4, #4
2000c25c:	e50b306c 	str	a4, [fp, #-108]	; 0x6c
2000c260:	e51b306c 	ldr	a4, [fp, #-108]	; 0x6c
2000c264:	e2433004 	sub	a4, a4, #4
2000c268:	e5933000 	ldr	a4, [a4]
2000c26c:	e50b3028 	str	a4, [fp, #-40]	; 0x28
2000c270:	e51b3028 	ldr	a4, [fp, #-40]	; 0x28
2000c274:	e3530000 	cmp	a4, #0
2000c278:	aa000001 	bge	2000c284 <vsnprintf+0x2d8>
2000c27c:	e3a03000 	mov	a4, #0
2000c280:	e50b3028 	str	a4, [fp, #-40]	; 0x28
2000c284:	e3e03000 	mvn	a4, #0
2000c288:	e50b3024 	str	a4, [fp, #-36]	; 0x24
2000c28c:	e51b3068 	ldr	a4, [fp, #-104]	; 0x68
2000c290:	e5d33000 	ldrb	a4, [a4]
2000c294:	e3530068 	cmp	a4, #104	; 0x68
2000c298:	0a00000b 	beq	2000c2cc <vsnprintf+0x320>
2000c29c:	e51b3068 	ldr	a4, [fp, #-104]	; 0x68
2000c2a0:	e5d33000 	ldrb	a4, [a4]
2000c2a4:	e353006c 	cmp	a4, #108	; 0x6c
2000c2a8:	0a000007 	beq	2000c2cc <vsnprintf+0x320>
2000c2ac:	e51b3068 	ldr	a4, [fp, #-104]	; 0x68
2000c2b0:	e5d33000 	ldrb	a4, [a4]
2000c2b4:	e353004c 	cmp	a4, #76	; 0x4c
2000c2b8:	0a000003 	beq	2000c2cc <vsnprintf+0x320>
2000c2bc:	e51b3068 	ldr	a4, [fp, #-104]	; 0x68
2000c2c0:	e5d33000 	ldrb	a4, [a4]
2000c2c4:	e353005a 	cmp	a4, #90	; 0x5a
2000c2c8:	1a000011 	bne	2000c314 <vsnprintf+0x368>
2000c2cc:	e51b3068 	ldr	a4, [fp, #-104]	; 0x68
2000c2d0:	e5d33000 	ldrb	a4, [a4]
2000c2d4:	e50b3024 	str	a4, [fp, #-36]	; 0x24
2000c2d8:	e51b3068 	ldr	a4, [fp, #-104]	; 0x68
2000c2dc:	e2833001 	add	a4, a4, #1
2000c2e0:	e50b3068 	str	a4, [fp, #-104]	; 0x68
2000c2e4:	e51b3024 	ldr	a4, [fp, #-36]	; 0x24
2000c2e8:	e353006c 	cmp	a4, #108	; 0x6c
2000c2ec:	1a000008 	bne	2000c314 <vsnprintf+0x368>
2000c2f0:	e51b3068 	ldr	a4, [fp, #-104]	; 0x68
2000c2f4:	e5d33000 	ldrb	a4, [a4]
2000c2f8:	e353006c 	cmp	a4, #108	; 0x6c
2000c2fc:	1a000004 	bne	2000c314 <vsnprintf+0x368>
2000c300:	e3a0304c 	mov	a4, #76	; 0x4c
2000c304:	e50b3024 	str	a4, [fp, #-36]	; 0x24
2000c308:	e51b3068 	ldr	a4, [fp, #-104]	; 0x68
2000c30c:	e2833001 	add	a4, a4, #1
2000c310:	e50b3068 	str	a4, [fp, #-104]	; 0x68
2000c314:	e3a0300a 	mov	a4, #10
2000c318:	e50b3044 	str	a4, [fp, #-68]	; 0x44
2000c31c:	e51b3068 	ldr	a4, [fp, #-104]	; 0x68
2000c320:	e5d33000 	ldrb	a4, [a4]
2000c324:	e2433025 	sub	a4, a4, #37	; 0x25
2000c328:	e3530053 	cmp	a4, #83	; 0x53
2000c32c:	908ff103 	addls	pc, pc, a4, lsl #2
2000c330:	ea00014e 	b	2000c870 <vsnprintf+0x8c4>
2000c334:	ea000135 	b	2000c810 <vsnprintf+0x864>
2000c338:	ea00014c 	b	2000c870 <vsnprintf+0x8c4>
2000c33c:	ea00014b 	b	2000c870 <vsnprintf+0x8c4>
2000c340:	ea00014a 	b	2000c870 <vsnprintf+0x8c4>
2000c344:	ea000149 	b	2000c870 <vsnprintf+0x8c4>
2000c348:	ea000148 	b	2000c870 <vsnprintf+0x8c4>
2000c34c:	ea000147 	b	2000c870 <vsnprintf+0x8c4>
2000c350:	ea000146 	b	2000c870 <vsnprintf+0x8c4>
2000c354:	ea000145 	b	2000c870 <vsnprintf+0x8c4>
2000c358:	ea000144 	b	2000c870 <vsnprintf+0x8c4>
2000c35c:	ea000143 	b	2000c870 <vsnprintf+0x8c4>
2000c360:	ea000142 	b	2000c870 <vsnprintf+0x8c4>
2000c364:	ea000141 	b	2000c870 <vsnprintf+0x8c4>
2000c368:	ea000140 	b	2000c870 <vsnprintf+0x8c4>
2000c36c:	ea00013f 	b	2000c870 <vsnprintf+0x8c4>
2000c370:	ea00013e 	b	2000c870 <vsnprintf+0x8c4>
2000c374:	ea00013d 	b	2000c870 <vsnprintf+0x8c4>
2000c378:	ea00013c 	b	2000c870 <vsnprintf+0x8c4>
2000c37c:	ea00013b 	b	2000c870 <vsnprintf+0x8c4>
2000c380:	ea00013a 	b	2000c870 <vsnprintf+0x8c4>
2000c384:	ea000139 	b	2000c870 <vsnprintf+0x8c4>
2000c388:	ea000138 	b	2000c870 <vsnprintf+0x8c4>
2000c38c:	ea000137 	b	2000c870 <vsnprintf+0x8c4>
2000c390:	ea000136 	b	2000c870 <vsnprintf+0x8c4>
2000c394:	ea000135 	b	2000c870 <vsnprintf+0x8c4>
2000c398:	ea000134 	b	2000c870 <vsnprintf+0x8c4>
2000c39c:	ea000133 	b	2000c870 <vsnprintf+0x8c4>
2000c3a0:	ea000132 	b	2000c870 <vsnprintf+0x8c4>
2000c3a4:	ea000131 	b	2000c870 <vsnprintf+0x8c4>
2000c3a8:	ea000130 	b	2000c870 <vsnprintf+0x8c4>
2000c3ac:	ea00012f 	b	2000c870 <vsnprintf+0x8c4>
2000c3b0:	ea00012e 	b	2000c870 <vsnprintf+0x8c4>
2000c3b4:	ea00012d 	b	2000c870 <vsnprintf+0x8c4>
2000c3b8:	ea00012c 	b	2000c870 <vsnprintf+0x8c4>
2000c3bc:	ea00012b 	b	2000c870 <vsnprintf+0x8c4>
2000c3c0:	ea00012a 	b	2000c870 <vsnprintf+0x8c4>
2000c3c4:	ea000129 	b	2000c870 <vsnprintf+0x8c4>
2000c3c8:	ea000128 	b	2000c870 <vsnprintf+0x8c4>
2000c3cc:	ea000127 	b	2000c870 <vsnprintf+0x8c4>
2000c3d0:	ea000126 	b	2000c870 <vsnprintf+0x8c4>
2000c3d4:	ea000125 	b	2000c870 <vsnprintf+0x8c4>
2000c3d8:	ea000124 	b	2000c870 <vsnprintf+0x8c4>
2000c3dc:	ea000123 	b	2000c870 <vsnprintf+0x8c4>
2000c3e0:	ea000122 	b	2000c870 <vsnprintf+0x8c4>
2000c3e4:	ea000121 	b	2000c870 <vsnprintf+0x8c4>
2000c3e8:	ea000120 	b	2000c870 <vsnprintf+0x8c4>
2000c3ec:	ea00011f 	b	2000c870 <vsnprintf+0x8c4>
2000c3f0:	ea00011e 	b	2000c870 <vsnprintf+0x8c4>
2000c3f4:	ea00011d 	b	2000c870 <vsnprintf+0x8c4>
2000c3f8:	ea00011c 	b	2000c870 <vsnprintf+0x8c4>
2000c3fc:	ea00011b 	b	2000c870 <vsnprintf+0x8c4>
2000c400:	ea000110 	b	2000c848 <vsnprintf+0x89c>
2000c404:	ea000119 	b	2000c870 <vsnprintf+0x8c4>
2000c408:	ea000118 	b	2000c870 <vsnprintf+0x8c4>
2000c40c:	ea000117 	b	2000c870 <vsnprintf+0x8c4>
2000c410:	ea000116 	b	2000c870 <vsnprintf+0x8c4>
2000c414:	ea000115 	b	2000c870 <vsnprintf+0x8c4>
2000c418:	ea000114 	b	2000c870 <vsnprintf+0x8c4>
2000c41c:	ea000113 	b	2000c870 <vsnprintf+0x8c4>
2000c420:	ea000112 	b	2000c870 <vsnprintf+0x8c4>
2000c424:	ea000111 	b	2000c870 <vsnprintf+0x8c4>
2000c428:	ea000110 	b	2000c870 <vsnprintf+0x8c4>
2000c42c:	ea000014 	b	2000c484 <vsnprintf+0x4d8>
2000c430:	ea00010a 	b	2000c860 <vsnprintf+0x8b4>
2000c434:	ea00010d 	b	2000c870 <vsnprintf+0x8c4>
2000c438:	ea00010c 	b	2000c870 <vsnprintf+0x8c4>
2000c43c:	ea00010b 	b	2000c870 <vsnprintf+0x8c4>
2000c440:	ea00010a 	b	2000c870 <vsnprintf+0x8c4>
2000c444:	ea000105 	b	2000c860 <vsnprintf+0x8b4>
2000c448:	ea000108 	b	2000c870 <vsnprintf+0x8c4>
2000c44c:	ea000107 	b	2000c870 <vsnprintf+0x8c4>
2000c450:	ea000106 	b	2000c870 <vsnprintf+0x8c4>
2000c454:	ea000105 	b	2000c870 <vsnprintf+0x8c4>
2000c458:	ea0000be 	b	2000c758 <vsnprintf+0x7ac>
2000c45c:	ea0000f6 	b	2000c83c <vsnprintf+0x890>
2000c460:	ea00009c 	b	2000c6d8 <vsnprintf+0x72c>
2000c464:	ea000101 	b	2000c870 <vsnprintf+0x8c4>
2000c468:	ea000100 	b	2000c870 <vsnprintf+0x8c4>
2000c46c:	ea00003c 	b	2000c564 <vsnprintf+0x5b8>
2000c470:	ea0000fe 	b	2000c870 <vsnprintf+0x8c4>
2000c474:	ea00011b 	b	2000c8e8 <vsnprintf+0x93c>
2000c478:	ea0000fc 	b	2000c870 <vsnprintf+0x8c4>
2000c47c:	ea0000fb 	b	2000c870 <vsnprintf+0x8c4>
2000c480:	ea0000f3 	b	2000c854 <vsnprintf+0x8a8>
2000c484:	e51b3030 	ldr	a4, [fp, #-48]	; 0x30
2000c488:	e2033010 	and	a4, a4, #16
2000c48c:	e3530000 	cmp	a4, #0
2000c490:	1a000010 	bne	2000c4d8 <vsnprintf+0x52c>
2000c494:	ea000009 	b	2000c4c0 <vsnprintf+0x514>
2000c498:	e51b2040 	ldr	a3, [fp, #-64]	; 0x40
2000c49c:	e51b303c 	ldr	a4, [fp, #-60]	; 0x3c
2000c4a0:	e1520003 	cmp	a3, a4
2000c4a4:	8a000002 	bhi	2000c4b4 <vsnprintf+0x508>
2000c4a8:	e51b3040 	ldr	a4, [fp, #-64]	; 0x40
2000c4ac:	e3a02020 	mov	a3, #32
2000c4b0:	e5c32000 	strb	a3, [a4]
2000c4b4:	e51b3040 	ldr	a4, [fp, #-64]	; 0x40
2000c4b8:	e2833001 	add	a4, a4, #1
2000c4bc:	e50b3040 	str	a4, [fp, #-64]	; 0x40
2000c4c0:	e51b302c 	ldr	a4, [fp, #-44]	; 0x2c
2000c4c4:	e2433001 	sub	a4, a4, #1
2000c4c8:	e50b302c 	str	a4, [fp, #-44]	; 0x2c
2000c4cc:	e51b302c 	ldr	a4, [fp, #-44]	; 0x2c
2000c4d0:	e3530000 	cmp	a4, #0
2000c4d4:	caffffef 	bgt	2000c498 <vsnprintf+0x4ec>
2000c4d8:	e51b306c 	ldr	a4, [fp, #-108]	; 0x6c
2000c4dc:	e2833004 	add	a4, a4, #4
2000c4e0:	e50b306c 	str	a4, [fp, #-108]	; 0x6c
2000c4e4:	e51b306c 	ldr	a4, [fp, #-108]	; 0x6c
2000c4e8:	e2433004 	sub	a4, a4, #4
2000c4ec:	e5933000 	ldr	a4, [a4]
2000c4f0:	e54b3035 	strb	a4, [fp, #-53]	; 0x35
2000c4f4:	e51b2040 	ldr	a3, [fp, #-64]	; 0x40
2000c4f8:	e51b303c 	ldr	a4, [fp, #-60]	; 0x3c
2000c4fc:	e1520003 	cmp	a3, a4
2000c500:	8a000002 	bhi	2000c510 <vsnprintf+0x564>
2000c504:	e51b2040 	ldr	a3, [fp, #-64]	; 0x40
2000c508:	e55b3035 	ldrb	a4, [fp, #-53]	; 0x35
2000c50c:	e5c23000 	strb	a4, [a3]
2000c510:	e51b3040 	ldr	a4, [fp, #-64]	; 0x40
2000c514:	e2833001 	add	a4, a4, #1
2000c518:	e50b3040 	str	a4, [fp, #-64]	; 0x40
2000c51c:	ea000009 	b	2000c548 <vsnprintf+0x59c>
2000c520:	e51b2040 	ldr	a3, [fp, #-64]	; 0x40
2000c524:	e51b303c 	ldr	a4, [fp, #-60]	; 0x3c
2000c528:	e1520003 	cmp	a3, a4
2000c52c:	8a000002 	bhi	2000c53c <vsnprintf+0x590>
2000c530:	e51b3040 	ldr	a4, [fp, #-64]	; 0x40
2000c534:	e3a02020 	mov	a3, #32
2000c538:	e5c32000 	strb	a3, [a4]
2000c53c:	e51b3040 	ldr	a4, [fp, #-64]	; 0x40
2000c540:	e2833001 	add	a4, a4, #1
2000c544:	e50b3040 	str	a4, [fp, #-64]	; 0x40
2000c548:	e51b302c 	ldr	a4, [fp, #-44]	; 0x2c
2000c54c:	e2433001 	sub	a4, a4, #1
2000c550:	e50b302c 	str	a4, [fp, #-44]	; 0x2c
2000c554:	e51b302c 	ldr	a4, [fp, #-44]	; 0x2c
2000c558:	e3530000 	cmp	a4, #0
2000c55c:	caffffef 	bgt	2000c520 <vsnprintf+0x574>
2000c560:	ea00014d 	b	2000ca9c <vsnprintf+0xaf0>
2000c564:	e51b306c 	ldr	a4, [fp, #-108]	; 0x6c
2000c568:	e2833004 	add	a4, a4, #4
2000c56c:	e50b306c 	str	a4, [fp, #-108]	; 0x6c
2000c570:	e51b306c 	ldr	a4, [fp, #-108]	; 0x6c
2000c574:	e2433004 	sub	a4, a4, #4
2000c578:	e5933000 	ldr	a4, [a4]
2000c57c:	e50b3034 	str	a4, [fp, #-52]	; 0x34
2000c580:	e51b3034 	ldr	a4, [fp, #-52]	; 0x34
2000c584:	e3530000 	cmp	a4, #0
2000c588:	1a000003 	bne	2000c59c <vsnprintf+0x5f0>
2000c58c:	e59f357c 	ldr	a4, [pc, #1404]	; 2000cb10 <vsnprintf+0xb64>
2000c590:	e51b1070 	ldr	a2, [fp, #-112]	; 0x70
2000c594:	e0813003 	add	a4, a2, a4
2000c598:	e50b3034 	str	a4, [fp, #-52]	; 0x34
2000c59c:	e51b3028 	ldr	a4, [fp, #-40]	; 0x28
2000c5a0:	e51b0034 	ldr	a1, [fp, #-52]	; 0x34
2000c5a4:	e1a01003 	mov	a2, a4
2000c5a8:	eb001061 	bl	20010734 <strnlen>
2000c5ac:	e1a03000 	mov	a4, a1
2000c5b0:	e50b3058 	str	a4, [fp, #-88]	; 0x58
2000c5b4:	e51b3030 	ldr	a4, [fp, #-48]	; 0x30
2000c5b8:	e2033010 	and	a4, a4, #16
2000c5bc:	e3530000 	cmp	a4, #0
2000c5c0:	1a000015 	bne	2000c61c <vsnprintf+0x670>
2000c5c4:	ea000009 	b	2000c5f0 <vsnprintf+0x644>
2000c5c8:	e51b2040 	ldr	a3, [fp, #-64]	; 0x40
2000c5cc:	e51b303c 	ldr	a4, [fp, #-60]	; 0x3c
2000c5d0:	e1520003 	cmp	a3, a4
2000c5d4:	8a000002 	bhi	2000c5e4 <vsnprintf+0x638>
2000c5d8:	e51b3040 	ldr	a4, [fp, #-64]	; 0x40
2000c5dc:	e3a02020 	mov	a3, #32
2000c5e0:	e5c32000 	strb	a3, [a4]
2000c5e4:	e51b3040 	ldr	a4, [fp, #-64]	; 0x40
2000c5e8:	e2833001 	add	a4, a4, #1
2000c5ec:	e50b3040 	str	a4, [fp, #-64]	; 0x40
2000c5f0:	e51b202c 	ldr	a3, [fp, #-44]	; 0x2c
2000c5f4:	e51b3058 	ldr	a4, [fp, #-88]	; 0x58
2000c5f8:	e1520003 	cmp	a3, a4
2000c5fc:	d3a03000 	movle	a4, #0
2000c600:	c3a03001 	movgt	a4, #1
2000c604:	e20320ff 	and	a3, a4, #255	; 0xff
2000c608:	e51b302c 	ldr	a4, [fp, #-44]	; 0x2c
2000c60c:	e2433001 	sub	a4, a4, #1
2000c610:	e50b302c 	str	a4, [fp, #-44]	; 0x2c
2000c614:	e3520000 	cmp	a3, #0
2000c618:	1affffea 	bne	2000c5c8 <vsnprintf+0x61c>
2000c61c:	e3a03000 	mov	a4, #0
2000c620:	e50b3048 	str	a4, [fp, #-72]	; 0x48
2000c624:	ea000010 	b	2000c66c <vsnprintf+0x6c0>
2000c628:	e51b2040 	ldr	a3, [fp, #-64]	; 0x40
2000c62c:	e51b303c 	ldr	a4, [fp, #-60]	; 0x3c
2000c630:	e1520003 	cmp	a3, a4
2000c634:	8a000003 	bhi	2000c648 <vsnprintf+0x69c>
2000c638:	e51b3034 	ldr	a4, [fp, #-52]	; 0x34
2000c63c:	e5d33000 	ldrb	a4, [a4]
2000c640:	e51b2040 	ldr	a3, [fp, #-64]	; 0x40
2000c644:	e5c23000 	strb	a4, [a3]
2000c648:	e51b3040 	ldr	a4, [fp, #-64]	; 0x40
2000c64c:	e2833001 	add	a4, a4, #1
2000c650:	e50b3040 	str	a4, [fp, #-64]	; 0x40
2000c654:	e51b3034 	ldr	a4, [fp, #-52]	; 0x34
2000c658:	e2833001 	add	a4, a4, #1
2000c65c:	e50b3034 	str	a4, [fp, #-52]	; 0x34
2000c660:	e51b3048 	ldr	a4, [fp, #-72]	; 0x48
2000c664:	e2833001 	add	a4, a4, #1
2000c668:	e50b3048 	str	a4, [fp, #-72]	; 0x48
2000c66c:	e51b2048 	ldr	a3, [fp, #-72]	; 0x48
2000c670:	e51b3058 	ldr	a4, [fp, #-88]	; 0x58
2000c674:	e1520003 	cmp	a3, a4
2000c678:	baffffea 	blt	2000c628 <vsnprintf+0x67c>
2000c67c:	ea000009 	b	2000c6a8 <vsnprintf+0x6fc>
2000c680:	e51b2040 	ldr	a3, [fp, #-64]	; 0x40
2000c684:	e51b303c 	ldr	a4, [fp, #-60]	; 0x3c
2000c688:	e1520003 	cmp	a3, a4
2000c68c:	8a000002 	bhi	2000c69c <vsnprintf+0x6f0>
2000c690:	e51b3040 	ldr	a4, [fp, #-64]	; 0x40
2000c694:	e3a02020 	mov	a3, #32
2000c698:	e5c32000 	strb	a3, [a4]
2000c69c:	e51b3040 	ldr	a4, [fp, #-64]	; 0x40
2000c6a0:	e2833001 	add	a4, a4, #1
2000c6a4:	e50b3040 	str	a4, [fp, #-64]	; 0x40
2000c6a8:	e51b202c 	ldr	a3, [fp, #-44]	; 0x2c
2000c6ac:	e51b3058 	ldr	a4, [fp, #-88]	; 0x58
2000c6b0:	e1520003 	cmp	a3, a4
2000c6b4:	d3a03000 	movle	a4, #0
2000c6b8:	c3a03001 	movgt	a4, #1
2000c6bc:	e20320ff 	and	a3, a4, #255	; 0xff
2000c6c0:	e51b302c 	ldr	a4, [fp, #-44]	; 0x2c
2000c6c4:	e2433001 	sub	a4, a4, #1
2000c6c8:	e50b302c 	str	a4, [fp, #-44]	; 0x2c
2000c6cc:	e3520000 	cmp	a3, #0
2000c6d0:	1affffea 	bne	2000c680 <vsnprintf+0x6d4>
2000c6d4:	ea0000f0 	b	2000ca9c <vsnprintf+0xaf0>
2000c6d8:	e51b302c 	ldr	a4, [fp, #-44]	; 0x2c
2000c6dc:	e3730001 	cmn	a4, #1
2000c6e0:	1a000004 	bne	2000c6f8 <vsnprintf+0x74c>
2000c6e4:	e3a03008 	mov	a4, #8
2000c6e8:	e50b302c 	str	a4, [fp, #-44]	; 0x2c
2000c6ec:	e51b3030 	ldr	a4, [fp, #-48]	; 0x30
2000c6f0:	e3833001 	orr	a4, a4, #1
2000c6f4:	e50b3030 	str	a4, [fp, #-48]	; 0x30
2000c6f8:	e51b306c 	ldr	a4, [fp, #-108]	; 0x6c
2000c6fc:	e2833004 	add	a4, a4, #4
2000c700:	e50b306c 	str	a4, [fp, #-108]	; 0x6c
2000c704:	e51b306c 	ldr	a4, [fp, #-108]	; 0x6c
2000c708:	e2433004 	sub	a4, a4, #4
2000c70c:	e5933000 	ldr	a4, [a4]
2000c710:	e1a04003 	mov	v1, a4
2000c714:	e3a05000 	mov	v2, #0
2000c718:	e3a03010 	mov	a4, #16
2000c71c:	e58d3000 	str	a4, [sp]
2000c720:	e51b302c 	ldr	a4, [fp, #-44]	; 0x2c
2000c724:	e58d3004 	str	a4, [sp, #4]
2000c728:	e51b3028 	ldr	a4, [fp, #-40]	; 0x28
2000c72c:	e58d3008 	str	a4, [sp, #8]
2000c730:	e51b3030 	ldr	a4, [fp, #-48]	; 0x30
2000c734:	e58d300c 	str	a4, [sp, #12]
2000c738:	e51b0040 	ldr	a1, [fp, #-64]	; 0x40
2000c73c:	e51b103c 	ldr	a2, [fp, #-60]	; 0x3c
2000c740:	e1a02004 	mov	a3, v1
2000c744:	e1a03005 	mov	a4, v2
2000c748:	ebfffc9e 	bl	2000b9c8 <number>
2000c74c:	e1a03000 	mov	a4, a1
2000c750:	e50b3040 	str	a4, [fp, #-64]	; 0x40
2000c754:	ea0000d0 	b	2000ca9c <vsnprintf+0xaf0>
2000c758:	e51b3024 	ldr	a4, [fp, #-36]	; 0x24
2000c75c:	e353006c 	cmp	a4, #108	; 0x6c
2000c760:	1a00000c 	bne	2000c798 <vsnprintf+0x7ec>
2000c764:	e51b306c 	ldr	a4, [fp, #-108]	; 0x6c
2000c768:	e2833004 	add	a4, a4, #4
2000c76c:	e50b306c 	str	a4, [fp, #-108]	; 0x6c
2000c770:	e51b306c 	ldr	a4, [fp, #-108]	; 0x6c
2000c774:	e2433004 	sub	a4, a4, #4
2000c778:	e5933000 	ldr	a4, [a4]
2000c77c:	e50b3020 	str	a4, [fp, #-32]
2000c780:	e51b2040 	ldr	a3, [fp, #-64]	; 0x40
2000c784:	e51b3060 	ldr	a4, [fp, #-96]	; 0x60
2000c788:	e0632002 	rsb	a3, a4, a3
2000c78c:	e51b3020 	ldr	a4, [fp, #-32]
2000c790:	e5832000 	str	a3, [a4]
2000c794:	ea0000c0 	b	2000ca9c <vsnprintf+0xaf0>
2000c798:	e51b3024 	ldr	a4, [fp, #-36]	; 0x24
2000c79c:	e353005a 	cmp	a4, #90	; 0x5a
2000c7a0:	1a00000d 	bne	2000c7dc <vsnprintf+0x830>
2000c7a4:	e51b306c 	ldr	a4, [fp, #-108]	; 0x6c
2000c7a8:	e2833004 	add	a4, a4, #4
2000c7ac:	e50b306c 	str	a4, [fp, #-108]	; 0x6c
2000c7b0:	e51b306c 	ldr	a4, [fp, #-108]	; 0x6c
2000c7b4:	e2433004 	sub	a4, a4, #4
2000c7b8:	e5933000 	ldr	a4, [a4]
2000c7bc:	e50b301c 	str	a4, [fp, #-28]
2000c7c0:	e51b2040 	ldr	a3, [fp, #-64]	; 0x40
2000c7c4:	e51b3060 	ldr	a4, [fp, #-96]	; 0x60
2000c7c8:	e0633002 	rsb	a4, a4, a3
2000c7cc:	e1a02003 	mov	a3, a4
2000c7d0:	e51b301c 	ldr	a4, [fp, #-28]
2000c7d4:	e5832000 	str	a3, [a4]
2000c7d8:	ea0000af 	b	2000ca9c <vsnprintf+0xaf0>
2000c7dc:	e51b306c 	ldr	a4, [fp, #-108]	; 0x6c
2000c7e0:	e2833004 	add	a4, a4, #4
2000c7e4:	e50b306c 	str	a4, [fp, #-108]	; 0x6c
2000c7e8:	e51b306c 	ldr	a4, [fp, #-108]	; 0x6c
2000c7ec:	e2433004 	sub	a4, a4, #4
2000c7f0:	e5933000 	ldr	a4, [a4]
2000c7f4:	e50b3018 	str	a4, [fp, #-24]
2000c7f8:	e51b2040 	ldr	a3, [fp, #-64]	; 0x40
2000c7fc:	e51b3060 	ldr	a4, [fp, #-96]	; 0x60
2000c800:	e0632002 	rsb	a3, a4, a3
2000c804:	e51b3018 	ldr	a4, [fp, #-24]
2000c808:	e5832000 	str	a3, [a4]
2000c80c:	ea0000a2 	b	2000ca9c <vsnprintf+0xaf0>
2000c810:	e51b2040 	ldr	a3, [fp, #-64]	; 0x40
2000c814:	e51b303c 	ldr	a4, [fp, #-60]	; 0x3c
2000c818:	e1520003 	cmp	a3, a4
2000c81c:	8a000002 	bhi	2000c82c <vsnprintf+0x880>
2000c820:	e51b3040 	ldr	a4, [fp, #-64]	; 0x40
2000c824:	e3a02025 	mov	a3, #37	; 0x25
2000c828:	e5c32000 	strb	a3, [a4]
2000c82c:	e51b3040 	ldr	a4, [fp, #-64]	; 0x40
2000c830:	e2833001 	add	a4, a4, #1
2000c834:	e50b3040 	str	a4, [fp, #-64]	; 0x40
2000c838:	ea000097 	b	2000ca9c <vsnprintf+0xaf0>
2000c83c:	e3a03008 	mov	a4, #8
2000c840:	e50b3044 	str	a4, [fp, #-68]	; 0x44
2000c844:	ea000027 	b	2000c8e8 <vsnprintf+0x93c>
2000c848:	e51b3030 	ldr	a4, [fp, #-48]	; 0x30
2000c84c:	e3833040 	orr	a4, a4, #64	; 0x40
2000c850:	e50b3030 	str	a4, [fp, #-48]	; 0x30
2000c854:	e3a03010 	mov	a4, #16
2000c858:	e50b3044 	str	a4, [fp, #-68]	; 0x44
2000c85c:	ea000021 	b	2000c8e8 <vsnprintf+0x93c>
2000c860:	e51b3030 	ldr	a4, [fp, #-48]	; 0x30
2000c864:	e3833002 	orr	a4, a4, #2
2000c868:	e50b3030 	str	a4, [fp, #-48]	; 0x30
2000c86c:	ea00001d 	b	2000c8e8 <vsnprintf+0x93c>
2000c870:	e51b2040 	ldr	a3, [fp, #-64]	; 0x40
2000c874:	e51b303c 	ldr	a4, [fp, #-60]	; 0x3c
2000c878:	e1520003 	cmp	a3, a4
2000c87c:	8a000002 	bhi	2000c88c <vsnprintf+0x8e0>
2000c880:	e51b3040 	ldr	a4, [fp, #-64]	; 0x40
2000c884:	e3a02025 	mov	a3, #37	; 0x25
2000c888:	e5c32000 	strb	a3, [a4]
2000c88c:	e51b3040 	ldr	a4, [fp, #-64]	; 0x40
2000c890:	e2833001 	add	a4, a4, #1
2000c894:	e50b3040 	str	a4, [fp, #-64]	; 0x40
2000c898:	e51b3068 	ldr	a4, [fp, #-104]	; 0x68
2000c89c:	e5d33000 	ldrb	a4, [a4]
2000c8a0:	e3530000 	cmp	a4, #0
2000c8a4:	0a00000b 	beq	2000c8d8 <vsnprintf+0x92c>
2000c8a8:	e51b2040 	ldr	a3, [fp, #-64]	; 0x40
2000c8ac:	e51b303c 	ldr	a4, [fp, #-60]	; 0x3c
2000c8b0:	e1520003 	cmp	a3, a4
2000c8b4:	8a000003 	bhi	2000c8c8 <vsnprintf+0x91c>
2000c8b8:	e51b3068 	ldr	a4, [fp, #-104]	; 0x68
2000c8bc:	e5d33000 	ldrb	a4, [a4]
2000c8c0:	e51b2040 	ldr	a3, [fp, #-64]	; 0x40
2000c8c4:	e5c23000 	strb	a4, [a3]
2000c8c8:	e51b3040 	ldr	a4, [fp, #-64]	; 0x40
2000c8cc:	e2833001 	add	a4, a4, #1
2000c8d0:	e50b3040 	str	a4, [fp, #-64]	; 0x40
2000c8d4:	ea000070 	b	2000ca9c <vsnprintf+0xaf0>
2000c8d8:	e51b3068 	ldr	a4, [fp, #-104]	; 0x68
2000c8dc:	e2433001 	sub	a4, a4, #1
2000c8e0:	e50b3068 	str	a4, [fp, #-104]	; 0x68
2000c8e4:	ea00006c 	b	2000ca9c <vsnprintf+0xaf0>
2000c8e8:	e51b3024 	ldr	a4, [fp, #-36]	; 0x24
2000c8ec:	e353004c 	cmp	a4, #76	; 0x4c
2000c8f0:	1a000008 	bne	2000c918 <vsnprintf+0x96c>
2000c8f4:	e51b306c 	ldr	a4, [fp, #-108]	; 0x6c
2000c8f8:	e2833008 	add	a4, a4, #8
2000c8fc:	e50b306c 	str	a4, [fp, #-108]	; 0x6c
2000c900:	e51b306c 	ldr	a4, [fp, #-108]	; 0x6c
2000c904:	e2433008 	sub	a4, a4, #8
2000c908:	e8930018 	ldm	a4, {a4, v1}
2000c90c:	e50b3054 	str	a4, [fp, #-84]	; 0x54
2000c910:	e50b4050 	str	v1, [fp, #-80]	; 0x50
2000c914:	ea00004f 	b	2000ca58 <vsnprintf+0xaac>
2000c918:	e51b3024 	ldr	a4, [fp, #-36]	; 0x24
2000c91c:	e353006c 	cmp	a4, #108	; 0x6c
2000c920:	1a000011 	bne	2000c96c <vsnprintf+0x9c0>
2000c924:	e51b306c 	ldr	a4, [fp, #-108]	; 0x6c
2000c928:	e2833004 	add	a4, a4, #4
2000c92c:	e50b306c 	str	a4, [fp, #-108]	; 0x6c
2000c930:	e51b306c 	ldr	a4, [fp, #-108]	; 0x6c
2000c934:	e2433004 	sub	a4, a4, #4
2000c938:	e5933000 	ldr	a4, [a4]
2000c93c:	e3a04000 	mov	v1, #0
2000c940:	e50b3054 	str	a4, [fp, #-84]	; 0x54
2000c944:	e50b4050 	str	v1, [fp, #-80]	; 0x50
2000c948:	e51b3030 	ldr	a4, [fp, #-48]	; 0x30
2000c94c:	e2033002 	and	a4, a4, #2
2000c950:	e3530000 	cmp	a4, #0
2000c954:	0a00003f 	beq	2000ca58 <vsnprintf+0xaac>
2000c958:	e51b3054 	ldr	a4, [fp, #-84]	; 0x54
2000c95c:	e1a04fc3 	asr	v1, a4, #31
2000c960:	e50b3054 	str	a4, [fp, #-84]	; 0x54
2000c964:	e50b4050 	str	v1, [fp, #-80]	; 0x50
2000c968:	ea00003a 	b	2000ca58 <vsnprintf+0xaac>
2000c96c:	e51b3024 	ldr	a4, [fp, #-36]	; 0x24
2000c970:	e353005a 	cmp	a4, #90	; 0x5a
2000c974:	1a000009 	bne	2000c9a0 <vsnprintf+0x9f4>
2000c978:	e51b306c 	ldr	a4, [fp, #-108]	; 0x6c
2000c97c:	e2833004 	add	a4, a4, #4
2000c980:	e50b306c 	str	a4, [fp, #-108]	; 0x6c
2000c984:	e51b306c 	ldr	a4, [fp, #-108]	; 0x6c
2000c988:	e2433004 	sub	a4, a4, #4
2000c98c:	e5933000 	ldr	a4, [a4]
2000c990:	e3a04000 	mov	v1, #0
2000c994:	e50b3054 	str	a4, [fp, #-84]	; 0x54
2000c998:	e50b4050 	str	v1, [fp, #-80]	; 0x50
2000c99c:	ea00002d 	b	2000ca58 <vsnprintf+0xaac>
2000c9a0:	e51b3024 	ldr	a4, [fp, #-36]	; 0x24
2000c9a4:	e3530068 	cmp	a4, #104	; 0x68
2000c9a8:	1a000019 	bne	2000ca14 <vsnprintf+0xa68>
2000c9ac:	e51b306c 	ldr	a4, [fp, #-108]	; 0x6c
2000c9b0:	e2833004 	add	a4, a4, #4
2000c9b4:	e50b306c 	str	a4, [fp, #-108]	; 0x6c
2000c9b8:	e51b306c 	ldr	a4, [fp, #-108]	; 0x6c
2000c9bc:	e2433004 	sub	a4, a4, #4
2000c9c0:	e5933000 	ldr	a4, [a4]
2000c9c4:	e1a03803 	lsl	a4, a4, #16
2000c9c8:	e1a03823 	lsr	a4, a4, #16
2000c9cc:	e50b3054 	str	a4, [fp, #-84]	; 0x54
2000c9d0:	e51b3054 	ldr	a4, [fp, #-84]	; 0x54
2000c9d4:	e3a04000 	mov	v1, #0
2000c9d8:	e50b3054 	str	a4, [fp, #-84]	; 0x54
2000c9dc:	e50b4050 	str	v1, [fp, #-80]	; 0x50
2000c9e0:	e51b3030 	ldr	a4, [fp, #-48]	; 0x30
2000c9e4:	e2033002 	and	a4, a4, #2
2000c9e8:	e3530000 	cmp	a4, #0
2000c9ec:	0a000019 	beq	2000ca58 <vsnprintf+0xaac>
2000c9f0:	e15b35b4 	ldrh	a4, [fp, #-84]	; 0xffffffac
2000c9f4:	e1a03803 	lsl	a4, a4, #16
2000c9f8:	e1a03843 	asr	a4, a4, #16
2000c9fc:	e50b3054 	str	a4, [fp, #-84]	; 0x54
2000ca00:	e51b3054 	ldr	a4, [fp, #-84]	; 0x54
2000ca04:	e1a04fc3 	asr	v1, a4, #31
2000ca08:	e50b3054 	str	a4, [fp, #-84]	; 0x54
2000ca0c:	e50b4050 	str	v1, [fp, #-80]	; 0x50
2000ca10:	ea000010 	b	2000ca58 <vsnprintf+0xaac>
2000ca14:	e51b306c 	ldr	a4, [fp, #-108]	; 0x6c
2000ca18:	e2833004 	add	a4, a4, #4
2000ca1c:	e50b306c 	str	a4, [fp, #-108]	; 0x6c
2000ca20:	e51b306c 	ldr	a4, [fp, #-108]	; 0x6c
2000ca24:	e2433004 	sub	a4, a4, #4
2000ca28:	e5933000 	ldr	a4, [a4]
2000ca2c:	e3a04000 	mov	v1, #0
2000ca30:	e50b3054 	str	a4, [fp, #-84]	; 0x54
2000ca34:	e50b4050 	str	v1, [fp, #-80]	; 0x50
2000ca38:	e51b3030 	ldr	a4, [fp, #-48]	; 0x30
2000ca3c:	e2033002 	and	a4, a4, #2
2000ca40:	e3530000 	cmp	a4, #0
2000ca44:	0a000003 	beq	2000ca58 <vsnprintf+0xaac>
2000ca48:	e51b3054 	ldr	a4, [fp, #-84]	; 0x54
2000ca4c:	e1a04fc3 	asr	v1, a4, #31
2000ca50:	e50b3054 	str	a4, [fp, #-84]	; 0x54
2000ca54:	e50b4050 	str	v1, [fp, #-80]	; 0x50
2000ca58:	e24b4054 	sub	v1, fp, #84	; 0x54
2000ca5c:	e8940030 	ldm	v1, {v1, v2}
2000ca60:	e51b3044 	ldr	a4, [fp, #-68]	; 0x44
2000ca64:	e58d3000 	str	a4, [sp]
2000ca68:	e51b302c 	ldr	a4, [fp, #-44]	; 0x2c
2000ca6c:	e58d3004 	str	a4, [sp, #4]
2000ca70:	e51b3028 	ldr	a4, [fp, #-40]	; 0x28
2000ca74:	e58d3008 	str	a4, [sp, #8]
2000ca78:	e51b3030 	ldr	a4, [fp, #-48]	; 0x30
2000ca7c:	e58d300c 	str	a4, [sp, #12]
2000ca80:	e51b0040 	ldr	a1, [fp, #-64]	; 0x40
2000ca84:	e51b103c 	ldr	a2, [fp, #-60]	; 0x3c
2000ca88:	e1a02004 	mov	a3, v1
2000ca8c:	e1a03005 	mov	a4, v2
2000ca90:	ebfffbcc 	bl	2000b9c8 <number>
2000ca94:	e1a03000 	mov	a4, a1
2000ca98:	e50b3040 	str	a4, [fp, #-64]	; 0x40
2000ca9c:	e51b3068 	ldr	a4, [fp, #-104]	; 0x68
2000caa0:	e2833001 	add	a4, a4, #1
2000caa4:	e50b3068 	str	a4, [fp, #-104]	; 0x68
2000caa8:	e51b3068 	ldr	a4, [fp, #-104]	; 0x68
2000caac:	e5d33000 	ldrb	a4, [a4]
2000cab0:	e3530000 	cmp	a4, #0
2000cab4:	1afffd5d 	bne	2000c030 <vsnprintf+0x84>
2000cab8:	e51b2040 	ldr	a3, [fp, #-64]	; 0x40
2000cabc:	e51b303c 	ldr	a4, [fp, #-60]	; 0x3c
2000cac0:	e1520003 	cmp	a3, a4
2000cac4:	8a000003 	bhi	2000cad8 <vsnprintf+0xb2c>
2000cac8:	e51b3040 	ldr	a4, [fp, #-64]	; 0x40
2000cacc:	e3a02000 	mov	a3, #0
2000cad0:	e5c32000 	strb	a3, [a4]
2000cad4:	ea000005 	b	2000caf0 <vsnprintf+0xb44>
2000cad8:	e51b3064 	ldr	a4, [fp, #-100]	; 0x64
2000cadc:	e3530000 	cmp	a4, #0
2000cae0:	0a000002 	beq	2000caf0 <vsnprintf+0xb44>
2000cae4:	e51b303c 	ldr	a4, [fp, #-60]	; 0x3c
2000cae8:	e3a02000 	mov	a3, #0
2000caec:	e5c32000 	strb	a3, [a4]
2000caf0:	e51b2040 	ldr	a3, [fp, #-64]	; 0x40
2000caf4:	e51b3060 	ldr	a4, [fp, #-96]	; 0x60
2000caf8:	e0633002 	rsb	a4, a4, a3
2000cafc:	e1a00003 	mov	a1, a4
2000cb00:	e24bd014 	sub	sp, fp, #20
2000cb04:	e89da830 	ldm	sp, {v1, v2, fp, sp, pc}
2000cb08:	000077c8 	andeq	v4, a1, v5, asr #15
2000cb0c:	00000064 	andeq	a1, a1, v1, rrx
2000cb10:	fffff9d0 			; <UNDEFINED> instruction: 0xfffff9d0

2000cb14 <printk>:
2000cb14:	e1a0c00d 	mov	ip, sp
2000cb18:	e92d000f 	push	{a1, a2, a3, a4}
2000cb1c:	e92dd810 	push	{v1, fp, ip, lr, pc}
2000cb20:	e24cb014 	sub	fp, ip, #20
2000cb24:	e24dd014 	sub	sp, sp, #20
2000cb28:	e59f4094 	ldr	v1, [pc, #148]	; 2000cbc4 <printk+0xb0>
2000cb2c:	e08f4004 	add	v1, pc, v1
2000cb30:	e28b3004 	add	a4, fp, #4
2000cb34:	e2833004 	add	a4, a4, #4
2000cb38:	e50b3020 	str	a4, [fp, #-32]
2000cb3c:	e59b2004 	ldr	a3, [fp, #4]
2000cb40:	e59f3080 	ldr	a4, [pc, #128]	; 2000cbc8 <printk+0xb4>
2000cb44:	e0843003 	add	a4, v1, a4
2000cb48:	e1a00003 	mov	a1, a4
2000cb4c:	e3a01b01 	mov	a2, #1024	; 0x400
2000cb50:	e51b3020 	ldr	a4, [fp, #-32]
2000cb54:	ebfffd14 	bl	2000bfac <vsnprintf>
2000cb58:	e1a03000 	mov	a4, a1
2000cb5c:	e50b301c 	str	a4, [fp, #-28]
2000cb60:	e59f3060 	ldr	a4, [pc, #96]	; 2000cbc8 <printk+0xb4>
2000cb64:	e0843003 	add	a4, v1, a4
2000cb68:	e50b3018 	str	a4, [fp, #-24]
2000cb6c:	ea00000c 	b	2000cba4 <printk+0x90>
2000cb70:	e51b3018 	ldr	a4, [fp, #-24]
2000cb74:	e5d33000 	ldrb	a4, [a4]
2000cb78:	e353000a 	cmp	a4, #10
2000cb7c:	1a000001 	bne	2000cb88 <printk+0x74>
2000cb80:	e3a0000d 	mov	a1, #13
2000cb84:	eb00088f 	bl	2000edc8 <putc>
2000cb88:	e51b3018 	ldr	a4, [fp, #-24]
2000cb8c:	e5d33000 	ldrb	a4, [a4]
2000cb90:	e1a00003 	mov	a1, a4
2000cb94:	eb00088b 	bl	2000edc8 <putc>
2000cb98:	e51b3018 	ldr	a4, [fp, #-24]
2000cb9c:	e2833001 	add	a4, a4, #1
2000cba0:	e50b3018 	str	a4, [fp, #-24]
2000cba4:	e51b3018 	ldr	a4, [fp, #-24]
2000cba8:	e5d33000 	ldrb	a4, [a4]
2000cbac:	e3530000 	cmp	a4, #0
2000cbb0:	1affffee 	bne	2000cb70 <printk+0x5c>
2000cbb4:	e51b301c 	ldr	a4, [fp, #-28]
2000cbb8:	e1a00003 	mov	a1, a4
2000cbbc:	e24bd010 	sub	sp, fp, #16
2000cbc0:	e89da810 	ldm	sp, {v1, fp, sp, pc}
2000cbc4:	00006c64 	andeq	v3, a1, v1, ror #24
2000cbc8:	000f4328 	andeq	v1, pc, v5, lsr #6

2000cbcc <printf>:
2000cbcc:	e1a0c00d 	mov	ip, sp
2000cbd0:	e92d000f 	push	{a1, a2, a3, a4}
2000cbd4:	e92dd810 	push	{v1, fp, ip, lr, pc}
2000cbd8:	e24cb014 	sub	fp, ip, #20
2000cbdc:	e24dd014 	sub	sp, sp, #20
2000cbe0:	e59f409c 	ldr	v1, [pc, #156]	; 2000cc84 <printf+0xb8>
2000cbe4:	e08f4004 	add	v1, pc, v1
2000cbe8:	e28b3004 	add	a4, fp, #4
2000cbec:	e2833004 	add	a4, a4, #4
2000cbf0:	e50b3020 	str	a4, [fp, #-32]
2000cbf4:	e59b2004 	ldr	a3, [fp, #4]
2000cbf8:	e59f3088 	ldr	a4, [pc, #136]	; 2000cc88 <printf+0xbc>
2000cbfc:	e0843003 	add	a4, v1, a4
2000cc00:	e1a00003 	mov	a1, a4
2000cc04:	e3a01b01 	mov	a2, #1024	; 0x400
2000cc08:	e51b3020 	ldr	a4, [fp, #-32]
2000cc0c:	ebfffce6 	bl	2000bfac <vsnprintf>
2000cc10:	e1a03000 	mov	a4, a1
2000cc14:	e50b301c 	str	a4, [fp, #-28]
2000cc18:	eb0004c8 	bl	2000df40 <vk_scheduler_lock>
2000cc1c:	e59f3064 	ldr	a4, [pc, #100]	; 2000cc88 <printf+0xbc>
2000cc20:	e0843003 	add	a4, v1, a4
2000cc24:	e50b3018 	str	a4, [fp, #-24]
2000cc28:	ea00000c 	b	2000cc60 <printf+0x94>
2000cc2c:	e51b3018 	ldr	a4, [fp, #-24]
2000cc30:	e5d33000 	ldrb	a4, [a4]
2000cc34:	e353000a 	cmp	a4, #10
2000cc38:	1a000001 	bne	2000cc44 <printf+0x78>
2000cc3c:	e3a0000d 	mov	a1, #13
2000cc40:	eb000860 	bl	2000edc8 <putc>
2000cc44:	e51b3018 	ldr	a4, [fp, #-24]
2000cc48:	e5d33000 	ldrb	a4, [a4]
2000cc4c:	e1a00003 	mov	a1, a4
2000cc50:	eb00085c 	bl	2000edc8 <putc>
2000cc54:	e51b3018 	ldr	a4, [fp, #-24]
2000cc58:	e2833001 	add	a4, a4, #1
2000cc5c:	e50b3018 	str	a4, [fp, #-24]
2000cc60:	e51b3018 	ldr	a4, [fp, #-24]
2000cc64:	e5d33000 	ldrb	a4, [a4]
2000cc68:	e3530000 	cmp	a4, #0
2000cc6c:	1affffee 	bne	2000cc2c <printf+0x60>
2000cc70:	eb0004cc 	bl	2000dfa8 <vk_scheduler_unlock>
2000cc74:	e51b301c 	ldr	a4, [fp, #-28]
2000cc78:	e1a00003 	mov	a1, a4
2000cc7c:	e24bd010 	sub	sp, fp, #16
2000cc80:	e89da810 	ldm	sp, {v1, fp, sp, pc}
2000cc84:	00006bac 	andeq	v3, a1, ip, lsr #23
2000cc88:	000f4728 	andeq	v1, pc, v5, lsr #14

2000cc8c <vk_init_kdata_struct>:
2000cc8c:	e1a0c00d 	mov	ip, sp
2000cc90:	e92dd810 	push	{v1, fp, ip, lr, pc}
2000cc94:	e24cb004 	sub	fp, ip, #4
2000cc98:	e24dd00c 	sub	sp, sp, #12
2000cc9c:	e59f4058 	ldr	v1, [pc, #88]	; 2000ccfc <vk_init_kdata_struct+0x70>
2000cca0:	e08f4004 	add	v1, pc, v1
2000cca4:	eb0000c6 	bl	2000cfc4 <vk_init_ready_queue>
2000cca8:	eb00008b 	bl	2000cedc <vk_init_wait_queue>
2000ccac:	eb000050 	bl	2000cdf4 <vk_init_tcb_log_queue>
2000ccb0:	ebfff039 	bl	20008d9c <vk_init_dd_table>
2000ccb4:	eb000013 	bl	2000cd08 <vk_init_thread_join_table>
2000ccb8:	e59f3040 	ldr	a4, [pc, #64]	; 2000cd00 <vk_init_kdata_struct+0x74>
2000ccbc:	e7943003 	ldr	a4, [v1, a4]
2000ccc0:	e1a00003 	mov	a1, a4
2000ccc4:	e3a01000 	mov	a2, #0
2000ccc8:	e3a02084 	mov	a3, #132	; 0x84
2000cccc:	eb0016cb 	bl	20012800 <memset>
2000ccd0:	e59f3028 	ldr	a4, [pc, #40]	; 2000cd00 <vk_init_kdata_struct+0x74>
2000ccd4:	e7942003 	ldr	a3, [v1, a4]
2000ccd8:	e3a03004 	mov	a4, #4
2000ccdc:	e5823000 	str	a4, [a3]
2000cce0:	e59f301c 	ldr	a4, [pc, #28]	; 2000cd04 <vk_init_kdata_struct+0x78>
2000cce4:	e7942003 	ldr	a3, [v1, a4]
2000cce8:	e59f3010 	ldr	a4, [pc, #16]	; 2000cd00 <vk_init_kdata_struct+0x74>
2000ccec:	e7943003 	ldr	a4, [v1, a4]
2000ccf0:	e5823000 	str	a4, [a3]
2000ccf4:	e24bd010 	sub	sp, fp, #16
2000ccf8:	e89da810 	ldm	sp, {v1, fp, sp, pc}
2000ccfc:	00006af0 	strdeq	v3, [a1], -a1
2000cd00:	00000084 	andeq	a1, a1, v1, lsl #1
2000cd04:	000000a4 	andeq	a1, a1, v1, lsr #1

2000cd08 <vk_init_thread_join_table>:
2000cd08:	e1a0c00d 	mov	ip, sp
2000cd0c:	e92dd800 	push	{fp, ip, lr, pc}
2000cd10:	e24cb004 	sub	fp, ip, #4
2000cd14:	e24dd010 	sub	sp, sp, #16
2000cd18:	e59f00cc 	ldr	a1, [pc, #204]	; 2000cdec <vk_init_thread_join_table+0xe4>
2000cd1c:	e50b0018 	str	a1, [fp, #-24]
2000cd20:	e51b3018 	ldr	a4, [fp, #-24]
2000cd24:	e08f3003 	add	a4, pc, a4
2000cd28:	e50b3018 	str	a4, [fp, #-24]
2000cd2c:	e3a03000 	mov	a4, #0
2000cd30:	e54b300d 	strb	a4, [fp, #-13]
2000cd34:	ea000027 	b	2000cdd8 <vk_init_thread_join_table+0xd0>
2000cd38:	e55b200d 	ldrb	a3, [fp, #-13]
2000cd3c:	e59f30ac 	ldr	a4, [pc, #172]	; 2000cdf0 <vk_init_thread_join_table+0xe8>
2000cd40:	e51b0018 	ldr	a1, [fp, #-24]
2000cd44:	e7901003 	ldr	a2, [a1, a4]
2000cd48:	e1a03002 	mov	a4, a3
2000cd4c:	e1a02103 	lsl	a3, a4, #2
2000cd50:	e1a03102 	lsl	a4, a3, #2
2000cd54:	e0623003 	rsb	a4, a3, a4
2000cd58:	e0812003 	add	a3, a2, a4
2000cd5c:	e3a03000 	mov	a4, #0
2000cd60:	e5823000 	str	a4, [a3]
2000cd64:	e55b200d 	ldrb	a3, [fp, #-13]
2000cd68:	e59f3080 	ldr	a4, [pc, #128]	; 2000cdf0 <vk_init_thread_join_table+0xe8>
2000cd6c:	e51b0018 	ldr	a1, [fp, #-24]
2000cd70:	e7901003 	ldr	a2, [a1, a4]
2000cd74:	e3a00004 	mov	a1, #4
2000cd78:	e1a03002 	mov	a4, a3
2000cd7c:	e1a02103 	lsl	a3, a4, #2
2000cd80:	e1a03102 	lsl	a4, a3, #2
2000cd84:	e0623003 	rsb	a4, a3, a4
2000cd88:	e0813003 	add	a4, a2, a4
2000cd8c:	e0832000 	add	a3, a4, a1
2000cd90:	e3a03000 	mov	a4, #0
2000cd94:	e5823000 	str	a4, [a3]
2000cd98:	e55b200d 	ldrb	a3, [fp, #-13]
2000cd9c:	e59f304c 	ldr	a4, [pc, #76]	; 2000cdf0 <vk_init_thread_join_table+0xe8>
2000cda0:	e51b0018 	ldr	a1, [fp, #-24]
2000cda4:	e7901003 	ldr	a2, [a1, a4]
2000cda8:	e3a00008 	mov	a1, #8
2000cdac:	e1a03002 	mov	a4, a3
2000cdb0:	e1a02103 	lsl	a3, a4, #2
2000cdb4:	e1a03102 	lsl	a4, a3, #2
2000cdb8:	e0623003 	rsb	a4, a3, a4
2000cdbc:	e0813003 	add	a4, a2, a4
2000cdc0:	e0832000 	add	a3, a4, a1
2000cdc4:	e3a03000 	mov	a4, #0
2000cdc8:	e5823000 	str	a4, [a3]
2000cdcc:	e55b300d 	ldrb	a4, [fp, #-13]
2000cdd0:	e2833001 	add	a4, a4, #1
2000cdd4:	e54b300d 	strb	a4, [fp, #-13]
2000cdd8:	e55b300d 	ldrb	a4, [fp, #-13]
2000cddc:	e3530009 	cmp	a4, #9
2000cde0:	9affffd4 	bls	2000cd38 <vk_init_thread_join_table+0x30>
2000cde4:	e24bd00c 	sub	sp, fp, #12
2000cde8:	e89da800 	ldm	sp, {fp, sp, pc}
2000cdec:	00006a6c 	andeq	v3, a1, ip, ror #20
2000cdf0:	000000bc 	strheq	a1, [a1], -ip

2000cdf4 <vk_init_tcb_log_queue>:
2000cdf4:	e1a0c00d 	mov	ip, sp
2000cdf8:	e92dd800 	push	{fp, ip, lr, pc}
2000cdfc:	e24cb004 	sub	fp, ip, #4
2000ce00:	e24dd010 	sub	sp, sp, #16
2000ce04:	e59f00c8 	ldr	a1, [pc, #200]	; 2000ced4 <vk_init_tcb_log_queue+0xe0>
2000ce08:	e50b0018 	str	a1, [fp, #-24]
2000ce0c:	e51b1018 	ldr	a2, [fp, #-24]
2000ce10:	e08f1001 	add	a2, pc, a2
2000ce14:	e50b1018 	str	a2, [fp, #-24]
2000ce18:	e3a03000 	mov	a4, #0
2000ce1c:	e54b300d 	strb	a4, [fp, #-13]
2000ce20:	ea000026 	b	2000cec0 <vk_init_tcb_log_queue+0xcc>
2000ce24:	e55b100d 	ldrb	a2, [fp, #-13]
2000ce28:	e55b200d 	ldrb	a3, [fp, #-13]
2000ce2c:	e59f30a4 	ldr	a4, [pc, #164]	; 2000ced8 <vk_init_tcb_log_queue+0xe4>
2000ce30:	e51b0018 	ldr	a1, [fp, #-24]
2000ce34:	e7903003 	ldr	a4, [a1, a4]
2000ce38:	e7832201 	str	a3, [a4, a2, lsl #4]
2000ce3c:	e55b000d 	ldrb	a1, [fp, #-13]
2000ce40:	e59f3090 	ldr	a4, [pc, #144]	; 2000ced8 <vk_init_tcb_log_queue+0xe4>
2000ce44:	e51b1018 	ldr	a2, [fp, #-24]
2000ce48:	e7912003 	ldr	a3, [a2, a4]
2000ce4c:	e3a01004 	mov	a2, #4
2000ce50:	e1a03200 	lsl	a4, a1, #4
2000ce54:	e0823003 	add	a4, a3, a4
2000ce58:	e0832001 	add	a3, a4, a2
2000ce5c:	e3a03000 	mov	a4, #0
2000ce60:	e5823000 	str	a4, [a3]
2000ce64:	e55b200d 	ldrb	a3, [fp, #-13]
2000ce68:	e59f3068 	ldr	a4, [pc, #104]	; 2000ced8 <vk_init_tcb_log_queue+0xe4>
2000ce6c:	e51b0018 	ldr	a1, [fp, #-24]
2000ce70:	e7901003 	ldr	a2, [a1, a4]
2000ce74:	e1a03082 	lsl	a4, a3, #1
2000ce78:	e2832001 	add	a3, a4, #1
2000ce7c:	e3a03000 	mov	a4, #0
2000ce80:	e7813182 	str	a4, [a2, a3, lsl #3]
2000ce84:	e55b200d 	ldrb	a3, [fp, #-13]
2000ce88:	e59f3048 	ldr	a4, [pc, #72]	; 2000ced8 <vk_init_tcb_log_queue+0xe4>
2000ce8c:	e51b0018 	ldr	a1, [fp, #-24]
2000ce90:	e7901003 	ldr	a2, [a1, a4]
2000ce94:	e1a03082 	lsl	a4, a3, #1
2000ce98:	e2833001 	add	a4, a4, #1
2000ce9c:	e3a02004 	mov	a3, #4
2000cea0:	e1a03183 	lsl	a4, a4, #3
2000cea4:	e0813003 	add	a4, a2, a4
2000cea8:	e0832002 	add	a3, a4, a3
2000ceac:	e3a03000 	mov	a4, #0
2000ceb0:	e5823000 	str	a4, [a3]
2000ceb4:	e55b300d 	ldrb	a4, [fp, #-13]
2000ceb8:	e2833001 	add	a4, a4, #1
2000cebc:	e54b300d 	strb	a4, [fp, #-13]
2000cec0:	e55b300d 	ldrb	a4, [fp, #-13]
2000cec4:	e353001f 	cmp	a4, #31
2000cec8:	9affffd5 	bls	2000ce24 <vk_init_tcb_log_queue+0x30>
2000cecc:	e24bd00c 	sub	sp, fp, #12
2000ced0:	e89da800 	ldm	sp, {fp, sp, pc}
2000ced4:	00006980 	andeq	v3, a1, a1, lsl #19
2000ced8:	00000090 	muleq	a1, a1, a1

2000cedc <vk_init_wait_queue>:
2000cedc:	e1a0c00d 	mov	ip, sp
2000cee0:	e92dd800 	push	{fp, ip, lr, pc}
2000cee4:	e24cb004 	sub	fp, ip, #4
2000cee8:	e24dd010 	sub	sp, sp, #16
2000ceec:	e59f00c8 	ldr	a1, [pc, #200]	; 2000cfbc <vk_init_wait_queue+0xe0>
2000cef0:	e50b0018 	str	a1, [fp, #-24]
2000cef4:	e51b1018 	ldr	a2, [fp, #-24]
2000cef8:	e08f1001 	add	a2, pc, a2
2000cefc:	e50b1018 	str	a2, [fp, #-24]
2000cf00:	e3a03000 	mov	a4, #0
2000cf04:	e54b300d 	strb	a4, [fp, #-13]
2000cf08:	ea000026 	b	2000cfa8 <vk_init_wait_queue+0xcc>
2000cf0c:	e55b100d 	ldrb	a2, [fp, #-13]
2000cf10:	e55b200d 	ldrb	a3, [fp, #-13]
2000cf14:	e59f30a4 	ldr	a4, [pc, #164]	; 2000cfc0 <vk_init_wait_queue+0xe4>
2000cf18:	e51b0018 	ldr	a1, [fp, #-24]
2000cf1c:	e7903003 	ldr	a4, [a1, a4]
2000cf20:	e7832201 	str	a3, [a4, a2, lsl #4]
2000cf24:	e55b000d 	ldrb	a1, [fp, #-13]
2000cf28:	e59f3090 	ldr	a4, [pc, #144]	; 2000cfc0 <vk_init_wait_queue+0xe4>
2000cf2c:	e51b1018 	ldr	a2, [fp, #-24]
2000cf30:	e7912003 	ldr	a3, [a2, a4]
2000cf34:	e3a01004 	mov	a2, #4
2000cf38:	e1a03200 	lsl	a4, a1, #4
2000cf3c:	e0823003 	add	a4, a3, a4
2000cf40:	e0832001 	add	a3, a4, a2
2000cf44:	e3a03000 	mov	a4, #0
2000cf48:	e5823000 	str	a4, [a3]
2000cf4c:	e55b200d 	ldrb	a3, [fp, #-13]
2000cf50:	e59f3068 	ldr	a4, [pc, #104]	; 2000cfc0 <vk_init_wait_queue+0xe4>
2000cf54:	e51b0018 	ldr	a1, [fp, #-24]
2000cf58:	e7901003 	ldr	a2, [a1, a4]
2000cf5c:	e1a03082 	lsl	a4, a3, #1
2000cf60:	e2832001 	add	a3, a4, #1
2000cf64:	e3a03000 	mov	a4, #0
2000cf68:	e7813182 	str	a4, [a2, a3, lsl #3]
2000cf6c:	e55b200d 	ldrb	a3, [fp, #-13]
2000cf70:	e59f3048 	ldr	a4, [pc, #72]	; 2000cfc0 <vk_init_wait_queue+0xe4>
2000cf74:	e51b0018 	ldr	a1, [fp, #-24]
2000cf78:	e7901003 	ldr	a2, [a1, a4]
2000cf7c:	e1a03082 	lsl	a4, a3, #1
2000cf80:	e2833001 	add	a4, a4, #1
2000cf84:	e3a02004 	mov	a3, #4
2000cf88:	e1a03183 	lsl	a4, a4, #3
2000cf8c:	e0813003 	add	a4, a2, a4
2000cf90:	e0832002 	add	a3, a4, a3
2000cf94:	e3a03000 	mov	a4, #0
2000cf98:	e5823000 	str	a4, [a3]
2000cf9c:	e55b300d 	ldrb	a4, [fp, #-13]
2000cfa0:	e2833001 	add	a4, a4, #1
2000cfa4:	e54b300d 	strb	a4, [fp, #-13]
2000cfa8:	e55b300d 	ldrb	a4, [fp, #-13]
2000cfac:	e353001f 	cmp	a4, #31
2000cfb0:	9affffd5 	bls	2000cf0c <vk_init_wait_queue+0x30>
2000cfb4:	e24bd00c 	sub	sp, fp, #12
2000cfb8:	e89da800 	ldm	sp, {fp, sp, pc}
2000cfbc:	00006898 	muleq	a1, v5, v5
2000cfc0:	000000b0 	strheq	a1, [a1], -a1	; <UNPREDICTABLE>

2000cfc4 <vk_init_ready_queue>:
2000cfc4:	e1a0c00d 	mov	ip, sp
2000cfc8:	e92dd800 	push	{fp, ip, lr, pc}
2000cfcc:	e24cb004 	sub	fp, ip, #4
2000cfd0:	e24dd010 	sub	sp, sp, #16
2000cfd4:	e59f00c8 	ldr	a1, [pc, #200]	; 2000d0a4 <vk_init_ready_queue+0xe0>
2000cfd8:	e50b0018 	str	a1, [fp, #-24]
2000cfdc:	e51b1018 	ldr	a2, [fp, #-24]
2000cfe0:	e08f1001 	add	a2, pc, a2
2000cfe4:	e50b1018 	str	a2, [fp, #-24]
2000cfe8:	e3a03000 	mov	a4, #0
2000cfec:	e54b300d 	strb	a4, [fp, #-13]
2000cff0:	ea000026 	b	2000d090 <vk_init_ready_queue+0xcc>
2000cff4:	e55b100d 	ldrb	a2, [fp, #-13]
2000cff8:	e55b200d 	ldrb	a3, [fp, #-13]
2000cffc:	e59f30a4 	ldr	a4, [pc, #164]	; 2000d0a8 <vk_init_ready_queue+0xe4>
2000d000:	e51b0018 	ldr	a1, [fp, #-24]
2000d004:	e7903003 	ldr	a4, [a1, a4]
2000d008:	e7832201 	str	a3, [a4, a2, lsl #4]
2000d00c:	e55b000d 	ldrb	a1, [fp, #-13]
2000d010:	e59f3090 	ldr	a4, [pc, #144]	; 2000d0a8 <vk_init_ready_queue+0xe4>
2000d014:	e51b1018 	ldr	a2, [fp, #-24]
2000d018:	e7912003 	ldr	a3, [a2, a4]
2000d01c:	e3a01004 	mov	a2, #4
2000d020:	e1a03200 	lsl	a4, a1, #4
2000d024:	e0823003 	add	a4, a3, a4
2000d028:	e0832001 	add	a3, a4, a2
2000d02c:	e3a03000 	mov	a4, #0
2000d030:	e5823000 	str	a4, [a3]
2000d034:	e55b200d 	ldrb	a3, [fp, #-13]
2000d038:	e59f3068 	ldr	a4, [pc, #104]	; 2000d0a8 <vk_init_ready_queue+0xe4>
2000d03c:	e51b0018 	ldr	a1, [fp, #-24]
2000d040:	e7901003 	ldr	a2, [a1, a4]
2000d044:	e1a03082 	lsl	a4, a3, #1
2000d048:	e2832001 	add	a3, a4, #1
2000d04c:	e3a03000 	mov	a4, #0
2000d050:	e7813182 	str	a4, [a2, a3, lsl #3]
2000d054:	e55b200d 	ldrb	a3, [fp, #-13]
2000d058:	e59f3048 	ldr	a4, [pc, #72]	; 2000d0a8 <vk_init_ready_queue+0xe4>
2000d05c:	e51b0018 	ldr	a1, [fp, #-24]
2000d060:	e7901003 	ldr	a2, [a1, a4]
2000d064:	e1a03082 	lsl	a4, a3, #1
2000d068:	e2833001 	add	a4, a4, #1
2000d06c:	e3a02004 	mov	a3, #4
2000d070:	e1a03183 	lsl	a4, a4, #3
2000d074:	e0813003 	add	a4, a2, a4
2000d078:	e0832002 	add	a3, a4, a3
2000d07c:	e3a03000 	mov	a4, #0
2000d080:	e5823000 	str	a4, [a3]
2000d084:	e55b300d 	ldrb	a4, [fp, #-13]
2000d088:	e2833001 	add	a4, a4, #1
2000d08c:	e54b300d 	strb	a4, [fp, #-13]
2000d090:	e55b300d 	ldrb	a4, [fp, #-13]
2000d094:	e353001f 	cmp	a4, #31
2000d098:	9affffd5 	bls	2000cff4 <vk_init_ready_queue+0x30>
2000d09c:	e24bd00c 	sub	sp, fp, #12
2000d0a0:	e89da800 	ldm	sp, {fp, sp, pc}
2000d0a4:	000067b0 			; <UNDEFINED> instruction: 0x000067b0
2000d0a8:	00000074 	andeq	a1, a1, v1, ror a1

2000d0ac <vk_enqueue>:
2000d0ac:	e1a0c00d 	mov	ip, sp
2000d0b0:	e92dd800 	push	{fp, ip, lr, pc}
2000d0b4:	e24cb004 	sub	fp, ip, #4
2000d0b8:	e24dd010 	sub	sp, sp, #16
2000d0bc:	e59f2050 	ldr	a3, [pc, #80]	; 2000d114 <vk_enqueue+0x68>
2000d0c0:	e08f2002 	add	a3, pc, a3
2000d0c4:	e50b0018 	str	a1, [fp, #-24]
2000d0c8:	e50b101c 	str	a2, [fp, #-28]
2000d0cc:	e59f3044 	ldr	a4, [pc, #68]	; 2000d118 <vk_enqueue+0x6c>
2000d0d0:	e7923003 	ldr	a4, [a3, a4]
2000d0d4:	e5933000 	ldr	a4, [a4]
2000d0d8:	e5933038 	ldr	a4, [a4, #56]	; 0x38
2000d0dc:	e50b3010 	str	a4, [fp, #-16]
2000d0e0:	e51b3010 	ldr	a4, [fp, #-16]
2000d0e4:	e3530000 	cmp	a4, #0
2000d0e8:	1a000000 	bne	2000d0f0 <vk_enqueue+0x44>
2000d0ec:	ebfff1a5 	bl	20009788 <vk_disable_interrupt>
2000d0f0:	e51b0018 	ldr	a1, [fp, #-24]
2000d0f4:	e51b101c 	ldr	a2, [fp, #-28]
2000d0f8:	eb000007 	bl	2000d11c <vk_thread_enqueue>
2000d0fc:	e51b3010 	ldr	a4, [fp, #-16]
2000d100:	e3530000 	cmp	a4, #0
2000d104:	1a000000 	bne	2000d10c <vk_enqueue+0x60>
2000d108:	ebfff189 	bl	20009734 <vk_enable_interrupt>
2000d10c:	e24bd00c 	sub	sp, fp, #12
2000d110:	e89da800 	ldm	sp, {fp, sp, pc}
2000d114:	000066d0 	ldrdeq	v3, [a1], -a1
2000d118:	000000a4 	andeq	a1, a1, v1, lsr #1

2000d11c <vk_thread_enqueue>:
2000d11c:	e1a0c00d 	mov	ip, sp
2000d120:	e92dd800 	push	{fp, ip, lr, pc}
2000d124:	e24cb004 	sub	fp, ip, #4
2000d128:	e24dd018 	sub	sp, sp, #24
2000d12c:	e50b0020 	str	a1, [fp, #-32]
2000d130:	e50b1024 	str	a2, [fp, #-36]	; 0x24
2000d134:	e51b3020 	ldr	a4, [fp, #-32]
2000d138:	e50b3014 	str	a4, [fp, #-20]
2000d13c:	e51b3024 	ldr	a4, [fp, #-36]	; 0x24
2000d140:	e50b3018 	str	a4, [fp, #-24]
2000d144:	e51b3020 	ldr	a4, [fp, #-32]
2000d148:	e5933008 	ldr	a4, [a4, #8]
2000d14c:	e50b3010 	str	a4, [fp, #-16]
2000d150:	e51b3010 	ldr	a4, [fp, #-16]
2000d154:	e1a02203 	lsl	a3, a4, #4
2000d158:	e51b3018 	ldr	a4, [fp, #-24]
2000d15c:	e0833002 	add	a4, a4, a3
2000d160:	e5933008 	ldr	a4, [a4, #8]
2000d164:	e3530000 	cmp	a4, #0
2000d168:	0a00001d 	beq	2000d1e4 <vk_thread_enqueue+0xc8>
2000d16c:	e51b3010 	ldr	a4, [fp, #-16]
2000d170:	e1a02203 	lsl	a3, a4, #4
2000d174:	e51b3018 	ldr	a4, [fp, #-24]
2000d178:	e0833002 	add	a4, a4, a3
2000d17c:	e593300c 	ldr	a4, [a4, #12]
2000d180:	e50b3014 	str	a4, [fp, #-20]
2000d184:	e51b3010 	ldr	a4, [fp, #-16]
2000d188:	e1a02203 	lsl	a3, a4, #4
2000d18c:	e51b3018 	ldr	a4, [fp, #-24]
2000d190:	e0832002 	add	a3, a4, a3
2000d194:	e51b3020 	ldr	a4, [fp, #-32]
2000d198:	e582300c 	str	a4, [a3, #12]
2000d19c:	e51b3010 	ldr	a4, [fp, #-16]
2000d1a0:	e1a02203 	lsl	a3, a4, #4
2000d1a4:	e51b3018 	ldr	a4, [fp, #-24]
2000d1a8:	e0833002 	add	a4, a4, a3
2000d1ac:	e593200c 	ldr	a3, [a4, #12]
2000d1b0:	e3a03000 	mov	a4, #0
2000d1b4:	e582303c 	str	a4, [a3, #60]	; 0x3c
2000d1b8:	e51b2014 	ldr	a3, [fp, #-20]
2000d1bc:	e51b3020 	ldr	a4, [fp, #-32]
2000d1c0:	e582303c 	str	a4, [a3, #60]	; 0x3c
2000d1c4:	e51b3010 	ldr	a4, [fp, #-16]
2000d1c8:	e1a02203 	lsl	a3, a4, #4
2000d1cc:	e51b3018 	ldr	a4, [fp, #-24]
2000d1d0:	e0832002 	add	a3, a4, a3
2000d1d4:	e5923004 	ldr	a4, [a3, #4]
2000d1d8:	e2833001 	add	a4, a4, #1
2000d1dc:	e5823004 	str	a4, [a3, #4]
2000d1e0:	ea000019 	b	2000d24c <vk_thread_enqueue+0x130>
2000d1e4:	e51b3010 	ldr	a4, [fp, #-16]
2000d1e8:	e1a02203 	lsl	a3, a4, #4
2000d1ec:	e51b3018 	ldr	a4, [fp, #-24]
2000d1f0:	e0832002 	add	a3, a4, a3
2000d1f4:	e51b3020 	ldr	a4, [fp, #-32]
2000d1f8:	e5823008 	str	a4, [a3, #8]
2000d1fc:	e51b3010 	ldr	a4, [fp, #-16]
2000d200:	e1a02203 	lsl	a3, a4, #4
2000d204:	e51b3018 	ldr	a4, [fp, #-24]
2000d208:	e0832002 	add	a3, a4, a3
2000d20c:	e51b3020 	ldr	a4, [fp, #-32]
2000d210:	e582300c 	str	a4, [a3, #12]
2000d214:	e51b3010 	ldr	a4, [fp, #-16]
2000d218:	e1a02203 	lsl	a3, a4, #4
2000d21c:	e51b3018 	ldr	a4, [fp, #-24]
2000d220:	e0833002 	add	a4, a4, a3
2000d224:	e593200c 	ldr	a3, [a4, #12]
2000d228:	e3a03000 	mov	a4, #0
2000d22c:	e582303c 	str	a4, [a3, #60]	; 0x3c
2000d230:	e51b3010 	ldr	a4, [fp, #-16]
2000d234:	e1a02203 	lsl	a3, a4, #4
2000d238:	e51b3018 	ldr	a4, [fp, #-24]
2000d23c:	e0832002 	add	a3, a4, a3
2000d240:	e5923004 	ldr	a4, [a3, #4]
2000d244:	e2833001 	add	a4, a4, #1
2000d248:	e5823004 	str	a4, [a3, #4]
2000d24c:	e24bd00c 	sub	sp, fp, #12
2000d250:	e89da800 	ldm	sp, {fp, sp, pc}

2000d254 <vk_dequeue>:
2000d254:	e1a0c00d 	mov	ip, sp
2000d258:	e92dd800 	push	{fp, ip, lr, pc}
2000d25c:	e24cb004 	sub	fp, ip, #4
2000d260:	e24dd010 	sub	sp, sp, #16
2000d264:	e59f2060 	ldr	a3, [pc, #96]	; 2000d2cc <vk_dequeue+0x78>
2000d268:	e08f2002 	add	a3, pc, a3
2000d26c:	e50b0018 	str	a1, [fp, #-24]
2000d270:	e50b101c 	str	a2, [fp, #-28]
2000d274:	e59f3054 	ldr	a4, [pc, #84]	; 2000d2d0 <vk_dequeue+0x7c>
2000d278:	e7923003 	ldr	a4, [a3, a4]
2000d27c:	e5933000 	ldr	a4, [a4]
2000d280:	e5933038 	ldr	a4, [a4, #56]	; 0x38
2000d284:	e50b3014 	str	a4, [fp, #-20]
2000d288:	e51b3014 	ldr	a4, [fp, #-20]
2000d28c:	e3530000 	cmp	a4, #0
2000d290:	1a000000 	bne	2000d298 <vk_dequeue+0x44>
2000d294:	ebfff13b 	bl	20009788 <vk_disable_interrupt>
2000d298:	e51b0018 	ldr	a1, [fp, #-24]
2000d29c:	e51b101c 	ldr	a2, [fp, #-28]
2000d2a0:	eb00000b 	bl	2000d2d4 <vk_thread_dequeue>
2000d2a4:	e1a03000 	mov	a4, a1
2000d2a8:	e50b3010 	str	a4, [fp, #-16]
2000d2ac:	e51b3014 	ldr	a4, [fp, #-20]
2000d2b0:	e3530000 	cmp	a4, #0
2000d2b4:	1a000000 	bne	2000d2bc <vk_dequeue+0x68>
2000d2b8:	ebfff11d 	bl	20009734 <vk_enable_interrupt>
2000d2bc:	e51b3010 	ldr	a4, [fp, #-16]
2000d2c0:	e1a00003 	mov	a1, a4
2000d2c4:	e24bd00c 	sub	sp, fp, #12
2000d2c8:	e89da800 	ldm	sp, {fp, sp, pc}
2000d2cc:	00006528 	andeq	v3, a1, v5, lsr #10
2000d2d0:	000000a4 	andeq	a1, a1, v1, lsr #1

2000d2d4 <vk_thread_dequeue>:
2000d2d4:	e1a0c00d 	mov	ip, sp
2000d2d8:	e92dd800 	push	{fp, ip, lr, pc}
2000d2dc:	e24cb004 	sub	fp, ip, #4
2000d2e0:	e24dd030 	sub	sp, sp, #48	; 0x30
2000d2e4:	e50b0030 	str	a1, [fp, #-48]	; 0x30
2000d2e8:	e50b1034 	str	a2, [fp, #-52]	; 0x34
2000d2ec:	e51b3030 	ldr	a4, [fp, #-48]	; 0x30
2000d2f0:	e5933008 	ldr	a4, [a4, #8]
2000d2f4:	e50b3010 	str	a4, [fp, #-16]
2000d2f8:	e51b3034 	ldr	a4, [fp, #-52]	; 0x34
2000d2fc:	e50b3014 	str	a4, [fp, #-20]
2000d300:	e51b3010 	ldr	a4, [fp, #-16]
2000d304:	e1a02203 	lsl	a3, a4, #4
2000d308:	e51b3014 	ldr	a4, [fp, #-20]
2000d30c:	e0833002 	add	a4, a4, a3
2000d310:	e50b3018 	str	a4, [fp, #-24]
2000d314:	e51b3030 	ldr	a4, [fp, #-48]	; 0x30
2000d318:	e5933004 	ldr	a4, [a4, #4]
2000d31c:	e50b3024 	str	a4, [fp, #-36]	; 0x24
2000d320:	e51b3018 	ldr	a4, [fp, #-24]
2000d324:	e5933008 	ldr	a4, [a4, #8]
2000d328:	e50b301c 	str	a4, [fp, #-28]
2000d32c:	e51b301c 	ldr	a4, [fp, #-28]
2000d330:	e50b3020 	str	a4, [fp, #-32]
2000d334:	ea000004 	b	2000d34c <vk_thread_dequeue+0x78>
2000d338:	e51b3020 	ldr	a4, [fp, #-32]
2000d33c:	e50b301c 	str	a4, [fp, #-28]
2000d340:	e51b3020 	ldr	a4, [fp, #-32]
2000d344:	e593303c 	ldr	a4, [a4, #60]	; 0x3c
2000d348:	e50b3020 	str	a4, [fp, #-32]
2000d34c:	e51b3020 	ldr	a4, [fp, #-32]
2000d350:	e3530000 	cmp	a4, #0
2000d354:	0a000004 	beq	2000d36c <vk_thread_dequeue+0x98>
2000d358:	e51b3020 	ldr	a4, [fp, #-32]
2000d35c:	e5932004 	ldr	a3, [a4, #4]
2000d360:	e51b3024 	ldr	a4, [fp, #-36]	; 0x24
2000d364:	e1520003 	cmp	a3, a4
2000d368:	1afffff2 	bne	2000d338 <vk_thread_dequeue+0x64>
2000d36c:	e51b3020 	ldr	a4, [fp, #-32]
2000d370:	e3530000 	cmp	a4, #0
2000d374:	1a000002 	bne	2000d384 <vk_thread_dequeue+0xb0>
2000d378:	e3a03000 	mov	a4, #0
2000d37c:	e50b3038 	str	a4, [fp, #-56]	; 0x38
2000d380:	ea000043 	b	2000d494 <vk_thread_dequeue+0x1c0>
2000d384:	e51b3018 	ldr	a4, [fp, #-24]
2000d388:	e5933004 	ldr	a4, [a4, #4]
2000d38c:	e2432001 	sub	a3, a4, #1
2000d390:	e51b3018 	ldr	a4, [fp, #-24]
2000d394:	e5832004 	str	a3, [a4, #4]
2000d398:	e51b3018 	ldr	a4, [fp, #-24]
2000d39c:	e5933004 	ldr	a4, [a4, #4]
2000d3a0:	e50b3028 	str	a4, [fp, #-40]	; 0x28
2000d3a4:	e51b3018 	ldr	a4, [fp, #-24]
2000d3a8:	e5932008 	ldr	a3, [a4, #8]
2000d3ac:	e51b3020 	ldr	a4, [fp, #-32]
2000d3b0:	e1520003 	cmp	a3, a4
2000d3b4:	1a000010 	bne	2000d3fc <vk_thread_dequeue+0x128>
2000d3b8:	e51b3020 	ldr	a4, [fp, #-32]
2000d3bc:	e593203c 	ldr	a3, [a4, #60]	; 0x3c
2000d3c0:	e51b3018 	ldr	a4, [fp, #-24]
2000d3c4:	e5832008 	str	a3, [a4, #8]
2000d3c8:	e51b3028 	ldr	a4, [fp, #-40]	; 0x28
2000d3cc:	e3530000 	cmp	a4, #0
2000d3d0:	1a00002d 	bne	2000d48c <vk_thread_dequeue+0x1b8>
2000d3d4:	e51b2018 	ldr	a3, [fp, #-24]
2000d3d8:	e3a03000 	mov	a4, #0
2000d3dc:	e5823008 	str	a4, [a3, #8]
2000d3e0:	e51b2018 	ldr	a3, [fp, #-24]
2000d3e4:	e3a03000 	mov	a4, #0
2000d3e8:	e582300c 	str	a4, [a3, #12]
2000d3ec:	e51b2020 	ldr	a3, [fp, #-32]
2000d3f0:	e3a03000 	mov	a4, #0
2000d3f4:	e582303c 	str	a4, [a3, #60]	; 0x3c
2000d3f8:	ea000023 	b	2000d48c <vk_thread_dequeue+0x1b8>
2000d3fc:	e51b3020 	ldr	a4, [fp, #-32]
2000d400:	e593303c 	ldr	a4, [a4, #60]	; 0x3c
2000d404:	e3530000 	cmp	a4, #0
2000d408:	1a00000f 	bne	2000d44c <vk_thread_dequeue+0x178>
2000d40c:	e51b201c 	ldr	a3, [fp, #-28]
2000d410:	e3a03000 	mov	a4, #0
2000d414:	e582303c 	str	a4, [a3, #60]	; 0x3c
2000d418:	e51b2018 	ldr	a3, [fp, #-24]
2000d41c:	e51b301c 	ldr	a4, [fp, #-28]
2000d420:	e582300c 	str	a4, [a3, #12]
2000d424:	e51b3028 	ldr	a4, [fp, #-40]	; 0x28
2000d428:	e3530000 	cmp	a4, #0
2000d42c:	1a000016 	bne	2000d48c <vk_thread_dequeue+0x1b8>
2000d430:	e51b2018 	ldr	a3, [fp, #-24]
2000d434:	e3a03000 	mov	a4, #0
2000d438:	e5823008 	str	a4, [a3, #8]
2000d43c:	e51b2018 	ldr	a3, [fp, #-24]
2000d440:	e3a03000 	mov	a4, #0
2000d444:	e582300c 	str	a4, [a3, #12]
2000d448:	ea00000f 	b	2000d48c <vk_thread_dequeue+0x1b8>
2000d44c:	e51b3020 	ldr	a4, [fp, #-32]
2000d450:	e593203c 	ldr	a3, [a4, #60]	; 0x3c
2000d454:	e51b301c 	ldr	a4, [fp, #-28]
2000d458:	e583203c 	str	a3, [a4, #60]	; 0x3c
2000d45c:	e51b3028 	ldr	a4, [fp, #-40]	; 0x28
2000d460:	e3530000 	cmp	a4, #0
2000d464:	1a000008 	bne	2000d48c <vk_thread_dequeue+0x1b8>
2000d468:	e51b2018 	ldr	a3, [fp, #-24]
2000d46c:	e3a03000 	mov	a4, #0
2000d470:	e5823008 	str	a4, [a3, #8]
2000d474:	e51b2018 	ldr	a3, [fp, #-24]
2000d478:	e3a03000 	mov	a4, #0
2000d47c:	e582300c 	str	a4, [a3, #12]
2000d480:	e51b2020 	ldr	a3, [fp, #-32]
2000d484:	e3a03000 	mov	a4, #0
2000d488:	e582303c 	str	a4, [a3, #60]	; 0x3c
2000d48c:	e51b3030 	ldr	a4, [fp, #-48]	; 0x30
2000d490:	e50b3038 	str	a4, [fp, #-56]	; 0x38
2000d494:	e51b3038 	ldr	a4, [fp, #-56]	; 0x38
2000d498:	e1a00003 	mov	a1, a4
2000d49c:	e24bd00c 	sub	sp, fp, #12
2000d4a0:	e89da800 	ldm	sp, {fp, sp, pc}

2000d4a4 <vh_SecTime_interrupt_handler>:
2000d4a4:	e1a0c00d 	mov	ip, sp
2000d4a8:	e92dd800 	push	{fp, ip, lr, pc}
2000d4ac:	e24cb004 	sub	fp, ip, #4
2000d4b0:	e24dd010 	sub	sp, sp, #16
2000d4b4:	e59f0254 	ldr	a1, [pc, #596]	; 2000d710 <vh_SecTime_interrupt_handler+0x26c>
2000d4b8:	e50b001c 	str	a1, [fp, #-28]
2000d4bc:	e51b101c 	ldr	a2, [fp, #-28]
2000d4c0:	e08f1001 	add	a2, pc, a2
2000d4c4:	e50b101c 	str	a2, [fp, #-28]
2000d4c8:	e3a0244a 	mov	a3, #1241513984	; 0x4a000000
2000d4cc:	e3a03c01 	mov	a4, #256	; 0x100
2000d4d0:	e5823000 	str	a4, [a3]
2000d4d4:	e59f2238 	ldr	a3, [pc, #568]	; 2000d714 <vh_SecTime_interrupt_handler+0x270>
2000d4d8:	e3a03c01 	mov	a4, #256	; 0x100
2000d4dc:	e5823000 	str	a4, [a3]
2000d4e0:	e59f322c 	ldr	a4, [pc, #556]	; 2000d714 <vh_SecTime_interrupt_handler+0x270>
2000d4e4:	e5933000 	ldr	a4, [a4]
2000d4e8:	e59f3228 	ldr	a4, [pc, #552]	; 2000d718 <vh_SecTime_interrupt_handler+0x274>
2000d4ec:	e51b201c 	ldr	a3, [fp, #-28]
2000d4f0:	e7923003 	ldr	a4, [a3, a4]
2000d4f4:	e5933000 	ldr	a4, [a4]
2000d4f8:	e3530000 	cmp	a4, #0
2000d4fc:	0a00007f 	beq	2000d700 <vh_SecTime_interrupt_handler+0x25c>
2000d500:	e3a03000 	mov	a4, #0
2000d504:	e50b3010 	str	a4, [fp, #-16]
2000d508:	ea000079 	b	2000d6f4 <vh_SecTime_interrupt_handler+0x250>
2000d50c:	e51b2010 	ldr	a3, [fp, #-16]
2000d510:	e59f3204 	ldr	a4, [pc, #516]	; 2000d71c <vh_SecTime_interrupt_handler+0x278>
2000d514:	e51b001c 	ldr	a1, [fp, #-28]
2000d518:	e7901003 	ldr	a2, [a1, a4]
2000d51c:	e3a00004 	mov	a1, #4
2000d520:	e1a03002 	mov	a4, a3
2000d524:	e1a02103 	lsl	a3, a4, #2
2000d528:	e1a03102 	lsl	a4, a3, #2
2000d52c:	e0623003 	rsb	a4, a3, a4
2000d530:	e0813003 	add	a4, a2, a4
2000d534:	e0833000 	add	a4, a4, a1
2000d538:	e5933000 	ldr	a4, [a4]
2000d53c:	e3530002 	cmp	a4, #2
2000d540:	1a000068 	bne	2000d6e8 <vh_SecTime_interrupt_handler+0x244>
2000d544:	e51bc010 	ldr	ip, [fp, #-16]
2000d548:	e51b2010 	ldr	a3, [fp, #-16]
2000d54c:	e59f31c8 	ldr	a4, [pc, #456]	; 2000d71c <vh_SecTime_interrupt_handler+0x278>
2000d550:	e51b001c 	ldr	a1, [fp, #-28]
2000d554:	e7901003 	ldr	a2, [a1, a4]
2000d558:	e1a03002 	mov	a4, a3
2000d55c:	e1a02103 	lsl	a3, a4, #2
2000d560:	e1a03102 	lsl	a4, a3, #2
2000d564:	e0623003 	rsb	a4, a3, a4
2000d568:	e0813003 	add	a4, a2, a4
2000d56c:	e5933000 	ldr	a4, [a4]
2000d570:	e2430001 	sub	a1, a4, #1
2000d574:	e59f31a0 	ldr	a4, [pc, #416]	; 2000d71c <vh_SecTime_interrupt_handler+0x278>
2000d578:	e51b201c 	ldr	a3, [fp, #-28]
2000d57c:	e7921003 	ldr	a2, [a3, a4]
2000d580:	e1a0300c 	mov	a4, ip
2000d584:	e1a02103 	lsl	a3, a4, #2
2000d588:	e1a03102 	lsl	a4, a3, #2
2000d58c:	e0623003 	rsb	a4, a3, a4
2000d590:	e0813003 	add	a4, a2, a4
2000d594:	e5830000 	str	a1, [a4]
2000d598:	e51b2010 	ldr	a3, [fp, #-16]
2000d59c:	e59f3178 	ldr	a4, [pc, #376]	; 2000d71c <vh_SecTime_interrupt_handler+0x278>
2000d5a0:	e51b001c 	ldr	a1, [fp, #-28]
2000d5a4:	e7901003 	ldr	a2, [a1, a4]
2000d5a8:	e1a03002 	mov	a4, a3
2000d5ac:	e1a02103 	lsl	a3, a4, #2
2000d5b0:	e1a03102 	lsl	a4, a3, #2
2000d5b4:	e0623003 	rsb	a4, a3, a4
2000d5b8:	e0813003 	add	a4, a2, a4
2000d5bc:	e5933000 	ldr	a4, [a4]
2000d5c0:	e3530000 	cmp	a4, #0
2000d5c4:	1a000047 	bne	2000d6e8 <vh_SecTime_interrupt_handler+0x244>
2000d5c8:	e51b2010 	ldr	a3, [fp, #-16]
2000d5cc:	e59f3148 	ldr	a4, [pc, #328]	; 2000d71c <vh_SecTime_interrupt_handler+0x278>
2000d5d0:	e51b001c 	ldr	a1, [fp, #-28]
2000d5d4:	e7901003 	ldr	a2, [a1, a4]
2000d5d8:	e3a00008 	mov	a1, #8
2000d5dc:	e1a03002 	mov	a4, a3
2000d5e0:	e1a02103 	lsl	a3, a4, #2
2000d5e4:	e1a03102 	lsl	a4, a3, #2
2000d5e8:	e0623003 	rsb	a4, a3, a4
2000d5ec:	e0813003 	add	a4, a2, a4
2000d5f0:	e0833000 	add	a4, a4, a1
2000d5f4:	e5932000 	ldr	a3, [a4]
2000d5f8:	e3a03001 	mov	a4, #1
2000d5fc:	e5823000 	str	a4, [a3]
2000d600:	e51b2010 	ldr	a3, [fp, #-16]
2000d604:	e59f3110 	ldr	a4, [pc, #272]	; 2000d71c <vh_SecTime_interrupt_handler+0x278>
2000d608:	e51b001c 	ldr	a1, [fp, #-28]
2000d60c:	e7901003 	ldr	a2, [a1, a4]
2000d610:	e3a00008 	mov	a1, #8
2000d614:	e1a03002 	mov	a4, a3
2000d618:	e1a02103 	lsl	a3, a4, #2
2000d61c:	e1a03102 	lsl	a4, a3, #2
2000d620:	e0623003 	rsb	a4, a3, a4
2000d624:	e0813003 	add	a4, a2, a4
2000d628:	e0833000 	add	a4, a4, a1
2000d62c:	e5933000 	ldr	a4, [a4]
2000d630:	e1a00003 	mov	a1, a4
2000d634:	e59f30e4 	ldr	a4, [pc, #228]	; 2000d720 <vh_SecTime_interrupt_handler+0x27c>
2000d638:	e51b101c 	ldr	a2, [fp, #-28]
2000d63c:	e7913003 	ldr	a4, [a2, a4]
2000d640:	e1a01003 	mov	a2, a4
2000d644:	ebfffeb4 	bl	2000d11c <vk_thread_enqueue>
2000d648:	e51b2010 	ldr	a3, [fp, #-16]
2000d64c:	e59f30c8 	ldr	a4, [pc, #200]	; 2000d71c <vh_SecTime_interrupt_handler+0x278>
2000d650:	e51b001c 	ldr	a1, [fp, #-28]
2000d654:	e7901003 	ldr	a2, [a1, a4]
2000d658:	e3a00008 	mov	a1, #8
2000d65c:	e1a03002 	mov	a4, a3
2000d660:	e1a02103 	lsl	a3, a4, #2
2000d664:	e1a03102 	lsl	a4, a3, #2
2000d668:	e0623003 	rsb	a4, a3, a4
2000d66c:	e0813003 	add	a4, a2, a4
2000d670:	e0833000 	add	a4, a4, a1
2000d674:	e5933000 	ldr	a4, [a4]
2000d678:	e1a00003 	mov	a1, a4
2000d67c:	e59f30a0 	ldr	a4, [pc, #160]	; 2000d724 <vh_SecTime_interrupt_handler+0x280>
2000d680:	e51b101c 	ldr	a2, [fp, #-28]
2000d684:	e7913003 	ldr	a4, [a2, a4]
2000d688:	e1a01003 	mov	a2, a4
2000d68c:	ebffff10 	bl	2000d2d4 <vk_thread_dequeue>
2000d690:	e51b2010 	ldr	a3, [fp, #-16]
2000d694:	e59f3080 	ldr	a4, [pc, #128]	; 2000d71c <vh_SecTime_interrupt_handler+0x278>
2000d698:	e51b001c 	ldr	a1, [fp, #-28]
2000d69c:	e7901003 	ldr	a2, [a1, a4]
2000d6a0:	e3a00004 	mov	a1, #4
2000d6a4:	e1a03002 	mov	a4, a3
2000d6a8:	e1a02103 	lsl	a3, a4, #2
2000d6ac:	e1a03102 	lsl	a4, a3, #2
2000d6b0:	e0623003 	rsb	a4, a3, a4
2000d6b4:	e0813003 	add	a4, a2, a4
2000d6b8:	e0832000 	add	a3, a4, a1
2000d6bc:	e3a03000 	mov	a4, #0
2000d6c0:	e5823000 	str	a4, [a3]
2000d6c4:	e59f304c 	ldr	a4, [pc, #76]	; 2000d718 <vh_SecTime_interrupt_handler+0x274>
2000d6c8:	e51b101c 	ldr	a2, [fp, #-28]
2000d6cc:	e7913003 	ldr	a4, [a2, a4]
2000d6d0:	e5933000 	ldr	a4, [a4]
2000d6d4:	e2432001 	sub	a3, a4, #1
2000d6d8:	e59f3038 	ldr	a4, [pc, #56]	; 2000d718 <vh_SecTime_interrupt_handler+0x274>
2000d6dc:	e51b001c 	ldr	a1, [fp, #-28]
2000d6e0:	e7903003 	ldr	a4, [a1, a4]
2000d6e4:	e5832000 	str	a3, [a4]
2000d6e8:	e51b3010 	ldr	a4, [fp, #-16]
2000d6ec:	e2833001 	add	a4, a4, #1
2000d6f0:	e50b3010 	str	a4, [fp, #-16]
2000d6f4:	e51b3010 	ldr	a4, [fp, #-16]
2000d6f8:	e353001e 	cmp	a4, #30
2000d6fc:	daffff82 	ble	2000d50c <vh_SecTime_interrupt_handler+0x68>
2000d700:	e3a03000 	mov	a4, #0
2000d704:	e1a00003 	mov	a1, a4
2000d708:	e24bd00c 	sub	sp, fp, #12
2000d70c:	e89da800 	ldm	sp, {fp, sp, pc}
2000d710:	000062d0 	ldrdeq	v3, [a1], -a1
2000d714:	4a000010 	bmi	2000d75c <vh_gettime+0x34>
2000d718:	00000030 	andeq	a1, a1, a1, lsr a1
2000d71c:	00000008 	andeq	a1, a1, v5
2000d720:	00000074 	andeq	a1, a1, v1, ror a1
2000d724:	000000b0 	strheq	a1, [a1], -a1	; <UNPREDICTABLE>

2000d728 <vh_gettime>:
2000d728:	e1a0c00d 	mov	ip, sp
2000d72c:	e92dd800 	push	{fp, ip, lr, pc}
2000d730:	e24cb004 	sub	fp, ip, #4
2000d734:	e24dd008 	sub	sp, sp, #8
2000d738:	e50b0010 	str	a1, [fp, #-16]
2000d73c:	eb0001ff 	bl	2000df40 <vk_scheduler_lock>
2000d740:	e59f30ac 	ldr	a4, [pc, #172]	; 2000d7f4 <vh_gettime+0xcc>
2000d744:	e5d33000 	ldrb	a4, [a4]
2000d748:	e20330ff 	and	a4, a4, #255	; 0xff
2000d74c:	e2832a02 	add	a3, a4, #8192	; 0x2000
2000d750:	e51b3010 	ldr	a4, [fp, #-16]
2000d754:	e5832000 	str	a3, [a4]
2000d758:	e59f3098 	ldr	a4, [pc, #152]	; 2000d7f8 <vh_gettime+0xd0>
2000d75c:	e5d33000 	ldrb	a4, [a4]
2000d760:	e20330ff 	and	a4, a4, #255	; 0xff
2000d764:	e1a02003 	mov	a3, a4
2000d768:	e51b3010 	ldr	a4, [fp, #-16]
2000d76c:	e5832004 	str	a3, [a4, #4]
2000d770:	e59f3084 	ldr	a4, [pc, #132]	; 2000d7fc <vh_gettime+0xd4>
2000d774:	e5d33000 	ldrb	a4, [a4]
2000d778:	e20330ff 	and	a4, a4, #255	; 0xff
2000d77c:	e1a02003 	mov	a3, a4
2000d780:	e51b3010 	ldr	a4, [fp, #-16]
2000d784:	e583200c 	str	a3, [a4, #12]
2000d788:	e59f3070 	ldr	a4, [pc, #112]	; 2000d800 <vh_gettime+0xd8>
2000d78c:	e5d33000 	ldrb	a4, [a4]
2000d790:	e20330ff 	and	a4, a4, #255	; 0xff
2000d794:	e1a02003 	mov	a3, a4
2000d798:	e51b3010 	ldr	a4, [fp, #-16]
2000d79c:	e5832008 	str	a3, [a4, #8]
2000d7a0:	e59f305c 	ldr	a4, [pc, #92]	; 2000d804 <vh_gettime+0xdc>
2000d7a4:	e5d33000 	ldrb	a4, [a4]
2000d7a8:	e20330ff 	and	a4, a4, #255	; 0xff
2000d7ac:	e1a02003 	mov	a3, a4
2000d7b0:	e51b3010 	ldr	a4, [fp, #-16]
2000d7b4:	e5832010 	str	a3, [a4, #16]
2000d7b8:	e59f3048 	ldr	a4, [pc, #72]	; 2000d808 <vh_gettime+0xe0>
2000d7bc:	e5d33000 	ldrb	a4, [a4]
2000d7c0:	e20330ff 	and	a4, a4, #255	; 0xff
2000d7c4:	e1a02003 	mov	a3, a4
2000d7c8:	e51b3010 	ldr	a4, [fp, #-16]
2000d7cc:	e5832014 	str	a3, [a4, #20]
2000d7d0:	e59f3034 	ldr	a4, [pc, #52]	; 2000d80c <vh_gettime+0xe4>
2000d7d4:	e5d33000 	ldrb	a4, [a4]
2000d7d8:	e20330ff 	and	a4, a4, #255	; 0xff
2000d7dc:	e1a02003 	mov	a3, a4
2000d7e0:	e51b3010 	ldr	a4, [fp, #-16]
2000d7e4:	e5832018 	str	a3, [a4, #24]
2000d7e8:	eb0001ee 	bl	2000dfa8 <vk_scheduler_unlock>
2000d7ec:	e24bd00c 	sub	sp, fp, #12
2000d7f0:	e89da800 	ldm	sp, {fp, sp, pc}
2000d7f4:	57000088 	strpl	a1, [a1, -v5, lsl #1]
2000d7f8:	57000084 	strpl	a1, [a1, -v1, lsl #1]
2000d7fc:	57000080 	strpl	a1, [a1, -a1, lsl #1]
2000d800:	5700007c 	smlsdxpl	a1, ip, a1, a1
2000d804:	57000078 	smlsdxpl	a1, v5, a1, a1
2000d808:	57000074 	smlsdxpl	a1, v1, a1, a1
2000d80c:	57000070 	smlsdxpl	a1, a1, a1, a1

2000d810 <vh_settime>:
2000d810:	e1a0c00d 	mov	ip, sp
2000d814:	e92dd800 	push	{fp, ip, lr, pc}
2000d818:	e24cb004 	sub	fp, ip, #4
2000d81c:	e24dd008 	sub	sp, sp, #8
2000d820:	e50b0010 	str	a1, [fp, #-16]
2000d824:	eb0001c5 	bl	2000df40 <vk_scheduler_lock>
2000d828:	e59f218c 	ldr	a3, [pc, #396]	; 2000d9bc <vh_settime+0x1ac>
2000d82c:	e59f3188 	ldr	a4, [pc, #392]	; 2000d9bc <vh_settime+0x1ac>
2000d830:	e5d33000 	ldrb	a4, [a4]
2000d834:	e20330ff 	and	a4, a4, #255	; 0xff
2000d838:	e20330ff 	and	a4, a4, #255	; 0xff
2000d83c:	e20330f0 	and	a4, a4, #240	; 0xf0
2000d840:	e3833001 	orr	a4, a4, #1
2000d844:	e20330ff 	and	a4, a4, #255	; 0xff
2000d848:	e20330ff 	and	a4, a4, #255	; 0xff
2000d84c:	e5c23000 	strb	a4, [a3]
2000d850:	e59f3168 	ldr	a4, [pc, #360]	; 2000d9c0 <vh_settime+0x1b0>
2000d854:	e5d33000 	ldrb	a4, [a4]
2000d858:	e59f2160 	ldr	a3, [pc, #352]	; 2000d9c0 <vh_settime+0x1b0>
2000d85c:	e51b3010 	ldr	a4, [fp, #-16]
2000d860:	e5933000 	ldr	a4, [a4]
2000d864:	e20330ff 	and	a4, a4, #255	; 0xff
2000d868:	e5c23000 	strb	a4, [a3]
2000d86c:	e59f1150 	ldr	a2, [pc, #336]	; 2000d9c4 <vh_settime+0x1b4>
2000d870:	e59f314c 	ldr	a4, [pc, #332]	; 2000d9c4 <vh_settime+0x1b4>
2000d874:	e5d33000 	ldrb	a4, [a4]
2000d878:	e20330ff 	and	a4, a4, #255	; 0xff
2000d87c:	e20320ff 	and	a3, a4, #255	; 0xff
2000d880:	e20220e0 	and	a3, a3, #224	; 0xe0
2000d884:	e51b3010 	ldr	a4, [fp, #-16]
2000d888:	e5933004 	ldr	a4, [a4, #4]
2000d88c:	e20330ff 	and	a4, a4, #255	; 0xff
2000d890:	e1823003 	orr	a4, a3, a4
2000d894:	e20330ff 	and	a4, a4, #255	; 0xff
2000d898:	e20330ff 	and	a4, a4, #255	; 0xff
2000d89c:	e5c13000 	strb	a4, [a2]
2000d8a0:	e59f1120 	ldr	a2, [pc, #288]	; 2000d9c8 <vh_settime+0x1b8>
2000d8a4:	e59f311c 	ldr	a4, [pc, #284]	; 2000d9c8 <vh_settime+0x1b8>
2000d8a8:	e5d33000 	ldrb	a4, [a4]
2000d8ac:	e20330ff 	and	a4, a4, #255	; 0xff
2000d8b0:	e20320ff 	and	a3, a4, #255	; 0xff
2000d8b4:	e20220c0 	and	a3, a3, #192	; 0xc0
2000d8b8:	e51b3010 	ldr	a4, [fp, #-16]
2000d8bc:	e5933008 	ldr	a4, [a4, #8]
2000d8c0:	e20330ff 	and	a4, a4, #255	; 0xff
2000d8c4:	e1823003 	orr	a4, a3, a4
2000d8c8:	e20330ff 	and	a4, a4, #255	; 0xff
2000d8cc:	e20330ff 	and	a4, a4, #255	; 0xff
2000d8d0:	e5c13000 	strb	a4, [a2]
2000d8d4:	e59f10f0 	ldr	a2, [pc, #240]	; 2000d9cc <vh_settime+0x1bc>
2000d8d8:	e59f30ec 	ldr	a4, [pc, #236]	; 2000d9cc <vh_settime+0x1bc>
2000d8dc:	e5d33000 	ldrb	a4, [a4]
2000d8e0:	e20330ff 	and	a4, a4, #255	; 0xff
2000d8e4:	e20320ff 	and	a3, a4, #255	; 0xff
2000d8e8:	e20220f8 	and	a3, a3, #248	; 0xf8
2000d8ec:	e51b3010 	ldr	a4, [fp, #-16]
2000d8f0:	e593300c 	ldr	a4, [a4, #12]
2000d8f4:	e20330ff 	and	a4, a4, #255	; 0xff
2000d8f8:	e1823003 	orr	a4, a3, a4
2000d8fc:	e20330ff 	and	a4, a4, #255	; 0xff
2000d900:	e20330ff 	and	a4, a4, #255	; 0xff
2000d904:	e5c13000 	strb	a4, [a2]
2000d908:	e59f10c0 	ldr	a2, [pc, #192]	; 2000d9d0 <vh_settime+0x1c0>
2000d90c:	e59f30bc 	ldr	a4, [pc, #188]	; 2000d9d0 <vh_settime+0x1c0>
2000d910:	e5d33000 	ldrb	a4, [a4]
2000d914:	e20330ff 	and	a4, a4, #255	; 0xff
2000d918:	e20320ff 	and	a3, a4, #255	; 0xff
2000d91c:	e20220c0 	and	a3, a3, #192	; 0xc0
2000d920:	e51b3010 	ldr	a4, [fp, #-16]
2000d924:	e5933010 	ldr	a4, [a4, #16]
2000d928:	e20330ff 	and	a4, a4, #255	; 0xff
2000d92c:	e1823003 	orr	a4, a3, a4
2000d930:	e20330ff 	and	a4, a4, #255	; 0xff
2000d934:	e20330ff 	and	a4, a4, #255	; 0xff
2000d938:	e5c13000 	strb	a4, [a2]
2000d93c:	e59f1090 	ldr	a2, [pc, #144]	; 2000d9d4 <vh_settime+0x1c4>
2000d940:	e59f308c 	ldr	a4, [pc, #140]	; 2000d9d4 <vh_settime+0x1c4>
2000d944:	e5d33000 	ldrb	a4, [a4]
2000d948:	e20330ff 	and	a4, a4, #255	; 0xff
2000d94c:	e20320ff 	and	a3, a4, #255	; 0xff
2000d950:	e2022080 	and	a3, a3, #128	; 0x80
2000d954:	e51b3010 	ldr	a4, [fp, #-16]
2000d958:	e5933014 	ldr	a4, [a4, #20]
2000d95c:	e20330ff 	and	a4, a4, #255	; 0xff
2000d960:	e1823003 	orr	a4, a3, a4
2000d964:	e20330ff 	and	a4, a4, #255	; 0xff
2000d968:	e20330ff 	and	a4, a4, #255	; 0xff
2000d96c:	e5c13000 	strb	a4, [a2]
2000d970:	e59f1060 	ldr	a2, [pc, #96]	; 2000d9d8 <vh_settime+0x1c8>
2000d974:	e59f305c 	ldr	a4, [pc, #92]	; 2000d9d8 <vh_settime+0x1c8>
2000d978:	e5d33000 	ldrb	a4, [a4]
2000d97c:	e20330ff 	and	a4, a4, #255	; 0xff
2000d980:	e20320ff 	and	a3, a4, #255	; 0xff
2000d984:	e2022080 	and	a3, a3, #128	; 0x80
2000d988:	e51b3010 	ldr	a4, [fp, #-16]
2000d98c:	e5933018 	ldr	a4, [a4, #24]
2000d990:	e20330ff 	and	a4, a4, #255	; 0xff
2000d994:	e1823003 	orr	a4, a3, a4
2000d998:	e20330ff 	and	a4, a4, #255	; 0xff
2000d99c:	e20330ff 	and	a4, a4, #255	; 0xff
2000d9a0:	e5c13000 	strb	a4, [a2]
2000d9a4:	e59f2010 	ldr	a3, [pc, #16]	; 2000d9bc <vh_settime+0x1ac>
2000d9a8:	e3a03000 	mov	a4, #0
2000d9ac:	e5c23000 	strb	a4, [a3]
2000d9b0:	eb00017c 	bl	2000dfa8 <vk_scheduler_unlock>
2000d9b4:	e24bd00c 	sub	sp, fp, #12
2000d9b8:	e89da800 	ldm	sp, {fp, sp, pc}
2000d9bc:	57000040 	strpl	a1, [a1, -a1, asr #32]
2000d9c0:	57000088 	strpl	a1, [a1, -v5, lsl #1]
2000d9c4:	57000084 	strpl	a1, [a1, -v1, lsl #1]
2000d9c8:	5700007c 	smlsdxpl	a1, ip, a1, a1
2000d9cc:	57000080 	strpl	a1, [a1, -a1, lsl #1]
2000d9d0:	57000078 	smlsdxpl	a1, v5, a1, a1
2000d9d4:	57000074 	smlsdxpl	a1, v1, a1, a1
2000d9d8:	57000070 	smlsdxpl	a1, a1, a1, a1

2000d9dc <vh_timeInit>:
2000d9dc:	e1a0c00d 	mov	ip, sp
2000d9e0:	e92dd800 	push	{fp, ip, lr, pc}
2000d9e4:	e24cb004 	sub	fp, ip, #4
2000d9e8:	e24dd020 	sub	sp, sp, #32
2000d9ec:	e59f3044 	ldr	a4, [pc, #68]	; 2000da38 <vh_timeInit+0x5c>
2000d9f0:	e50b3028 	str	a4, [fp, #-40]	; 0x28
2000d9f4:	e3a03001 	mov	a4, #1
2000d9f8:	e50b3024 	str	a4, [fp, #-36]	; 0x24
2000d9fc:	e3a03001 	mov	a4, #1
2000da00:	e50b3020 	str	a4, [fp, #-32]
2000da04:	e3a03002 	mov	a4, #2
2000da08:	e50b301c 	str	a4, [fp, #-28]
2000da0c:	e3a03000 	mov	a4, #0
2000da10:	e50b3018 	str	a4, [fp, #-24]
2000da14:	e3a03000 	mov	a4, #0
2000da18:	e50b3014 	str	a4, [fp, #-20]
2000da1c:	e3a03000 	mov	a4, #0
2000da20:	e50b3010 	str	a4, [fp, #-16]
2000da24:	e24b3028 	sub	a4, fp, #40	; 0x28
2000da28:	e1a00003 	mov	a1, a4
2000da2c:	ebffff77 	bl	2000d810 <vh_settime>
2000da30:	e24bd00c 	sub	sp, fp, #12
2000da34:	e89da800 	ldm	sp, {fp, sp, pc}
2000da38:	00002006 	andeq	a3, a1, v3

2000da3c <vh_rtc_init>:
2000da3c:	e1a0c00d 	mov	ip, sp
2000da40:	e92dd800 	push	{fp, ip, lr, pc}
2000da44:	e24cb004 	sub	fp, ip, #4
2000da48:	e24dd008 	sub	sp, sp, #8
2000da4c:	e59f2058 	ldr	a3, [pc, #88]	; 2000daac <vh_rtc_init+0x70>
2000da50:	e08f2002 	add	a3, pc, a3
2000da54:	e3a03008 	mov	a4, #8
2000da58:	e50b3010 	str	a4, [fp, #-16]
2000da5c:	e3a00008 	mov	a1, #8
2000da60:	e59f3048 	ldr	a4, [pc, #72]	; 2000dab0 <vh_rtc_init+0x74>
2000da64:	e0823003 	add	a4, a3, a4
2000da68:	e1a01003 	mov	a2, a4
2000da6c:	e59f3040 	ldr	a4, [pc, #64]	; 2000dab4 <vh_rtc_init+0x78>
2000da70:	e7923003 	ldr	a4, [a3, a4]
2000da74:	e1a02003 	mov	a3, a4
2000da78:	e3a03008 	mov	a4, #8
2000da7c:	ebffed10 	bl	20008ec4 <vu_register_dev>
2000da80:	e51b0010 	ldr	a1, [fp, #-16]
2000da84:	ebffeee1 	bl	20009610 <vh_interrupt_unmask>
2000da88:	e59f2028 	ldr	a3, [pc, #40]	; 2000dab8 <vh_rtc_init+0x7c>
2000da8c:	e3a03000 	mov	a4, #0
2000da90:	e5c23000 	strb	a4, [a3]
2000da94:	e59f2020 	ldr	a3, [pc, #32]	; 2000dabc <vh_rtc_init+0x80>
2000da98:	e3e03000 	mvn	a4, #0
2000da9c:	e5c23000 	strb	a4, [a3]
2000daa0:	ebffffcd 	bl	2000d9dc <vh_timeInit>
2000daa4:	e24bd00c 	sub	sp, fp, #12
2000daa8:	e89da800 	ldm	sp, {fp, sp, pc}
2000daac:	00005d40 	andeq	v2, a1, a1, asr #26
2000dab0:	fffff9d8 			; <UNDEFINED> instruction: 0xfffff9d8
2000dab4:	0000006c 	andeq	a1, a1, ip, rrx
2000dab8:	57000040 	strpl	a1, [a1, -a1, asr #32]
2000dabc:	57000044 	strpl	a1, [a1, -v1, asr #32]

2000dac0 <init_thread_pointer>:
2000dac0:	e1a0c00d 	mov	ip, sp
2000dac4:	e92dd800 	push	{fp, ip, lr, pc}
2000dac8:	e24cb004 	sub	fp, ip, #4
2000dacc:	e59f2024 	ldr	a3, [pc, #36]	; 2000daf8 <init_thread_pointer+0x38>
2000dad0:	e08f2002 	add	a3, pc, a3
2000dad4:	e59f3020 	ldr	a4, [pc, #32]	; 2000dafc <init_thread_pointer+0x3c>
2000dad8:	e7921003 	ldr	a2, [a3, a4]
2000dadc:	e3a03000 	mov	a4, #0
2000dae0:	e5813000 	str	a4, [a2]
2000dae4:	e59f3014 	ldr	a4, [pc, #20]	; 2000db00 <init_thread_pointer+0x40>
2000dae8:	e7922003 	ldr	a3, [a3, a4]
2000daec:	e3a03000 	mov	a4, #0
2000daf0:	e5823000 	str	a4, [a3]
2000daf4:	e89da800 	ldm	sp, {fp, sp, pc}
2000daf8:	00005cc0 	andeq	v2, a1, a1, asr #25
2000dafc:	000000a4 	andeq	a1, a1, v1, lsr #1
2000db00:	000000b8 	strheq	a1, [a1], -v5

2000db04 <vk_scheduler>:
2000db04:	e1a0c00d 	mov	ip, sp
2000db08:	e92dd800 	push	{fp, ip, lr, pc}
2000db0c:	e24cb004 	sub	fp, ip, #4
2000db10:	e24dd010 	sub	sp, sp, #16
2000db14:	e59f0330 	ldr	a1, [pc, #816]	; 2000de4c <vk_scheduler+0x348>
2000db18:	e50b0018 	str	a1, [fp, #-24]
2000db1c:	e51b1018 	ldr	a2, [fp, #-24]
2000db20:	e08f1001 	add	a2, pc, a2
2000db24:	e50b1018 	str	a2, [fp, #-24]
2000db28:	eb000104 	bl	2000df40 <vk_scheduler_lock>
2000db2c:	eb000129 	bl	2000dfd8 <vk_thread_check>
2000db30:	e3a03000 	mov	a4, #0
2000db34:	e50b3014 	str	a4, [fp, #-20]
2000db38:	e59f3310 	ldr	a4, [pc, #784]	; 2000de50 <vk_scheduler+0x34c>
2000db3c:	e51b2018 	ldr	a3, [fp, #-24]
2000db40:	e7923003 	ldr	a4, [a3, a4]
2000db44:	e5933000 	ldr	a4, [a4]
2000db48:	e3530000 	cmp	a4, #0
2000db4c:	1a000008 	bne	2000db74 <vk_scheduler+0x70>
2000db50:	e59f32fc 	ldr	a4, [pc, #764]	; 2000de54 <vk_scheduler+0x350>
2000db54:	e51b0018 	ldr	a1, [fp, #-24]
2000db58:	e7903003 	ldr	a4, [a1, a4]
2000db5c:	e5933000 	ldr	a4, [a4]
2000db60:	e1a02003 	mov	a3, a4
2000db64:	e59f32ec 	ldr	a4, [pc, #748]	; 2000de58 <vk_scheduler+0x354>
2000db68:	e51b1018 	ldr	a2, [fp, #-24]
2000db6c:	e7913003 	ldr	a4, [a2, a4]
2000db70:	e5832000 	str	a3, [a4]
2000db74:	e3a0301f 	mov	a4, #31
2000db78:	e50b3010 	str	a4, [fp, #-16]
2000db7c:	e51b0010 	ldr	a1, [fp, #-16]
2000db80:	e59f32d4 	ldr	a4, [pc, #724]	; 2000de5c <vk_scheduler+0x358>
2000db84:	e51b1018 	ldr	a2, [fp, #-24]
2000db88:	e7912003 	ldr	a3, [a2, a4]
2000db8c:	e3a01004 	mov	a2, #4
2000db90:	e1a03200 	lsl	a4, a1, #4
2000db94:	e0823003 	add	a4, a3, a4
2000db98:	e0833001 	add	a4, a4, a2
2000db9c:	e5933000 	ldr	a4, [a4]
2000dba0:	e3530000 	cmp	a4, #0
2000dba4:	0a000064 	beq	2000dd3c <vk_scheduler+0x238>
2000dba8:	e59f32b0 	ldr	a4, [pc, #688]	; 2000de60 <vk_scheduler+0x35c>
2000dbac:	e51b2018 	ldr	a3, [fp, #-24]
2000dbb0:	e7923003 	ldr	a4, [a3, a4]
2000dbb4:	e5933000 	ldr	a4, [a4]
2000dbb8:	e50b3014 	str	a4, [fp, #-20]
2000dbbc:	e59f329c 	ldr	a4, [pc, #668]	; 2000de60 <vk_scheduler+0x35c>
2000dbc0:	e51b0018 	ldr	a1, [fp, #-24]
2000dbc4:	e7903003 	ldr	a4, [a1, a4]
2000dbc8:	e5933000 	ldr	a4, [a4]
2000dbcc:	e5932008 	ldr	a3, [a4, #8]
2000dbd0:	e51b3010 	ldr	a4, [fp, #-16]
2000dbd4:	e1520003 	cmp	a3, a4
2000dbd8:	0a000004 	beq	2000dbf0 <vk_scheduler+0xec>
2000dbdc:	e59f327c 	ldr	a4, [pc, #636]	; 2000de60 <vk_scheduler+0x35c>
2000dbe0:	e51b1018 	ldr	a2, [fp, #-24]
2000dbe4:	e7912003 	ldr	a3, [a2, a4]
2000dbe8:	e3a03000 	mov	a4, #0
2000dbec:	e5823000 	str	a4, [a3]
2000dbf0:	e59f3268 	ldr	a4, [pc, #616]	; 2000de60 <vk_scheduler+0x35c>
2000dbf4:	e51b2018 	ldr	a3, [fp, #-24]
2000dbf8:	e7923003 	ldr	a4, [a3, a4]
2000dbfc:	e5933000 	ldr	a4, [a4]
2000dc00:	e3530000 	cmp	a4, #0
2000dc04:	1a000027 	bne	2000dca8 <vk_scheduler+0x1a4>
2000dc08:	e51b2010 	ldr	a3, [fp, #-16]
2000dc0c:	e59f3248 	ldr	a4, [pc, #584]	; 2000de5c <vk_scheduler+0x358>
2000dc10:	e51b0018 	ldr	a1, [fp, #-24]
2000dc14:	e7901003 	ldr	a2, [a1, a4]
2000dc18:	e1a03082 	lsl	a4, a3, #1
2000dc1c:	e2833001 	add	a4, a4, #1
2000dc20:	e7912183 	ldr	a3, [a2, a4, lsl #3]
2000dc24:	e59f3234 	ldr	a4, [pc, #564]	; 2000de60 <vk_scheduler+0x35c>
2000dc28:	e51b1018 	ldr	a2, [fp, #-24]
2000dc2c:	e7913003 	ldr	a4, [a2, a4]
2000dc30:	e5832000 	str	a3, [a4]
2000dc34:	e59f3224 	ldr	a4, [pc, #548]	; 2000de60 <vk_scheduler+0x35c>
2000dc38:	e51b2018 	ldr	a3, [fp, #-24]
2000dc3c:	e7923003 	ldr	a4, [a3, a4]
2000dc40:	e5933000 	ldr	a4, [a4]
2000dc44:	e593303c 	ldr	a4, [a4, #60]	; 0x3c
2000dc48:	e3530000 	cmp	a4, #0
2000dc4c:	1a00000b 	bne	2000dc80 <vk_scheduler+0x17c>
2000dc50:	e51b2010 	ldr	a3, [fp, #-16]
2000dc54:	e59f3200 	ldr	a4, [pc, #512]	; 2000de5c <vk_scheduler+0x358>
2000dc58:	e51b0018 	ldr	a1, [fp, #-24]
2000dc5c:	e7901003 	ldr	a2, [a1, a4]
2000dc60:	e1a03082 	lsl	a4, a3, #1
2000dc64:	e2833001 	add	a4, a4, #1
2000dc68:	e7912183 	ldr	a3, [a2, a4, lsl #3]
2000dc6c:	e59f31f0 	ldr	a4, [pc, #496]	; 2000de64 <vk_scheduler+0x360>
2000dc70:	e51b1018 	ldr	a2, [fp, #-24]
2000dc74:	e7913003 	ldr	a4, [a2, a4]
2000dc78:	e5832000 	str	a3, [a4]
2000dc7c:	ea000032 	b	2000dd4c <vk_scheduler+0x248>
2000dc80:	e59f31d8 	ldr	a4, [pc, #472]	; 2000de60 <vk_scheduler+0x35c>
2000dc84:	e51b2018 	ldr	a3, [fp, #-24]
2000dc88:	e7923003 	ldr	a4, [a3, a4]
2000dc8c:	e5933000 	ldr	a4, [a4]
2000dc90:	e593203c 	ldr	a3, [a4, #60]	; 0x3c
2000dc94:	e59f31c8 	ldr	a4, [pc, #456]	; 2000de64 <vk_scheduler+0x360>
2000dc98:	e51b0018 	ldr	a1, [fp, #-24]
2000dc9c:	e7903003 	ldr	a4, [a1, a4]
2000dca0:	e5832000 	str	a3, [a4]
2000dca4:	ea000028 	b	2000dd4c <vk_scheduler+0x248>
2000dca8:	e59f31b4 	ldr	a4, [pc, #436]	; 2000de64 <vk_scheduler+0x360>
2000dcac:	e51b1018 	ldr	a2, [fp, #-24]
2000dcb0:	e7913003 	ldr	a4, [a2, a4]
2000dcb4:	e5932000 	ldr	a3, [a4]
2000dcb8:	e59f31a0 	ldr	a4, [pc, #416]	; 2000de60 <vk_scheduler+0x35c>
2000dcbc:	e51b0018 	ldr	a1, [fp, #-24]
2000dcc0:	e7903003 	ldr	a4, [a1, a4]
2000dcc4:	e5832000 	str	a3, [a4]
2000dcc8:	e59f3190 	ldr	a4, [pc, #400]	; 2000de60 <vk_scheduler+0x35c>
2000dccc:	e51b1018 	ldr	a2, [fp, #-24]
2000dcd0:	e7913003 	ldr	a4, [a2, a4]
2000dcd4:	e5933000 	ldr	a4, [a4]
2000dcd8:	e593303c 	ldr	a4, [a4, #60]	; 0x3c
2000dcdc:	e3530000 	cmp	a4, #0
2000dce0:	1a00000b 	bne	2000dd14 <vk_scheduler+0x210>
2000dce4:	e51b2010 	ldr	a3, [fp, #-16]
2000dce8:	e59f316c 	ldr	a4, [pc, #364]	; 2000de5c <vk_scheduler+0x358>
2000dcec:	e51b0018 	ldr	a1, [fp, #-24]
2000dcf0:	e7901003 	ldr	a2, [a1, a4]
2000dcf4:	e1a03082 	lsl	a4, a3, #1
2000dcf8:	e2833001 	add	a4, a4, #1
2000dcfc:	e7912183 	ldr	a3, [a2, a4, lsl #3]
2000dd00:	e59f315c 	ldr	a4, [pc, #348]	; 2000de64 <vk_scheduler+0x360>
2000dd04:	e51b1018 	ldr	a2, [fp, #-24]
2000dd08:	e7913003 	ldr	a4, [a2, a4]
2000dd0c:	e5832000 	str	a3, [a4]
2000dd10:	ea00000d 	b	2000dd4c <vk_scheduler+0x248>
2000dd14:	e59f3144 	ldr	a4, [pc, #324]	; 2000de60 <vk_scheduler+0x35c>
2000dd18:	e51b2018 	ldr	a3, [fp, #-24]
2000dd1c:	e7923003 	ldr	a4, [a3, a4]
2000dd20:	e5933000 	ldr	a4, [a4]
2000dd24:	e593203c 	ldr	a3, [a4, #60]	; 0x3c
2000dd28:	e59f3134 	ldr	a4, [pc, #308]	; 2000de64 <vk_scheduler+0x360>
2000dd2c:	e51b0018 	ldr	a1, [fp, #-24]
2000dd30:	e7903003 	ldr	a4, [a1, a4]
2000dd34:	e5832000 	str	a3, [a4]
2000dd38:	ea000003 	b	2000dd4c <vk_scheduler+0x248>
2000dd3c:	e51b3010 	ldr	a4, [fp, #-16]
2000dd40:	e2433001 	sub	a4, a4, #1
2000dd44:	e50b3010 	str	a4, [fp, #-16]
2000dd48:	eaffff8b 	b	2000db7c <vk_scheduler+0x78>
2000dd4c:	e51b3014 	ldr	a4, [fp, #-20]
2000dd50:	e3530000 	cmp	a4, #0
2000dd54:	1a00001a 	bne	2000ddc4 <vk_scheduler+0x2c0>
2000dd58:	e59f3100 	ldr	a4, [pc, #256]	; 2000de60 <vk_scheduler+0x35c>
2000dd5c:	e51b1018 	ldr	a2, [fp, #-24]
2000dd60:	e7913003 	ldr	a4, [a2, a4]
2000dd64:	e5932000 	ldr	a3, [a4]
2000dd68:	e3a03000 	mov	a4, #0
2000dd6c:	e5823000 	str	a4, [a3]
2000dd70:	eb00008c 	bl	2000dfa8 <vk_scheduler_unlock>
2000dd74:	eb000ef6 	bl	20011954 <vk_timer_irq_enable>
2000dd78:	e59f30d0 	ldr	a4, [pc, #208]	; 2000de50 <vk_scheduler+0x34c>
2000dd7c:	e51b2018 	ldr	a3, [fp, #-24]
2000dd80:	e7923003 	ldr	a4, [a3, a4]
2000dd84:	e5933000 	ldr	a4, [a4]
2000dd88:	e3530001 	cmp	a4, #1
2000dd8c:	1a000004 	bne	2000dda4 <vk_scheduler+0x2a0>
2000dd90:	e59f30b8 	ldr	a4, [pc, #184]	; 2000de50 <vk_scheduler+0x34c>
2000dd94:	e51b0018 	ldr	a1, [fp, #-24]
2000dd98:	e7902003 	ldr	a3, [a1, a4]
2000dd9c:	e3a03000 	mov	a4, #0
2000dda0:	e5823000 	str	a4, [a3]
2000dda4:	e59f30b4 	ldr	a4, [pc, #180]	; 2000de60 <vk_scheduler+0x35c>
2000dda8:	e51b1018 	ldr	a2, [fp, #-24]
2000ddac:	e7913003 	ldr	a4, [a2, a4]
2000ddb0:	e5933000 	ldr	a4, [a4]
2000ddb4:	e5933020 	ldr	a4, [a4, #32]
2000ddb8:	e1a00003 	mov	a1, a4
2000ddbc:	ebffe927 	bl	20008260 <vh_restore_thread_ctx>
2000ddc0:	ea00000d 	b	2000ddfc <vk_scheduler+0x2f8>
2000ddc4:	e59f3094 	ldr	a4, [pc, #148]	; 2000de60 <vk_scheduler+0x35c>
2000ddc8:	e51b2018 	ldr	a3, [fp, #-24]
2000ddcc:	e7923003 	ldr	a4, [a3, a4]
2000ddd0:	e5932000 	ldr	a3, [a4]
2000ddd4:	e51b3014 	ldr	a4, [fp, #-20]
2000ddd8:	e1530002 	cmp	a4, a3
2000dddc:	0a000006 	beq	2000ddfc <vk_scheduler+0x2f8>
2000dde0:	e59f3078 	ldr	a4, [pc, #120]	; 2000de60 <vk_scheduler+0x35c>
2000dde4:	e51b0018 	ldr	a1, [fp, #-24]
2000dde8:	e7903003 	ldr	a4, [a1, a4]
2000ddec:	e5933000 	ldr	a4, [a4]
2000ddf0:	e51b0014 	ldr	a1, [fp, #-20]
2000ddf4:	e1a01003 	mov	a2, a4
2000ddf8:	eb00001b 	bl	2000de6c <vk_thread_switch_ctx>
2000ddfc:	eb000069 	bl	2000dfa8 <vk_scheduler_unlock>
2000de00:	e59f3048 	ldr	a4, [pc, #72]	; 2000de50 <vk_scheduler+0x34c>
2000de04:	e51b1018 	ldr	a2, [fp, #-24]
2000de08:	e7913003 	ldr	a4, [a2, a4]
2000de0c:	e5933000 	ldr	a4, [a4]
2000de10:	e3530001 	cmp	a4, #1
2000de14:	1a000009 	bne	2000de40 <vk_scheduler+0x33c>
2000de18:	e59f3030 	ldr	a4, [pc, #48]	; 2000de50 <vk_scheduler+0x34c>
2000de1c:	e51b0018 	ldr	a1, [fp, #-24]
2000de20:	e7902003 	ldr	a3, [a1, a4]
2000de24:	e3a03000 	mov	a4, #0
2000de28:	e5823000 	str	a4, [a3]
2000de2c:	e59f3034 	ldr	a4, [pc, #52]	; 2000de68 <vk_scheduler+0x364>
2000de30:	e51b1018 	ldr	a2, [fp, #-24]
2000de34:	e7913003 	ldr	a4, [a2, a4]
2000de38:	e1a00003 	mov	a1, a4
2000de3c:	ebffe912 	bl	2000828c <vh_change_ctx>
2000de40:	eb000ec3 	bl	20011954 <vk_timer_irq_enable>
2000de44:	e24bd00c 	sub	sp, fp, #12
2000de48:	e89da800 	ldm	sp, {fp, sp, pc}
2000de4c:	00005c70 	andeq	v2, a1, a1, ror ip
2000de50:	0000007c 	andeq	a1, a1, ip, ror a1
2000de54:	000000c4 	andeq	a1, a1, v1, asr #1
2000de58:	00000018 	andeq	a1, a1, v5, lsl a1
2000de5c:	00000074 	andeq	a1, a1, v1, ror a1
2000de60:	000000a4 	andeq	a1, a1, v1, lsr #1
2000de64:	000000b8 	strheq	a1, [a1], -v5
2000de68:	00000094 	muleq	a1, v1, a1

2000de6c <vk_thread_switch_ctx>:
2000de6c:	e1a0c00d 	mov	ip, sp
2000de70:	e92dd800 	push	{fp, ip, lr, pc}
2000de74:	e24cb004 	sub	fp, ip, #4
2000de78:	e24dd018 	sub	sp, sp, #24
2000de7c:	e59f20a0 	ldr	a3, [pc, #160]	; 2000df24 <vk_thread_switch_ctx+0xb8>
2000de80:	e50b2020 	str	a3, [fp, #-32]
2000de84:	e51b3020 	ldr	a4, [fp, #-32]
2000de88:	e08f3003 	add	a4, pc, a4
2000de8c:	e50b3020 	str	a4, [fp, #-32]
2000de90:	e50b0018 	str	a1, [fp, #-24]
2000de94:	e50b101c 	str	a2, [fp, #-28]
2000de98:	e51b3018 	ldr	a4, [fp, #-24]
2000de9c:	e5933000 	ldr	a4, [a4]
2000dea0:	e3530000 	cmp	a4, #0
2000dea4:	1a000002 	bne	2000deb4 <vk_thread_switch_ctx+0x48>
2000dea8:	e51b2018 	ldr	a3, [fp, #-24]
2000deac:	e3a03001 	mov	a4, #1
2000deb0:	e5823000 	str	a4, [a3]
2000deb4:	e51b3018 	ldr	a4, [fp, #-24]
2000deb8:	e5933020 	ldr	a4, [a4, #32]
2000debc:	e50b3014 	str	a4, [fp, #-20]
2000dec0:	e51b0014 	ldr	a1, [fp, #-20]
2000dec4:	ebffe8f3 	bl	20008298 <vh_save_thread_ctx>
2000dec8:	e51b201c 	ldr	a3, [fp, #-28]
2000decc:	e3a03000 	mov	a4, #0
2000ded0:	e5823000 	str	a4, [a3]
2000ded4:	e51b301c 	ldr	a4, [fp, #-28]
2000ded8:	e5933020 	ldr	a4, [a4, #32]
2000dedc:	e50b3010 	str	a4, [fp, #-16]
2000dee0:	eb000030 	bl	2000dfa8 <vk_scheduler_unlock>
2000dee4:	eb000e9a 	bl	20011954 <vk_timer_irq_enable>
2000dee8:	e59f3038 	ldr	a4, [pc, #56]	; 2000df28 <vk_thread_switch_ctx+0xbc>
2000deec:	e51b1020 	ldr	a2, [fp, #-32]
2000def0:	e7913003 	ldr	a4, [a2, a4]
2000def4:	e5933000 	ldr	a4, [a4]
2000def8:	e3530001 	cmp	a4, #1
2000defc:	1a000004 	bne	2000df14 <vk_thread_switch_ctx+0xa8>
2000df00:	e59f3020 	ldr	a4, [pc, #32]	; 2000df28 <vk_thread_switch_ctx+0xbc>
2000df04:	e51b1020 	ldr	a2, [fp, #-32]
2000df08:	e7912003 	ldr	a3, [a2, a4]
2000df0c:	e3a03000 	mov	a4, #0
2000df10:	e5823000 	str	a4, [a3]
2000df14:	e51b0010 	ldr	a1, [fp, #-16]
2000df18:	ebffe8d0 	bl	20008260 <vh_restore_thread_ctx>
2000df1c:	e24bd00c 	sub	sp, fp, #12
2000df20:	e89da800 	ldm	sp, {fp, sp, pc}
2000df24:	00005908 	andeq	v2, a1, v5, lsl #18
2000df28:	0000007c 	andeq	a1, a1, ip, ror a1

2000df2c <VPOS_start>:
2000df2c:	e1a0c00d 	mov	ip, sp
2000df30:	e92dd800 	push	{fp, ip, lr, pc}
2000df34:	e24cb004 	sub	fp, ip, #4
2000df38:	ebffee27 	bl	200097dc <vk_swi_scheduler>
2000df3c:	e89da800 	ldm	sp, {fp, sp, pc}

2000df40 <vk_scheduler_lock>:
2000df40:	e1a0c00d 	mov	ip, sp
2000df44:	e92dd800 	push	{fp, ip, lr, pc}
2000df48:	e24cb004 	sub	fp, ip, #4
2000df4c:	e59f2048 	ldr	a3, [pc, #72]	; 2000df9c <vk_scheduler_lock+0x5c>
2000df50:	e08f2002 	add	a3, pc, a3
2000df54:	e59f3044 	ldr	a4, [pc, #68]	; 2000dfa0 <vk_scheduler_lock+0x60>
2000df58:	e7923003 	ldr	a4, [a3, a4]
2000df5c:	e5931000 	ldr	a2, [a4]
2000df60:	e591302c 	ldr	a4, [a2, #44]	; 0x2c
2000df64:	e2833001 	add	a4, a4, #1
2000df68:	e581302c 	str	a4, [a2, #44]	; 0x2c
2000df6c:	e59f302c 	ldr	a4, [pc, #44]	; 2000dfa0 <vk_scheduler_lock+0x60>
2000df70:	e7923003 	ldr	a4, [a3, a4]
2000df74:	e5931000 	ldr	a2, [a4]
2000df78:	e59f3024 	ldr	a4, [pc, #36]	; 2000dfa4 <vk_scheduler_lock+0x64>
2000df7c:	e7923003 	ldr	a4, [a3, a4]
2000df80:	e5933000 	ldr	a4, [a4]
2000df84:	e5813010 	str	a4, [a2, #16]
2000df88:	e59f3014 	ldr	a4, [pc, #20]	; 2000dfa4 <vk_scheduler_lock+0x64>
2000df8c:	e7922003 	ldr	a3, [a3, a4]
2000df90:	e3a03001 	mov	a4, #1
2000df94:	e5823000 	str	a4, [a3]
2000df98:	e89da800 	ldm	sp, {fp, sp, pc}
2000df9c:	00005840 	andeq	v2, a1, a1, asr #16
2000dfa0:	000000a4 	andeq	a1, a1, v1, lsr #1
2000dfa4:	0000003c 	andeq	a1, a1, ip, lsr a1

2000dfa8 <vk_scheduler_unlock>:
2000dfa8:	e1a0c00d 	mov	ip, sp
2000dfac:	e92dd800 	push	{fp, ip, lr, pc}
2000dfb0:	e24cb004 	sub	fp, ip, #4
2000dfb4:	e59f3014 	ldr	a4, [pc, #20]	; 2000dfd0 <vk_scheduler_unlock+0x28>
2000dfb8:	e08f3003 	add	a4, pc, a4
2000dfbc:	e59f2010 	ldr	a3, [pc, #16]	; 2000dfd4 <vk_scheduler_unlock+0x2c>
2000dfc0:	e7932002 	ldr	a3, [a4, a3]
2000dfc4:	e3a03000 	mov	a4, #0
2000dfc8:	e5823000 	str	a4, [a3]
2000dfcc:	e89da800 	ldm	sp, {fp, sp, pc}
2000dfd0:	000057d8 	ldrdeq	v2, [a1], -v5
2000dfd4:	0000003c 	andeq	a1, a1, ip, lsr a1

2000dfd8 <vk_thread_check>:
2000dfd8:	e1a0c00d 	mov	ip, sp
2000dfdc:	e92dd800 	push	{fp, ip, lr, pc}
2000dfe0:	e24cb004 	sub	fp, ip, #4
2000dfe4:	e24dd018 	sub	sp, sp, #24
2000dfe8:	e59f02ac 	ldr	a1, [pc, #684]	; 2000e29c <vk_thread_check+0x2c4>
2000dfec:	e50b0020 	str	a1, [fp, #-32]
2000dff0:	e51b1020 	ldr	a2, [fp, #-32]
2000dff4:	e08f1001 	add	a2, pc, a2
2000dff8:	e50b1020 	str	a2, [fp, #-32]
2000dffc:	e59f329c 	ldr	a4, [pc, #668]	; 2000e2a0 <vk_thread_check+0x2c8>
2000e000:	e51b2020 	ldr	a3, [fp, #-32]
2000e004:	e7923003 	ldr	a4, [a3, a4]
2000e008:	e5933000 	ldr	a4, [a4]
2000e00c:	e3530000 	cmp	a4, #0
2000e010:	0a000093 	beq	2000e264 <vk_thread_check+0x28c>
2000e014:	e59f3284 	ldr	a4, [pc, #644]	; 2000e2a0 <vk_thread_check+0x2c8>
2000e018:	e51b0020 	ldr	a1, [fp, #-32]
2000e01c:	e7903003 	ldr	a4, [a1, a4]
2000e020:	e5933000 	ldr	a4, [a4]
2000e024:	e5933000 	ldr	a4, [a4]
2000e028:	e3530003 	cmp	a4, #3
2000e02c:	1a00008c 	bne	2000e264 <vk_thread_check+0x28c>
2000e030:	e3a03000 	mov	a4, #0
2000e034:	e50b3018 	str	a4, [fp, #-24]
2000e038:	ea000069 	b	2000e1e4 <vk_thread_check+0x20c>
2000e03c:	e51b2018 	ldr	a3, [fp, #-24]
2000e040:	e59f325c 	ldr	a4, [pc, #604]	; 2000e2a4 <vk_thread_check+0x2cc>
2000e044:	e51b0020 	ldr	a1, [fp, #-32]
2000e048:	e7901003 	ldr	a2, [a1, a4]
2000e04c:	e1a03002 	mov	a4, a3
2000e050:	e1a02103 	lsl	a3, a4, #2
2000e054:	e1a03102 	lsl	a4, a3, #2
2000e058:	e0623003 	rsb	a4, a3, a4
2000e05c:	e0813003 	add	a4, a2, a4
2000e060:	e5933000 	ldr	a4, [a4]
2000e064:	e3530001 	cmp	a4, #1
2000e068:	1a00005a 	bne	2000e1d8 <vk_thread_check+0x200>
2000e06c:	e51b2018 	ldr	a3, [fp, #-24]
2000e070:	e59f322c 	ldr	a4, [pc, #556]	; 2000e2a4 <vk_thread_check+0x2cc>
2000e074:	e51b0020 	ldr	a1, [fp, #-32]
2000e078:	e7901003 	ldr	a2, [a1, a4]
2000e07c:	e3a00004 	mov	a1, #4
2000e080:	e1a03002 	mov	a4, a3
2000e084:	e1a02103 	lsl	a3, a4, #2
2000e088:	e1a03102 	lsl	a4, a3, #2
2000e08c:	e0623003 	rsb	a4, a3, a4
2000e090:	e0813003 	add	a4, a2, a4
2000e094:	e0833000 	add	a4, a4, a1
2000e098:	e5932000 	ldr	a3, [a4]
2000e09c:	e59f31fc 	ldr	a4, [pc, #508]	; 2000e2a0 <vk_thread_check+0x2c8>
2000e0a0:	e51b1020 	ldr	a2, [fp, #-32]
2000e0a4:	e7913003 	ldr	a4, [a2, a4]
2000e0a8:	e5933000 	ldr	a4, [a4]
2000e0ac:	e1520003 	cmp	a3, a4
2000e0b0:	1a000048 	bne	2000e1d8 <vk_thread_check+0x200>
2000e0b4:	e51b2018 	ldr	a3, [fp, #-24]
2000e0b8:	e59f31e4 	ldr	a4, [pc, #484]	; 2000e2a4 <vk_thread_check+0x2cc>
2000e0bc:	e51b0020 	ldr	a1, [fp, #-32]
2000e0c0:	e7901003 	ldr	a2, [a1, a4]
2000e0c4:	e3a00008 	mov	a1, #8
2000e0c8:	e1a03002 	mov	a4, a3
2000e0cc:	e1a02103 	lsl	a3, a4, #2
2000e0d0:	e1a03102 	lsl	a4, a3, #2
2000e0d4:	e0623003 	rsb	a4, a3, a4
2000e0d8:	e0813003 	add	a4, a2, a4
2000e0dc:	e0833000 	add	a4, a4, a1
2000e0e0:	e5933000 	ldr	a4, [a4]
2000e0e4:	e50b3010 	str	a4, [fp, #-16]
2000e0e8:	e51b2018 	ldr	a3, [fp, #-24]
2000e0ec:	e59f31b0 	ldr	a4, [pc, #432]	; 2000e2a4 <vk_thread_check+0x2cc>
2000e0f0:	e51b0020 	ldr	a1, [fp, #-32]
2000e0f4:	e7901003 	ldr	a2, [a1, a4]
2000e0f8:	e1a03002 	mov	a4, a3
2000e0fc:	e1a02103 	lsl	a3, a4, #2
2000e100:	e1a03102 	lsl	a4, a3, #2
2000e104:	e0623003 	rsb	a4, a3, a4
2000e108:	e0812003 	add	a3, a2, a4
2000e10c:	e3a03000 	mov	a4, #0
2000e110:	e5823000 	str	a4, [a3]
2000e114:	e51b3018 	ldr	a4, [fp, #-24]
2000e118:	e2833001 	add	a4, a4, #1
2000e11c:	e50b3014 	str	a4, [fp, #-20]
2000e120:	ea00001d 	b	2000e19c <vk_thread_check+0x1c4>
2000e124:	e51b2014 	ldr	a3, [fp, #-20]
2000e128:	e59f3174 	ldr	a4, [pc, #372]	; 2000e2a4 <vk_thread_check+0x2cc>
2000e12c:	e51b0020 	ldr	a1, [fp, #-32]
2000e130:	e7901003 	ldr	a2, [a1, a4]
2000e134:	e1a03002 	mov	a4, a3
2000e138:	e1a02103 	lsl	a3, a4, #2
2000e13c:	e1a03102 	lsl	a4, a3, #2
2000e140:	e0623003 	rsb	a4, a3, a4
2000e144:	e0813003 	add	a4, a2, a4
2000e148:	e5933000 	ldr	a4, [a4]
2000e14c:	e3530001 	cmp	a4, #1
2000e150:	1a00000e 	bne	2000e190 <vk_thread_check+0x1b8>
2000e154:	e51b2014 	ldr	a3, [fp, #-20]
2000e158:	e59f3144 	ldr	a4, [pc, #324]	; 2000e2a4 <vk_thread_check+0x2cc>
2000e15c:	e51b0020 	ldr	a1, [fp, #-32]
2000e160:	e7901003 	ldr	a2, [a1, a4]
2000e164:	e3a00008 	mov	a1, #8
2000e168:	e1a03002 	mov	a4, a3
2000e16c:	e1a02103 	lsl	a3, a4, #2
2000e170:	e1a03102 	lsl	a4, a3, #2
2000e174:	e0623003 	rsb	a4, a3, a4
2000e178:	e0813003 	add	a4, a2, a4
2000e17c:	e0833000 	add	a4, a4, a1
2000e180:	e5932000 	ldr	a3, [a4]
2000e184:	e51b3010 	ldr	a4, [fp, #-16]
2000e188:	e1520003 	cmp	a3, a4
2000e18c:	0a000005 	beq	2000e1a8 <vk_thread_check+0x1d0>
2000e190:	e51b3014 	ldr	a4, [fp, #-20]
2000e194:	e2833001 	add	a4, a4, #1
2000e198:	e50b3014 	str	a4, [fp, #-20]
2000e19c:	e51b3014 	ldr	a4, [fp, #-20]
2000e1a0:	e3530009 	cmp	a4, #9
2000e1a4:	9affffde 	bls	2000e124 <vk_thread_check+0x14c>
2000e1a8:	e51b3014 	ldr	a4, [fp, #-20]
2000e1ac:	e353000a 	cmp	a4, #10
2000e1b0:	1a000008 	bne	2000e1d8 <vk_thread_check+0x200>
2000e1b4:	e51b2010 	ldr	a3, [fp, #-16]
2000e1b8:	e3a03001 	mov	a4, #1
2000e1bc:	e5823000 	str	a4, [a3]
2000e1c0:	e51b0010 	ldr	a1, [fp, #-16]
2000e1c4:	e59f30dc 	ldr	a4, [pc, #220]	; 2000e2a8 <vk_thread_check+0x2d0>
2000e1c8:	e51b1020 	ldr	a2, [fp, #-32]
2000e1cc:	e7913003 	ldr	a4, [a2, a4]
2000e1d0:	e1a01003 	mov	a2, a4
2000e1d4:	ebfffbd0 	bl	2000d11c <vk_thread_enqueue>
2000e1d8:	e51b3018 	ldr	a4, [fp, #-24]
2000e1dc:	e2833001 	add	a4, a4, #1
2000e1e0:	e50b3018 	str	a4, [fp, #-24]
2000e1e4:	e51b3018 	ldr	a4, [fp, #-24]
2000e1e8:	e3530009 	cmp	a4, #9
2000e1ec:	9affff92 	bls	2000e03c <vk_thread_check+0x64>
2000e1f0:	e59f30a8 	ldr	a4, [pc, #168]	; 2000e2a0 <vk_thread_check+0x2c8>
2000e1f4:	e51b2020 	ldr	a3, [fp, #-32]
2000e1f8:	e7923003 	ldr	a4, [a3, a4]
2000e1fc:	e5933000 	ldr	a4, [a4]
2000e200:	e1a00003 	mov	a1, a4
2000e204:	e59f309c 	ldr	a4, [pc, #156]	; 2000e2a8 <vk_thread_check+0x2d0>
2000e208:	e51b1020 	ldr	a2, [fp, #-32]
2000e20c:	e7913003 	ldr	a4, [a2, a4]
2000e210:	e1a01003 	mov	a2, a4
2000e214:	ebfffc2e 	bl	2000d2d4 <vk_thread_dequeue>
2000e218:	e59f3080 	ldr	a4, [pc, #128]	; 2000e2a0 <vk_thread_check+0x2c8>
2000e21c:	e51b2020 	ldr	a3, [fp, #-32]
2000e220:	e7923003 	ldr	a4, [a3, a4]
2000e224:	e5933000 	ldr	a4, [a4]
2000e228:	e5933024 	ldr	a4, [a4, #36]	; 0x24
2000e22c:	e1a00003 	mov	a1, a4
2000e230:	ebffeeee 	bl	20009df0 <vk_free>
2000e234:	e59f3064 	ldr	a4, [pc, #100]	; 2000e2a0 <vk_thread_check+0x2c8>
2000e238:	e51b0020 	ldr	a1, [fp, #-32]
2000e23c:	e7903003 	ldr	a4, [a1, a4]
2000e240:	e5932000 	ldr	a3, [a4]
2000e244:	e3a03000 	mov	a4, #0
2000e248:	e5823024 	str	a4, [a3, #36]	; 0x24
2000e24c:	e59f304c 	ldr	a4, [pc, #76]	; 2000e2a0 <vk_thread_check+0x2c8>
2000e250:	e51b1020 	ldr	a2, [fp, #-32]
2000e254:	e7912003 	ldr	a3, [a2, a4]
2000e258:	e3a03000 	mov	a4, #0
2000e25c:	e5823000 	str	a4, [a3]
2000e260:	ea00000b 	b	2000e294 <vk_thread_check+0x2bc>
2000e264:	e59f3034 	ldr	a4, [pc, #52]	; 2000e2a0 <vk_thread_check+0x2c8>
2000e268:	e51b2020 	ldr	a3, [fp, #-32]
2000e26c:	e7923003 	ldr	a4, [a3, a4]
2000e270:	e5933000 	ldr	a4, [a4]
2000e274:	e5933000 	ldr	a4, [a4]
2000e278:	e3530004 	cmp	a4, #4
2000e27c:	1a000004 	bne	2000e294 <vk_thread_check+0x2bc>
2000e280:	e59f3018 	ldr	a4, [pc, #24]	; 2000e2a0 <vk_thread_check+0x2c8>
2000e284:	e51b0020 	ldr	a1, [fp, #-32]
2000e288:	e7902003 	ldr	a3, [a1, a4]
2000e28c:	e3a03000 	mov	a4, #0
2000e290:	e5823000 	str	a4, [a3]
2000e294:	e24bd00c 	sub	sp, fp, #12
2000e298:	e89da800 	ldm	sp, {fp, sp, pc}
2000e29c:	0000579c 	muleq	a1, ip, v4
2000e2a0:	000000a4 	andeq	a1, a1, v1, lsr #1
2000e2a4:	000000bc 	strheq	a1, [a1], -ip
2000e2a8:	00000074 	andeq	a1, a1, v1, ror a1

2000e2ac <sem_init>:
2000e2ac:	e1a0c00d 	mov	ip, sp
2000e2b0:	e92dd800 	push	{fp, ip, lr, pc}
2000e2b4:	e24cb004 	sub	fp, ip, #4
2000e2b8:	e24dd018 	sub	sp, sp, #24
2000e2bc:	e50b0018 	str	a1, [fp, #-24]
2000e2c0:	e50b101c 	str	a2, [fp, #-28]
2000e2c4:	e50b2020 	str	a3, [fp, #-32]
2000e2c8:	e51b301c 	ldr	a4, [fp, #-28]
2000e2cc:	e3530000 	cmp	a4, #0
2000e2d0:	0a000002 	beq	2000e2e0 <sem_init+0x34>
2000e2d4:	e3a03001 	mov	a4, #1
2000e2d8:	e50b3024 	str	a4, [fp, #-36]	; 0x24
2000e2dc:	ea000026 	b	2000e37c <sem_init+0xd0>
2000e2e0:	e3a00040 	mov	a1, #64	; 0x40
2000e2e4:	ebffef59 	bl	2000a050 <malloc>
2000e2e8:	e1a03000 	mov	a4, a1
2000e2ec:	e50b3010 	str	a4, [fp, #-16]
2000e2f0:	e51b2010 	ldr	a3, [fp, #-16]
2000e2f4:	e3a03000 	mov	a4, #0
2000e2f8:	e5823004 	str	a4, [a3, #4]
2000e2fc:	e51b2010 	ldr	a3, [fp, #-16]
2000e300:	e3a03000 	mov	a4, #0
2000e304:	e5823008 	str	a4, [a3, #8]
2000e308:	e51b2020 	ldr	a3, [fp, #-32]
2000e30c:	e51b3010 	ldr	a4, [fp, #-16]
2000e310:	e583200c 	str	a3, [a4, #12]
2000e314:	e51b2010 	ldr	a3, [fp, #-16]
2000e318:	e51b3020 	ldr	a4, [fp, #-32]
2000e31c:	e5823010 	str	a4, [a3, #16]
2000e320:	e51b2010 	ldr	a3, [fp, #-16]
2000e324:	e3a03000 	mov	a4, #0
2000e328:	e5823028 	str	a4, [a3, #40]	; 0x28
2000e32c:	e51b2010 	ldr	a3, [fp, #-16]
2000e330:	e3a03000 	mov	a4, #0
2000e334:	e582302c 	str	a4, [a3, #44]	; 0x2c
2000e338:	e51b2010 	ldr	a3, [fp, #-16]
2000e33c:	e3a03000 	mov	a4, #0
2000e340:	e5823030 	str	a4, [a3, #48]	; 0x30
2000e344:	e51b2010 	ldr	a3, [fp, #-16]
2000e348:	e3a03000 	mov	a4, #0
2000e34c:	e5823034 	str	a4, [a3, #52]	; 0x34
2000e350:	e51b2010 	ldr	a3, [fp, #-16]
2000e354:	e3a03000 	mov	a4, #0
2000e358:	e5823038 	str	a4, [a3, #56]	; 0x38
2000e35c:	e51b2010 	ldr	a3, [fp, #-16]
2000e360:	e3a03000 	mov	a4, #0
2000e364:	e582303c 	str	a4, [a3, #60]	; 0x3c
2000e368:	e51b2018 	ldr	a3, [fp, #-24]
2000e36c:	e51b3010 	ldr	a4, [fp, #-16]
2000e370:	e5823000 	str	a4, [a3]
2000e374:	e3a03000 	mov	a4, #0
2000e378:	e50b3024 	str	a4, [fp, #-36]	; 0x24
2000e37c:	e51b3024 	ldr	a4, [fp, #-36]	; 0x24
2000e380:	e1a00003 	mov	a1, a4
2000e384:	e24bd00c 	sub	sp, fp, #12
2000e388:	e89da800 	ldm	sp, {fp, sp, pc}

2000e38c <sem_destory>:
2000e38c:	e1a0c00d 	mov	ip, sp
2000e390:	e92dd800 	push	{fp, ip, lr, pc}
2000e394:	e24cb004 	sub	fp, ip, #4
2000e398:	e24dd018 	sub	sp, sp, #24
2000e39c:	e59f10d4 	ldr	a2, [pc, #212]	; 2000e478 <sem_destory+0xec>
2000e3a0:	e50b1020 	str	a2, [fp, #-32]
2000e3a4:	e51b2020 	ldr	a3, [fp, #-32]
2000e3a8:	e08f2002 	add	a3, pc, a3
2000e3ac:	e50b2020 	str	a3, [fp, #-32]
2000e3b0:	e50b0018 	str	a1, [fp, #-24]
2000e3b4:	ebffecf3 	bl	20009788 <vk_disable_interrupt>
2000e3b8:	e51b3018 	ldr	a4, [fp, #-24]
2000e3bc:	e5933000 	ldr	a4, [a4]
2000e3c0:	e50b3010 	str	a4, [fp, #-16]
2000e3c4:	e51b3010 	ldr	a4, [fp, #-16]
2000e3c8:	e5933008 	ldr	a4, [a4, #8]
2000e3cc:	e3530000 	cmp	a4, #0
2000e3d0:	1a00000b 	bne	2000e404 <sem_destory+0x78>
2000e3d4:	e51b3010 	ldr	a4, [fp, #-16]
2000e3d8:	e593300c 	ldr	a4, [a4, #12]
2000e3dc:	e1a02003 	mov	a3, a4
2000e3e0:	e51b3010 	ldr	a4, [fp, #-16]
2000e3e4:	e5933010 	ldr	a4, [a4, #16]
2000e3e8:	e1520003 	cmp	a3, a4
2000e3ec:	1a000004 	bne	2000e404 <sem_destory+0x78>
2000e3f0:	e51b0010 	ldr	a1, [fp, #-16]
2000e3f4:	ebffef33 	bl	2000a0c8 <free>
2000e3f8:	e3a03000 	mov	a4, #0
2000e3fc:	e50b301c 	str	a4, [fp, #-28]
2000e400:	ea000018 	b	2000e468 <sem_destory+0xdc>
2000e404:	e51b3010 	ldr	a4, [fp, #-16]
2000e408:	e5932008 	ldr	a3, [a4, #8]
2000e40c:	e59f3068 	ldr	a4, [pc, #104]	; 2000e47c <sem_destory+0xf0>
2000e410:	e51b0020 	ldr	a1, [fp, #-32]
2000e414:	e0803003 	add	a4, a1, a4
2000e418:	e1a00003 	mov	a1, a4
2000e41c:	e1a01002 	mov	a2, a3
2000e420:	ebfff9bb 	bl	2000cb14 <printk>
2000e424:	e51b3010 	ldr	a4, [fp, #-16]
2000e428:	e593100c 	ldr	a2, [a4, #12]
2000e42c:	e51b3010 	ldr	a4, [fp, #-16]
2000e430:	e5932010 	ldr	a3, [a4, #16]
2000e434:	e59f3044 	ldr	a4, [pc, #68]	; 2000e480 <sem_destory+0xf4>
2000e438:	e51b0020 	ldr	a1, [fp, #-32]
2000e43c:	e0803003 	add	a4, a1, a4
2000e440:	e1a00003 	mov	a1, a4
2000e444:	ebfff9b2 	bl	2000cb14 <printk>
2000e448:	e59f3034 	ldr	a4, [pc, #52]	; 2000e484 <sem_destory+0xf8>
2000e44c:	e51b1020 	ldr	a2, [fp, #-32]
2000e450:	e0813003 	add	a4, a2, a4
2000e454:	e1a00003 	mov	a1, a4
2000e458:	ebfff9ad 	bl	2000cb14 <printk>
2000e45c:	ebffecb4 	bl	20009734 <vk_enable_interrupt>
2000e460:	e3a02001 	mov	a3, #1
2000e464:	e50b201c 	str	a3, [fp, #-28]
2000e468:	e51b301c 	ldr	a4, [fp, #-28]
2000e46c:	e1a00003 	mov	a1, a4
2000e470:	e24bd00c 	sub	sp, fp, #12
2000e474:	e89da800 	ldm	sp, {fp, sp, pc}
2000e478:	000053e8 	andeq	v2, a1, v5, ror #7
2000e47c:	fffff9e4 			; <UNDEFINED> instruction: 0xfffff9e4
2000e480:	fffff9f8 			; <UNDEFINED> instruction: 0xfffff9f8
2000e484:	fffffa18 			; <UNDEFINED> instruction: 0xfffffa18

2000e488 <sem_trywait>:
2000e488:	e1a0c00d 	mov	ip, sp
2000e48c:	e92dd800 	push	{fp, ip, lr, pc}
2000e490:	e24cb004 	sub	fp, ip, #4
2000e494:	e24dd010 	sub	sp, sp, #16
2000e498:	e50b0018 	str	a1, [fp, #-24]
2000e49c:	e51b3018 	ldr	a4, [fp, #-24]
2000e4a0:	e5933000 	ldr	a4, [a4]
2000e4a4:	e50b3010 	str	a4, [fp, #-16]
2000e4a8:	ebffecb6 	bl	20009788 <vk_disable_interrupt>
2000e4ac:	e51b3010 	ldr	a4, [fp, #-16]
2000e4b0:	e593300c 	ldr	a4, [a4, #12]
2000e4b4:	e3530000 	cmp	a4, #0
2000e4b8:	da000006 	ble	2000e4d8 <sem_trywait+0x50>
2000e4bc:	e51b0018 	ldr	a1, [fp, #-24]
2000e4c0:	eb00000b 	bl	2000e4f4 <sem_wait>
2000e4c4:	e1a03000 	mov	a4, a1
2000e4c8:	e50b3014 	str	a4, [fp, #-20]
2000e4cc:	e51b3014 	ldr	a4, [fp, #-20]
2000e4d0:	e50b301c 	str	a4, [fp, #-28]
2000e4d4:	ea000002 	b	2000e4e4 <sem_trywait+0x5c>
2000e4d8:	ebffec95 	bl	20009734 <vk_enable_interrupt>
2000e4dc:	e3a03001 	mov	a4, #1
2000e4e0:	e50b301c 	str	a4, [fp, #-28]
2000e4e4:	e51b301c 	ldr	a4, [fp, #-28]
2000e4e8:	e1a00003 	mov	a1, a4
2000e4ec:	e24bd00c 	sub	sp, fp, #12
2000e4f0:	e89da800 	ldm	sp, {fp, sp, pc}

2000e4f4 <sem_wait>:
2000e4f4:	e1a0c00d 	mov	ip, sp
2000e4f8:	e92dd800 	push	{fp, ip, lr, pc}
2000e4fc:	e24cb004 	sub	fp, ip, #4
2000e500:	e24dd018 	sub	sp, sp, #24
2000e504:	e59f1338 	ldr	a2, [pc, #824]	; 2000e844 <sem_wait+0x350>
2000e508:	e50b1020 	str	a2, [fp, #-32]
2000e50c:	e51b2020 	ldr	a3, [fp, #-32]
2000e510:	e08f2002 	add	a3, pc, a3
2000e514:	e50b2020 	str	a3, [fp, #-32]
2000e518:	e50b0018 	str	a1, [fp, #-24]
2000e51c:	ebffec99 	bl	20009788 <vk_disable_interrupt>
2000e520:	e51b3018 	ldr	a4, [fp, #-24]
2000e524:	e5933000 	ldr	a4, [a4]
2000e528:	e50b3014 	str	a4, [fp, #-20]
2000e52c:	ea000095 	b	2000e788 <sem_wait+0x294>
2000e530:	e51b3014 	ldr	a4, [fp, #-20]
2000e534:	e5933028 	ldr	a4, [a4, #40]	; 0x28
2000e538:	e3530000 	cmp	a4, #0
2000e53c:	1a000006 	bne	2000e55c <sem_wait+0x68>
2000e540:	e59f3300 	ldr	a4, [pc, #768]	; 2000e848 <sem_wait+0x354>
2000e544:	e51b1020 	ldr	a2, [fp, #-32]
2000e548:	e7913003 	ldr	a4, [a2, a4]
2000e54c:	e5932000 	ldr	a3, [a4]
2000e550:	e51b3014 	ldr	a4, [fp, #-20]
2000e554:	e5832028 	str	a3, [a4, #40]	; 0x28
2000e558:	ea00001d 	b	2000e5d4 <sem_wait+0xe0>
2000e55c:	e51b3014 	ldr	a4, [fp, #-20]
2000e560:	e593302c 	ldr	a4, [a4, #44]	; 0x2c
2000e564:	e3530000 	cmp	a4, #0
2000e568:	1a000006 	bne	2000e588 <sem_wait+0x94>
2000e56c:	e59f32d4 	ldr	a4, [pc, #724]	; 2000e848 <sem_wait+0x354>
2000e570:	e51b2020 	ldr	a3, [fp, #-32]
2000e574:	e7923003 	ldr	a4, [a3, a4]
2000e578:	e5932000 	ldr	a3, [a4]
2000e57c:	e51b3014 	ldr	a4, [fp, #-20]
2000e580:	e583202c 	str	a3, [a4, #44]	; 0x2c
2000e584:	ea000012 	b	2000e5d4 <sem_wait+0xe0>
2000e588:	e51b3014 	ldr	a4, [fp, #-20]
2000e58c:	e5933030 	ldr	a4, [a4, #48]	; 0x30
2000e590:	e3530000 	cmp	a4, #0
2000e594:	1a000006 	bne	2000e5b4 <sem_wait+0xc0>
2000e598:	e59f32a8 	ldr	a4, [pc, #680]	; 2000e848 <sem_wait+0x354>
2000e59c:	e51b1020 	ldr	a2, [fp, #-32]
2000e5a0:	e7913003 	ldr	a4, [a2, a4]
2000e5a4:	e5932000 	ldr	a3, [a4]
2000e5a8:	e51b3014 	ldr	a4, [fp, #-20]
2000e5ac:	e5832030 	str	a3, [a4, #48]	; 0x30
2000e5b0:	ea000007 	b	2000e5d4 <sem_wait+0xe0>
2000e5b4:	e59f3290 	ldr	a4, [pc, #656]	; 2000e84c <sem_wait+0x358>
2000e5b8:	e51b2020 	ldr	a3, [fp, #-32]
2000e5bc:	e0823003 	add	a4, a3, a4
2000e5c0:	e1a00003 	mov	a1, a4
2000e5c4:	ebfff952 	bl	2000cb14 <printk>
2000e5c8:	e3e03000 	mvn	a4, #0
2000e5cc:	e50b301c 	str	a4, [fp, #-28]
2000e5d0:	ea000097 	b	2000e834 <sem_wait+0x340>
2000e5d4:	e59f326c 	ldr	a4, [pc, #620]	; 2000e848 <sem_wait+0x354>
2000e5d8:	e51b1020 	ldr	a2, [fp, #-32]
2000e5dc:	e7913003 	ldr	a4, [a2, a4]
2000e5e0:	e5932000 	ldr	a3, [a4]
2000e5e4:	e3a03002 	mov	a4, #2
2000e5e8:	e5823000 	str	a4, [a3]
2000e5ec:	e59f3254 	ldr	a4, [pc, #596]	; 2000e848 <sem_wait+0x354>
2000e5f0:	e51b2020 	ldr	a3, [fp, #-32]
2000e5f4:	e7923003 	ldr	a4, [a3, a4]
2000e5f8:	e5933000 	ldr	a4, [a4]
2000e5fc:	e1a00003 	mov	a1, a4
2000e600:	e59f3248 	ldr	a4, [pc, #584]	; 2000e850 <sem_wait+0x35c>
2000e604:	e51b1020 	ldr	a2, [fp, #-32]
2000e608:	e7913003 	ldr	a4, [a2, a4]
2000e60c:	e1a01003 	mov	a2, a4
2000e610:	ebfffb2f 	bl	2000d2d4 <vk_thread_dequeue>
2000e614:	e51b3014 	ldr	a4, [fp, #-20]
2000e618:	e5933008 	ldr	a4, [a4, #8]
2000e61c:	e2832001 	add	a3, a4, #1
2000e620:	e51b3014 	ldr	a4, [fp, #-20]
2000e624:	e5832008 	str	a3, [a4, #8]
2000e628:	e59f3218 	ldr	a4, [pc, #536]	; 2000e848 <sem_wait+0x354>
2000e62c:	e51b2020 	ldr	a3, [fp, #-32]
2000e630:	e7923003 	ldr	a4, [a3, a4]
2000e634:	e5933000 	ldr	a4, [a4]
2000e638:	e5932008 	ldr	a3, [a4, #8]
2000e63c:	e51b3014 	ldr	a4, [fp, #-20]
2000e640:	e5933004 	ldr	a4, [a4, #4]
2000e644:	e1520003 	cmp	a3, a4
2000e648:	9a000006 	bls	2000e668 <sem_wait+0x174>
2000e64c:	e59f31f4 	ldr	a4, [pc, #500]	; 2000e848 <sem_wait+0x354>
2000e650:	e51b1020 	ldr	a2, [fp, #-32]
2000e654:	e7913003 	ldr	a4, [a2, a4]
2000e658:	e5933000 	ldr	a4, [a4]
2000e65c:	e5932008 	ldr	a3, [a4, #8]
2000e660:	e51b3014 	ldr	a4, [fp, #-20]
2000e664:	e5832004 	str	a3, [a4, #4]
2000e668:	e3a03000 	mov	a4, #0
2000e66c:	e50b3010 	str	a4, [fp, #-16]
2000e670:	ea000040 	b	2000e778 <sem_wait+0x284>
2000e674:	e51b3010 	ldr	a4, [fp, #-16]
2000e678:	e51b1014 	ldr	a2, [fp, #-20]
2000e67c:	e283300c 	add	a4, a4, #12
2000e680:	e3a02004 	mov	a3, #4
2000e684:	e1a03103 	lsl	a4, a4, #2
2000e688:	e0813003 	add	a4, a2, a4
2000e68c:	e0833002 	add	a4, a4, a3
2000e690:	e5933000 	ldr	a4, [a4]
2000e694:	e3530000 	cmp	a4, #0
2000e698:	0a000033 	beq	2000e76c <sem_wait+0x278>
2000e69c:	e51b3010 	ldr	a4, [fp, #-16]
2000e6a0:	e51b1014 	ldr	a2, [fp, #-20]
2000e6a4:	e283300c 	add	a4, a4, #12
2000e6a8:	e3a02004 	mov	a3, #4
2000e6ac:	e1a03103 	lsl	a4, a4, #2
2000e6b0:	e0813003 	add	a4, a2, a4
2000e6b4:	e0833002 	add	a4, a4, a3
2000e6b8:	e5933000 	ldr	a4, [a4]
2000e6bc:	e5932008 	ldr	a3, [a4, #8]
2000e6c0:	e51b3014 	ldr	a4, [fp, #-20]
2000e6c4:	e5933004 	ldr	a4, [a4, #4]
2000e6c8:	e1520003 	cmp	a3, a4
2000e6cc:	2a000026 	bcs	2000e76c <sem_wait+0x278>
2000e6d0:	e51b3010 	ldr	a4, [fp, #-16]
2000e6d4:	e51b1014 	ldr	a2, [fp, #-20]
2000e6d8:	e283300c 	add	a4, a4, #12
2000e6dc:	e3a02004 	mov	a3, #4
2000e6e0:	e1a03103 	lsl	a4, a4, #2
2000e6e4:	e0813003 	add	a4, a2, a4
2000e6e8:	e0833002 	add	a4, a4, a3
2000e6ec:	e5933000 	ldr	a4, [a4]
2000e6f0:	e1a00003 	mov	a1, a4
2000e6f4:	e59f3154 	ldr	a4, [pc, #340]	; 2000e850 <sem_wait+0x35c>
2000e6f8:	e51b2020 	ldr	a3, [fp, #-32]
2000e6fc:	e7923003 	ldr	a4, [a3, a4]
2000e700:	e1a01003 	mov	a2, a4
2000e704:	ebfffaf2 	bl	2000d2d4 <vk_thread_dequeue>
2000e708:	e51b3010 	ldr	a4, [fp, #-16]
2000e70c:	e51b1014 	ldr	a2, [fp, #-20]
2000e710:	e283300c 	add	a4, a4, #12
2000e714:	e3a02004 	mov	a3, #4
2000e718:	e1a03103 	lsl	a4, a4, #2
2000e71c:	e0813003 	add	a4, a2, a4
2000e720:	e0833002 	add	a4, a4, a3
2000e724:	e5932000 	ldr	a3, [a4]
2000e728:	e51b3014 	ldr	a4, [fp, #-20]
2000e72c:	e5933004 	ldr	a4, [a4, #4]
2000e730:	e5823008 	str	a4, [a3, #8]
2000e734:	e51b3010 	ldr	a4, [fp, #-16]
2000e738:	e51b1014 	ldr	a2, [fp, #-20]
2000e73c:	e283300c 	add	a4, a4, #12
2000e740:	e3a02004 	mov	a3, #4
2000e744:	e1a03103 	lsl	a4, a4, #2
2000e748:	e0813003 	add	a4, a2, a4
2000e74c:	e0833002 	add	a4, a4, a3
2000e750:	e5933000 	ldr	a4, [a4]
2000e754:	e1a00003 	mov	a1, a4
2000e758:	e59f30f0 	ldr	a4, [pc, #240]	; 2000e850 <sem_wait+0x35c>
2000e75c:	e51b1020 	ldr	a2, [fp, #-32]
2000e760:	e7913003 	ldr	a4, [a2, a4]
2000e764:	e1a01003 	mov	a2, a4
2000e768:	ebfffa6b 	bl	2000d11c <vk_thread_enqueue>
2000e76c:	e51b3010 	ldr	a4, [fp, #-16]
2000e770:	e2833001 	add	a4, a4, #1
2000e774:	e50b3010 	str	a4, [fp, #-16]
2000e778:	e51b3010 	ldr	a4, [fp, #-16]
2000e77c:	e3530002 	cmp	a4, #2
2000e780:	9affffbb 	bls	2000e674 <sem_wait+0x180>
2000e784:	ebffec14 	bl	200097dc <vk_swi_scheduler>
2000e788:	e51b3014 	ldr	a4, [fp, #-20]
2000e78c:	e593300c 	ldr	a4, [a4, #12]
2000e790:	e3530000 	cmp	a4, #0
2000e794:	daffff65 	ble	2000e530 <sem_wait+0x3c>
2000e798:	e51b3014 	ldr	a4, [fp, #-20]
2000e79c:	e593300c 	ldr	a4, [a4, #12]
2000e7a0:	e2432001 	sub	a3, a4, #1
2000e7a4:	e51b3014 	ldr	a4, [fp, #-20]
2000e7a8:	e583200c 	str	a3, [a4, #12]
2000e7ac:	e3a03000 	mov	a4, #0
2000e7b0:	e50b3010 	str	a4, [fp, #-16]
2000e7b4:	ea000018 	b	2000e81c <sem_wait+0x328>
2000e7b8:	e51b3010 	ldr	a4, [fp, #-16]
2000e7bc:	e51b1014 	ldr	a2, [fp, #-20]
2000e7c0:	e283300c 	add	a4, a4, #12
2000e7c4:	e3a02004 	mov	a3, #4
2000e7c8:	e1a03103 	lsl	a4, a4, #2
2000e7cc:	e0813003 	add	a4, a2, a4
2000e7d0:	e0833002 	add	a4, a4, a3
2000e7d4:	e5933000 	ldr	a4, [a4]
2000e7d8:	e3530000 	cmp	a4, #0
2000e7dc:	1a00000b 	bne	2000e810 <sem_wait+0x31c>
2000e7e0:	e51b2010 	ldr	a3, [fp, #-16]
2000e7e4:	e59f305c 	ldr	a4, [pc, #92]	; 2000e848 <sem_wait+0x354>
2000e7e8:	e51b1020 	ldr	a2, [fp, #-32]
2000e7ec:	e7913003 	ldr	a4, [a2, a4]
2000e7f0:	e5930000 	ldr	a1, [a4]
2000e7f4:	e51b1014 	ldr	a2, [fp, #-20]
2000e7f8:	e282300c 	add	a4, a3, #12
2000e7fc:	e3a02004 	mov	a3, #4
2000e800:	e1a03103 	lsl	a4, a4, #2
2000e804:	e0813003 	add	a4, a2, a4
2000e808:	e0833002 	add	a4, a4, a3
2000e80c:	e5830000 	str	a1, [a4]
2000e810:	e51b3010 	ldr	a4, [fp, #-16]
2000e814:	e2833001 	add	a4, a4, #1
2000e818:	e50b3010 	str	a4, [fp, #-16]
2000e81c:	e51b3010 	ldr	a4, [fp, #-16]
2000e820:	e3530002 	cmp	a4, #2
2000e824:	9affffe3 	bls	2000e7b8 <sem_wait+0x2c4>
2000e828:	ebffebc1 	bl	20009734 <vk_enable_interrupt>
2000e82c:	e3a02000 	mov	a3, #0
2000e830:	e50b201c 	str	a3, [fp, #-28]
2000e834:	e51b301c 	ldr	a4, [fp, #-28]
2000e838:	e1a00003 	mov	a1, a4
2000e83c:	e24bd00c 	sub	sp, fp, #12
2000e840:	e89da800 	ldm	sp, {fp, sp, pc}
2000e844:	00005280 	andeq	v2, a1, a1, lsl #5
2000e848:	000000a4 	andeq	a1, a1, v1, lsr #1
2000e84c:	fffffa80 			; <UNDEFINED> instruction: 0xfffffa80
2000e850:	00000074 	andeq	a1, a1, v1, ror a1

2000e854 <sem_post>:
2000e854:	e1a0c00d 	mov	ip, sp
2000e858:	e92dd800 	push	{fp, ip, lr, pc}
2000e85c:	e24cb004 	sub	fp, ip, #4
2000e860:	e24dd010 	sub	sp, sp, #16
2000e864:	e59f1264 	ldr	a2, [pc, #612]	; 2000ead0 <sem_post+0x27c>
2000e868:	e50b101c 	str	a2, [fp, #-28]
2000e86c:	e51b201c 	ldr	a3, [fp, #-28]
2000e870:	e08f2002 	add	a3, pc, a3
2000e874:	e50b201c 	str	a3, [fp, #-28]
2000e878:	e50b0018 	str	a1, [fp, #-24]
2000e87c:	ebffebc1 	bl	20009788 <vk_disable_interrupt>
2000e880:	e51b3018 	ldr	a4, [fp, #-24]
2000e884:	e5933000 	ldr	a4, [a4]
2000e888:	e50b3010 	str	a4, [fp, #-16]
2000e88c:	e51b3010 	ldr	a4, [fp, #-16]
2000e890:	e593300c 	ldr	a4, [a4, #12]
2000e894:	e2832001 	add	a3, a4, #1
2000e898:	e51b3010 	ldr	a4, [fp, #-16]
2000e89c:	e583200c 	str	a3, [a4, #12]
2000e8a0:	e51b3010 	ldr	a4, [fp, #-16]
2000e8a4:	e5933028 	ldr	a4, [a4, #40]	; 0x28
2000e8a8:	e3530000 	cmp	a4, #0
2000e8ac:	0a00000e 	beq	2000e8ec <sem_post+0x98>
2000e8b0:	e51b3010 	ldr	a4, [fp, #-16]
2000e8b4:	e5932028 	ldr	a3, [a4, #40]	; 0x28
2000e8b8:	e3a03001 	mov	a4, #1
2000e8bc:	e5823000 	str	a4, [a3]
2000e8c0:	e51b3010 	ldr	a4, [fp, #-16]
2000e8c4:	e5933028 	ldr	a4, [a4, #40]	; 0x28
2000e8c8:	e1a00003 	mov	a1, a4
2000e8cc:	e59f3200 	ldr	a4, [pc, #512]	; 2000ead4 <sem_post+0x280>
2000e8d0:	e51b101c 	ldr	a2, [fp, #-28]
2000e8d4:	e7913003 	ldr	a4, [a2, a4]
2000e8d8:	e1a01003 	mov	a2, a4
2000e8dc:	ebfffa0e 	bl	2000d11c <vk_thread_enqueue>
2000e8e0:	e51b2010 	ldr	a3, [fp, #-16]
2000e8e4:	e3a03000 	mov	a4, #0
2000e8e8:	e5823028 	str	a4, [a3, #40]	; 0x28
2000e8ec:	e51b3010 	ldr	a4, [fp, #-16]
2000e8f0:	e593302c 	ldr	a4, [a4, #44]	; 0x2c
2000e8f4:	e3530000 	cmp	a4, #0
2000e8f8:	0a00000e 	beq	2000e938 <sem_post+0xe4>
2000e8fc:	e51b3010 	ldr	a4, [fp, #-16]
2000e900:	e593202c 	ldr	a3, [a4, #44]	; 0x2c
2000e904:	e3a03001 	mov	a4, #1
2000e908:	e5823000 	str	a4, [a3]
2000e90c:	e51b3010 	ldr	a4, [fp, #-16]
2000e910:	e593302c 	ldr	a4, [a4, #44]	; 0x2c
2000e914:	e1a00003 	mov	a1, a4
2000e918:	e59f31b4 	ldr	a4, [pc, #436]	; 2000ead4 <sem_post+0x280>
2000e91c:	e51b201c 	ldr	a3, [fp, #-28]
2000e920:	e7923003 	ldr	a4, [a3, a4]
2000e924:	e1a01003 	mov	a2, a4
2000e928:	ebfff9fb 	bl	2000d11c <vk_thread_enqueue>
2000e92c:	e51b2010 	ldr	a3, [fp, #-16]
2000e930:	e3a03000 	mov	a4, #0
2000e934:	e582302c 	str	a4, [a3, #44]	; 0x2c
2000e938:	e51b3010 	ldr	a4, [fp, #-16]
2000e93c:	e5933030 	ldr	a4, [a4, #48]	; 0x30
2000e940:	e3530000 	cmp	a4, #0
2000e944:	0a00000e 	beq	2000e984 <sem_post+0x130>
2000e948:	e51b3010 	ldr	a4, [fp, #-16]
2000e94c:	e5932030 	ldr	a3, [a4, #48]	; 0x30
2000e950:	e3a03001 	mov	a4, #1
2000e954:	e5823000 	str	a4, [a3]
2000e958:	e51b3010 	ldr	a4, [fp, #-16]
2000e95c:	e5933030 	ldr	a4, [a4, #48]	; 0x30
2000e960:	e1a00003 	mov	a1, a4
2000e964:	e59f3168 	ldr	a4, [pc, #360]	; 2000ead4 <sem_post+0x280>
2000e968:	e51b101c 	ldr	a2, [fp, #-28]
2000e96c:	e7913003 	ldr	a4, [a2, a4]
2000e970:	e1a01003 	mov	a2, a4
2000e974:	ebfff9e8 	bl	2000d11c <vk_thread_enqueue>
2000e978:	e51b2010 	ldr	a3, [fp, #-16]
2000e97c:	e3a03000 	mov	a4, #0
2000e980:	e5823030 	str	a4, [a3, #48]	; 0x30
2000e984:	e51b3010 	ldr	a4, [fp, #-16]
2000e988:	e3a02000 	mov	a3, #0
2000e98c:	e5832008 	str	a3, [a4, #8]
2000e990:	e3a03000 	mov	a4, #0
2000e994:	e50b3014 	str	a4, [fp, #-20]
2000e998:	ea000019 	b	2000ea04 <sem_post+0x1b0>
2000e99c:	e51b3014 	ldr	a4, [fp, #-20]
2000e9a0:	e51b1010 	ldr	a2, [fp, #-16]
2000e9a4:	e283300c 	add	a4, a4, #12
2000e9a8:	e3a02004 	mov	a3, #4
2000e9ac:	e1a03103 	lsl	a4, a4, #2
2000e9b0:	e0813003 	add	a4, a2, a4
2000e9b4:	e0833002 	add	a4, a4, a3
2000e9b8:	e5932000 	ldr	a3, [a4]
2000e9bc:	e59f3114 	ldr	a4, [pc, #276]	; 2000ead8 <sem_post+0x284>
2000e9c0:	e51b101c 	ldr	a2, [fp, #-28]
2000e9c4:	e7913003 	ldr	a4, [a2, a4]
2000e9c8:	e5933000 	ldr	a4, [a4]
2000e9cc:	e1520003 	cmp	a3, a4
2000e9d0:	1a000008 	bne	2000e9f8 <sem_post+0x1a4>
2000e9d4:	e51b3014 	ldr	a4, [fp, #-20]
2000e9d8:	e51b1010 	ldr	a2, [fp, #-16]
2000e9dc:	e283300c 	add	a4, a4, #12
2000e9e0:	e3a02004 	mov	a3, #4
2000e9e4:	e1a03103 	lsl	a4, a4, #2
2000e9e8:	e0813003 	add	a4, a2, a4
2000e9ec:	e0832002 	add	a3, a4, a3
2000e9f0:	e3a03000 	mov	a4, #0
2000e9f4:	e5823000 	str	a4, [a3]
2000e9f8:	e51b3014 	ldr	a4, [fp, #-20]
2000e9fc:	e2833001 	add	a4, a4, #1
2000ea00:	e50b3014 	str	a4, [fp, #-20]
2000ea04:	e51b3014 	ldr	a4, [fp, #-20]
2000ea08:	e3530002 	cmp	a4, #2
2000ea0c:	9affffe2 	bls	2000e99c <sem_post+0x148>
2000ea10:	e59f30c0 	ldr	a4, [pc, #192]	; 2000ead8 <sem_post+0x284>
2000ea14:	e51b201c 	ldr	a3, [fp, #-28]
2000ea18:	e7923003 	ldr	a4, [a3, a4]
2000ea1c:	e5933000 	ldr	a4, [a4]
2000ea20:	e5932008 	ldr	a3, [a4, #8]
2000ea24:	e59f30ac 	ldr	a4, [pc, #172]	; 2000ead8 <sem_post+0x284>
2000ea28:	e51b101c 	ldr	a2, [fp, #-28]
2000ea2c:	e7913003 	ldr	a4, [a2, a4]
2000ea30:	e5933000 	ldr	a4, [a4]
2000ea34:	e593300c 	ldr	a4, [a4, #12]
2000ea38:	e1520003 	cmp	a3, a4
2000ea3c:	0a00001d 	beq	2000eab8 <sem_post+0x264>
2000ea40:	e59f3090 	ldr	a4, [pc, #144]	; 2000ead8 <sem_post+0x284>
2000ea44:	e51b201c 	ldr	a3, [fp, #-28]
2000ea48:	e7923003 	ldr	a4, [a3, a4]
2000ea4c:	e5933000 	ldr	a4, [a4]
2000ea50:	e1a00003 	mov	a1, a4
2000ea54:	e59f3078 	ldr	a4, [pc, #120]	; 2000ead4 <sem_post+0x280>
2000ea58:	e51b101c 	ldr	a2, [fp, #-28]
2000ea5c:	e7913003 	ldr	a4, [a2, a4]
2000ea60:	e1a01003 	mov	a2, a4
2000ea64:	ebfffa1a 	bl	2000d2d4 <vk_thread_dequeue>
2000ea68:	e59f3068 	ldr	a4, [pc, #104]	; 2000ead8 <sem_post+0x284>
2000ea6c:	e51b201c 	ldr	a3, [fp, #-28]
2000ea70:	e7923003 	ldr	a4, [a3, a4]
2000ea74:	e5932000 	ldr	a3, [a4]
2000ea78:	e59f3058 	ldr	a4, [pc, #88]	; 2000ead8 <sem_post+0x284>
2000ea7c:	e51b101c 	ldr	a2, [fp, #-28]
2000ea80:	e7913003 	ldr	a4, [a2, a4]
2000ea84:	e5933000 	ldr	a4, [a4]
2000ea88:	e593300c 	ldr	a4, [a4, #12]
2000ea8c:	e5823008 	str	a4, [a3, #8]
2000ea90:	e59f3040 	ldr	a4, [pc, #64]	; 2000ead8 <sem_post+0x284>
2000ea94:	e51b201c 	ldr	a3, [fp, #-28]
2000ea98:	e7923003 	ldr	a4, [a3, a4]
2000ea9c:	e5933000 	ldr	a4, [a4]
2000eaa0:	e1a00003 	mov	a1, a4
2000eaa4:	e59f3028 	ldr	a4, [pc, #40]	; 2000ead4 <sem_post+0x280>
2000eaa8:	e51b101c 	ldr	a2, [fp, #-28]
2000eaac:	e7913003 	ldr	a4, [a2, a4]
2000eab0:	e1a01003 	mov	a2, a4
2000eab4:	ebfff998 	bl	2000d11c <vk_thread_enqueue>
2000eab8:	ebffeb47 	bl	200097dc <vk_swi_scheduler>
2000eabc:	ebffeb1c 	bl	20009734 <vk_enable_interrupt>
2000eac0:	e3a03000 	mov	a4, #0
2000eac4:	e1a00003 	mov	a1, a4
2000eac8:	e24bd00c 	sub	sp, fp, #12
2000eacc:	e89da800 	ldm	sp, {fp, sp, pc}
2000ead0:	00004f20 	andeq	v1, a1, a1, lsr #30
2000ead4:	00000074 	andeq	a1, a1, v1, ror a1
2000ead8:	000000a4 	andeq	a1, a1, v1, lsr #1

2000eadc <sem_getvalue>:
2000eadc:	e1a0c00d 	mov	ip, sp
2000eae0:	e92dd800 	push	{fp, ip, lr, pc}
2000eae4:	e24cb004 	sub	fp, ip, #4
2000eae8:	e24dd018 	sub	sp, sp, #24
2000eaec:	e50b0018 	str	a1, [fp, #-24]
2000eaf0:	e50b101c 	str	a2, [fp, #-28]
2000eaf4:	e51b3018 	ldr	a4, [fp, #-24]
2000eaf8:	e5933000 	ldr	a4, [a4]
2000eafc:	e50b3010 	str	a4, [fp, #-16]
2000eb00:	e51b301c 	ldr	a4, [fp, #-28]
2000eb04:	e3530000 	cmp	a4, #0
2000eb08:	0a000002 	beq	2000eb18 <sem_getvalue+0x3c>
2000eb0c:	e51b3018 	ldr	a4, [fp, #-24]
2000eb10:	e3530000 	cmp	a4, #0
2000eb14:	1a000002 	bne	2000eb24 <sem_getvalue+0x48>
2000eb18:	e3a03001 	mov	a4, #1
2000eb1c:	e50b3020 	str	a4, [fp, #-32]
2000eb20:	ea000005 	b	2000eb3c <sem_getvalue+0x60>
2000eb24:	e51b3010 	ldr	a4, [fp, #-16]
2000eb28:	e593200c 	ldr	a3, [a4, #12]
2000eb2c:	e51b301c 	ldr	a4, [fp, #-28]
2000eb30:	e5832000 	str	a3, [a4]
2000eb34:	e3a03000 	mov	a4, #0
2000eb38:	e50b3020 	str	a4, [fp, #-32]
2000eb3c:	e51b3020 	ldr	a4, [fp, #-32]
2000eb40:	e1a00003 	mov	a1, a4
2000eb44:	e24bd00c 	sub	sp, fp, #12
2000eb48:	e89da800 	ldm	sp, {fp, sp, pc}

2000eb4c <kIsQueueFull>:
2000eb4c:	e1a0c00d 	mov	ip, sp
2000eb50:	e92dd800 	push	{fp, ip, lr, pc}
2000eb54:	e24cb004 	sub	fp, ip, #4
2000eb58:	e24dd008 	sub	sp, sp, #8
2000eb5c:	e50b0010 	str	a1, [fp, #-16]
2000eb60:	e51b3010 	ldr	a4, [fp, #-16]
2000eb64:	e593200c 	ldr	a3, [a4, #12]
2000eb68:	e51b3010 	ldr	a4, [fp, #-16]
2000eb6c:	e5933008 	ldr	a4, [a4, #8]
2000eb70:	e1520003 	cmp	a3, a4
2000eb74:	1a000006 	bne	2000eb94 <kIsQueueFull+0x48>
2000eb78:	e51b3010 	ldr	a4, [fp, #-16]
2000eb7c:	e5933010 	ldr	a4, [a4, #16]
2000eb80:	e3530001 	cmp	a4, #1
2000eb84:	1a000002 	bne	2000eb94 <kIsQueueFull+0x48>
2000eb88:	e3a03001 	mov	a4, #1
2000eb8c:	e50b3014 	str	a4, [fp, #-20]
2000eb90:	ea000001 	b	2000eb9c <kIsQueueFull+0x50>
2000eb94:	e3a03000 	mov	a4, #0
2000eb98:	e50b3014 	str	a4, [fp, #-20]
2000eb9c:	e51b3014 	ldr	a4, [fp, #-20]
2000eba0:	e1a00003 	mov	a1, a4
2000eba4:	e24bd00c 	sub	sp, fp, #12
2000eba8:	e89da800 	ldm	sp, {fp, sp, pc}

2000ebac <kIsQueueEmpty>:
2000ebac:	e1a0c00d 	mov	ip, sp
2000ebb0:	e92dd800 	push	{fp, ip, lr, pc}
2000ebb4:	e24cb004 	sub	fp, ip, #4
2000ebb8:	e24dd008 	sub	sp, sp, #8
2000ebbc:	e50b0010 	str	a1, [fp, #-16]
2000ebc0:	e51b3010 	ldr	a4, [fp, #-16]
2000ebc4:	e593200c 	ldr	a3, [a4, #12]
2000ebc8:	e51b3010 	ldr	a4, [fp, #-16]
2000ebcc:	e5933008 	ldr	a4, [a4, #8]
2000ebd0:	e1520003 	cmp	a3, a4
2000ebd4:	1a000006 	bne	2000ebf4 <kIsQueueEmpty+0x48>
2000ebd8:	e51b3010 	ldr	a4, [fp, #-16]
2000ebdc:	e5933010 	ldr	a4, [a4, #16]
2000ebe0:	e3530000 	cmp	a4, #0
2000ebe4:	1a000002 	bne	2000ebf4 <kIsQueueEmpty+0x48>
2000ebe8:	e3a03001 	mov	a4, #1
2000ebec:	e50b3014 	str	a4, [fp, #-20]
2000ebf0:	ea000001 	b	2000ebfc <kIsQueueEmpty+0x50>
2000ebf4:	e3a03000 	mov	a4, #0
2000ebf8:	e50b3014 	str	a4, [fp, #-20]
2000ebfc:	e51b3014 	ldr	a4, [fp, #-20]
2000ec00:	e1a00003 	mov	a1, a4
2000ec04:	e24bd00c 	sub	sp, fp, #12
2000ec08:	e89da800 	ldm	sp, {fp, sp, pc}

2000ec0c <kPutQueue>:
2000ec0c:	e1a0c00d 	mov	ip, sp
2000ec10:	e92dd800 	push	{fp, ip, lr, pc}
2000ec14:	e24cb004 	sub	fp, ip, #4
2000ec18:	e24dd010 	sub	sp, sp, #16
2000ec1c:	e50b0010 	str	a1, [fp, #-16]
2000ec20:	e1a03001 	mov	a4, a2
2000ec24:	e54b3011 	strb	a4, [fp, #-17]
2000ec28:	e51b0010 	ldr	a1, [fp, #-16]
2000ec2c:	ebffffc6 	bl	2000eb4c <kIsQueueFull>
2000ec30:	e1a03000 	mov	a4, a1
2000ec34:	e3530001 	cmp	a4, #1
2000ec38:	1a000002 	bne	2000ec48 <kPutQueue+0x3c>
2000ec3c:	e3a03000 	mov	a4, #0
2000ec40:	e50b3018 	str	a4, [fp, #-24]
2000ec44:	ea000017 	b	2000eca8 <kPutQueue+0x9c>
2000ec48:	e51b3010 	ldr	a4, [fp, #-16]
2000ec4c:	e5932000 	ldr	a3, [a4]
2000ec50:	e51b3010 	ldr	a4, [fp, #-16]
2000ec54:	e5933008 	ldr	a4, [a4, #8]
2000ec58:	e0822003 	add	a3, a3, a4
2000ec5c:	e55b3011 	ldrb	a4, [fp, #-17]
2000ec60:	e5c23000 	strb	a4, [a3]
2000ec64:	e51b3010 	ldr	a4, [fp, #-16]
2000ec68:	e5933008 	ldr	a4, [a4, #8]
2000ec6c:	e2832001 	add	a3, a4, #1
2000ec70:	e51b3010 	ldr	a4, [fp, #-16]
2000ec74:	e5933004 	ldr	a4, [a4, #4]
2000ec78:	e1a00002 	mov	a1, a3
2000ec7c:	e1a01003 	mov	a2, a4
2000ec80:	eb000e98 	bl	200126e8 <__aeabi_uidivmod>
2000ec84:	e1a03001 	mov	a4, a2
2000ec88:	e1a02003 	mov	a3, a4
2000ec8c:	e51b3010 	ldr	a4, [fp, #-16]
2000ec90:	e5832008 	str	a3, [a4, #8]
2000ec94:	e51b2010 	ldr	a3, [fp, #-16]
2000ec98:	e3a03001 	mov	a4, #1
2000ec9c:	e5823010 	str	a4, [a3, #16]
2000eca0:	e3a03001 	mov	a4, #1
2000eca4:	e50b3018 	str	a4, [fp, #-24]
2000eca8:	e51b3018 	ldr	a4, [fp, #-24]
2000ecac:	e1a00003 	mov	a1, a4
2000ecb0:	e24bd00c 	sub	sp, fp, #12
2000ecb4:	e89da800 	ldm	sp, {fp, sp, pc}

2000ecb8 <kGetQueue>:
2000ecb8:	e1a0c00d 	mov	ip, sp
2000ecbc:	e92dd800 	push	{fp, ip, lr, pc}
2000ecc0:	e24cb004 	sub	fp, ip, #4
2000ecc4:	e24dd010 	sub	sp, sp, #16
2000ecc8:	e50b0010 	str	a1, [fp, #-16]
2000eccc:	e50b1014 	str	a2, [fp, #-20]
2000ecd0:	e51b0010 	ldr	a1, [fp, #-16]
2000ecd4:	ebffffb4 	bl	2000ebac <kIsQueueEmpty>
2000ecd8:	e1a03000 	mov	a4, a1
2000ecdc:	e3530001 	cmp	a4, #1
2000ece0:	1a000002 	bne	2000ecf0 <kGetQueue+0x38>
2000ece4:	e3a03000 	mov	a4, #0
2000ece8:	e50b3018 	str	a4, [fp, #-24]
2000ecec:	ea000018 	b	2000ed54 <kGetQueue+0x9c>
2000ecf0:	e51b3010 	ldr	a4, [fp, #-16]
2000ecf4:	e5932000 	ldr	a3, [a4]
2000ecf8:	e51b3010 	ldr	a4, [fp, #-16]
2000ecfc:	e593300c 	ldr	a4, [a4, #12]
2000ed00:	e0823003 	add	a4, a3, a4
2000ed04:	e5d33000 	ldrb	a4, [a4]
2000ed08:	e51b2014 	ldr	a3, [fp, #-20]
2000ed0c:	e5c23000 	strb	a4, [a3]
2000ed10:	e51b3010 	ldr	a4, [fp, #-16]
2000ed14:	e593300c 	ldr	a4, [a4, #12]
2000ed18:	e2832001 	add	a3, a4, #1
2000ed1c:	e51b3010 	ldr	a4, [fp, #-16]
2000ed20:	e5933004 	ldr	a4, [a4, #4]
2000ed24:	e1a00002 	mov	a1, a3
2000ed28:	e1a01003 	mov	a2, a4
2000ed2c:	eb000e6d 	bl	200126e8 <__aeabi_uidivmod>
2000ed30:	e1a03001 	mov	a4, a2
2000ed34:	e1a02003 	mov	a3, a4
2000ed38:	e51b3010 	ldr	a4, [fp, #-16]
2000ed3c:	e583200c 	str	a3, [a4, #12]
2000ed40:	e51b2010 	ldr	a3, [fp, #-16]
2000ed44:	e3a03000 	mov	a4, #0
2000ed48:	e5823010 	str	a4, [a3, #16]
2000ed4c:	e3a03001 	mov	a4, #1
2000ed50:	e50b3018 	str	a4, [fp, #-24]
2000ed54:	e51b3018 	ldr	a4, [fp, #-24]
2000ed58:	e1a00003 	mov	a1, a4
2000ed5c:	e24bd00c 	sub	sp, fp, #12
2000ed60:	e89da800 	ldm	sp, {fp, sp, pc}

2000ed64 <getc>:
2000ed64:	e1a0c00d 	mov	ip, sp
2000ed68:	e92dd800 	push	{fp, ip, lr, pc}
2000ed6c:	e24cb004 	sub	fp, ip, #4
2000ed70:	e24dd010 	sub	sp, sp, #16
2000ed74:	e59f1044 	ldr	a2, [pc, #68]	; 2000edc0 <getc+0x5c>
2000ed78:	e50b1018 	str	a2, [fp, #-24]
2000ed7c:	e51b3018 	ldr	a4, [fp, #-24]
2000ed80:	e08f3003 	add	a4, pc, a4
2000ed84:	e50b3018 	str	a4, [fp, #-24]
2000ed88:	e24b200d 	sub	a3, fp, #13
2000ed8c:	e59f3030 	ldr	a4, [pc, #48]	; 2000edc4 <getc+0x60>
2000ed90:	e51b1018 	ldr	a2, [fp, #-24]
2000ed94:	e0813003 	add	a4, a2, a4
2000ed98:	e1a00003 	mov	a1, a4
2000ed9c:	e1a01002 	mov	a2, a3
2000eda0:	ebffffc4 	bl	2000ecb8 <kGetQueue>
2000eda4:	e1a03000 	mov	a4, a1
2000eda8:	e3530000 	cmp	a4, #0
2000edac:	0afffff5 	beq	2000ed88 <getc+0x24>
2000edb0:	e55b300d 	ldrb	a4, [fp, #-13]
2000edb4:	e1a00003 	mov	a1, a4
2000edb8:	e24bd00c 	sub	sp, fp, #12
2000edbc:	e89da800 	ldm	sp, {fp, sp, pc}
2000edc0:	00004a10 	andeq	v1, a1, a1, lsl sl
2000edc4:	000f4b2c 	andeq	v1, pc, ip, lsr #22

2000edc8 <putc>:
2000edc8:	e1a0c00d 	mov	ip, sp
2000edcc:	e92dd800 	push	{fp, ip, lr, pc}
2000edd0:	e24cb004 	sub	fp, ip, #4
2000edd4:	e24dd008 	sub	sp, sp, #8
2000edd8:	e1a03000 	mov	a4, a1
2000eddc:	e54b300d 	strb	a4, [fp, #-13]
2000ede0:	e59f3024 	ldr	a4, [pc, #36]	; 2000ee0c <putc+0x44>
2000ede4:	e5933000 	ldr	a4, [a4]
2000ede8:	e2033004 	and	a4, a4, #4
2000edec:	e3530000 	cmp	a4, #0
2000edf0:	0afffffa 	beq	2000ede0 <putc+0x18>
2000edf4:	e59f2014 	ldr	a3, [pc, #20]	; 2000ee10 <putc+0x48>
2000edf8:	e55b300d 	ldrb	a4, [fp, #-13]
2000edfc:	e5c23000 	strb	a4, [a3]
2000ee00:	e5d22000 	ldrb	a3, [a3]
2000ee04:	e24bd00c 	sub	sp, fp, #12
2000ee08:	e89da800 	ldm	sp, {fp, sp, pc}
2000ee0c:	ec000410 	cfstrs	mvf0, [a1], {16}
2000ee10:	ec000420 	cfstrs	mvf0, [a1], {32}

2000ee14 <tstc>:
2000ee14:	e1a0c00d 	mov	ip, sp
2000ee18:	e92dd800 	push	{fp, ip, lr, pc}
2000ee1c:	e24cb004 	sub	fp, ip, #4
2000ee20:	e59f300c 	ldr	a4, [pc, #12]	; 2000ee34 <tstc+0x20>
2000ee24:	e5933000 	ldr	a4, [a4]
2000ee28:	e2033001 	and	a4, a4, #1
2000ee2c:	e1a00003 	mov	a1, a4
2000ee30:	e89da800 	ldm	sp, {fp, sp, pc}
2000ee34:	ec000410 	cfstrs	mvf0, [a1], {16}

2000ee38 <vh_serial_init>:
2000ee38:	e1a0c00d 	mov	ip, sp
2000ee3c:	e92dd800 	push	{fp, ip, lr, pc}
2000ee40:	e24cb004 	sub	fp, ip, #4
2000ee44:	e24dd010 	sub	sp, sp, #16
2000ee48:	e59f011c 	ldr	a1, [pc, #284]	; 2000ef6c <vh_serial_init+0x134>
2000ee4c:	e50b0018 	str	a1, [fp, #-24]
2000ee50:	e51b1018 	ldr	a2, [fp, #-24]
2000ee54:	e08f1001 	add	a2, pc, a2
2000ee58:	e50b1018 	str	a2, [fp, #-24]
2000ee5c:	e59f210c 	ldr	a3, [pc, #268]	; 2000ef70 <vh_serial_init+0x138>
2000ee60:	e3a03822 	mov	a4, #2228224	; 0x220000
2000ee64:	e5823000 	str	a4, [a3]
2000ee68:	e59f2104 	ldr	a3, [pc, #260]	; 2000ef74 <vh_serial_init+0x13c>
2000ee6c:	e3a03c0a 	mov	a4, #2560	; 0xa00
2000ee70:	e5823000 	str	a4, [a3]
2000ee74:	e59f20fc 	ldr	a3, [pc, #252]	; 2000ef78 <vh_serial_init+0x140>
2000ee78:	e3a03003 	mov	a4, #3
2000ee7c:	e5823000 	str	a4, [a3]
2000ee80:	e59f20f4 	ldr	a3, [pc, #244]	; 2000ef7c <vh_serial_init+0x144>
2000ee84:	e59f30f4 	ldr	a4, [pc, #244]	; 2000ef80 <vh_serial_init+0x148>
2000ee88:	e5823000 	str	a4, [a3]
2000ee8c:	e59f20f0 	ldr	a3, [pc, #240]	; 2000ef84 <vh_serial_init+0x14c>
2000ee90:	e3a030c7 	mov	a4, #199	; 0xc7
2000ee94:	e5823000 	str	a4, [a3]
2000ee98:	e59f20e8 	ldr	a3, [pc, #232]	; 2000ef88 <vh_serial_init+0x150>
2000ee9c:	e3a0300e 	mov	a4, #14
2000eea0:	e5823000 	str	a4, [a3]
2000eea4:	e59f20e0 	ldr	a3, [pc, #224]	; 2000ef8c <vh_serial_init+0x154>
2000eea8:	e3a0300f 	mov	a4, #15
2000eeac:	e5823000 	str	a4, [a3]
2000eeb0:	e59f20d8 	ldr	a3, [pc, #216]	; 2000ef90 <vh_serial_init+0x158>
2000eeb4:	e3a03022 	mov	a4, #34	; 0x22
2000eeb8:	e5823000 	str	a4, [a3]
2000eebc:	e59f30d0 	ldr	a4, [pc, #208]	; 2000ef94 <vh_serial_init+0x15c>
2000eec0:	e51b0018 	ldr	a1, [fp, #-24]
2000eec4:	e0802003 	add	a3, a1, a4
2000eec8:	e59f30c8 	ldr	a4, [pc, #200]	; 2000ef98 <vh_serial_init+0x160>
2000eecc:	e51b1018 	ldr	a2, [fp, #-24]
2000eed0:	e7913003 	ldr	a4, [a2, a4]
2000eed4:	e5823000 	str	a4, [a3]
2000eed8:	e59f30b4 	ldr	a4, [pc, #180]	; 2000ef94 <vh_serial_init+0x15c>
2000eedc:	e51b0018 	ldr	a1, [fp, #-24]
2000eee0:	e0802003 	add	a3, a1, a4
2000eee4:	e3a03064 	mov	a4, #100	; 0x64
2000eee8:	e5823004 	str	a4, [a3, #4]
2000eeec:	e59f30a0 	ldr	a4, [pc, #160]	; 2000ef94 <vh_serial_init+0x15c>
2000eef0:	e51b1018 	ldr	a2, [fp, #-24]
2000eef4:	e0812003 	add	a3, a2, a4
2000eef8:	e3a03000 	mov	a4, #0
2000eefc:	e5823008 	str	a4, [a3, #8]
2000ef00:	e59f308c 	ldr	a4, [pc, #140]	; 2000ef94 <vh_serial_init+0x15c>
2000ef04:	e51b0018 	ldr	a1, [fp, #-24]
2000ef08:	e0802003 	add	a3, a1, a4
2000ef0c:	e3a03000 	mov	a4, #0
2000ef10:	e582300c 	str	a4, [a3, #12]
2000ef14:	e59f3078 	ldr	a4, [pc, #120]	; 2000ef94 <vh_serial_init+0x15c>
2000ef18:	e51b1018 	ldr	a2, [fp, #-24]
2000ef1c:	e0812003 	add	a3, a2, a4
2000ef20:	e3a03000 	mov	a4, #0
2000ef24:	e5823010 	str	a4, [a3, #16]
2000ef28:	e3a03000 	mov	a4, #0
2000ef2c:	e50b3010 	str	a4, [fp, #-16]
2000ef30:	ea000008 	b	2000ef58 <vh_serial_init+0x120>
2000ef34:	e51b1010 	ldr	a2, [fp, #-16]
2000ef38:	e59f3058 	ldr	a4, [pc, #88]	; 2000ef98 <vh_serial_init+0x160>
2000ef3c:	e51b0018 	ldr	a1, [fp, #-24]
2000ef40:	e7902003 	ldr	a3, [a1, a4]
2000ef44:	e3a03000 	mov	a4, #0
2000ef48:	e7c23001 	strb	a4, [a3, a2]
2000ef4c:	e51b3010 	ldr	a4, [fp, #-16]
2000ef50:	e2833001 	add	a4, a4, #1
2000ef54:	e50b3010 	str	a4, [fp, #-16]
2000ef58:	e51b3010 	ldr	a4, [fp, #-16]
2000ef5c:	e3530063 	cmp	a4, #99	; 0x63
2000ef60:	dafffff3 	ble	2000ef34 <vh_serial_init+0xfc>
2000ef64:	e24bd00c 	sub	sp, fp, #12
2000ef68:	e89da800 	ldm	sp, {fp, sp, pc}
2000ef6c:	0000493c 	andeq	v1, a1, ip, lsr v6
2000ef70:	e0300000 	eors	a1, a1, a1
2000ef74:	e0300008 	eors	a1, a1, v5
2000ef78:	ec000400 	cfstrs	mvf0, [a1], {-0}
2000ef7c:	ec000404 	cfstrs	mvf0, [a1], {4}
2000ef80:	00000245 	andeq	a1, a1, v2, asr #4
2000ef84:	ec000408 	cfstrs	mvf0, [a1], {8}
2000ef88:	ec000438 	cfstrs	mvf0, [a1], {56}	; 0x38
2000ef8c:	ec000430 	cfstrs	mvf0, [a1], {48}	; 0x30
2000ef90:	ec000428 	cfstrs	mvf0, [a1], {40}	; 0x28
2000ef94:	000f4b2c 	andeq	v1, pc, ip, lsr #22
2000ef98:	00000070 	andeq	a1, a1, a1, ror a1

2000ef9c <vh_serial_irq_enable>:
2000ef9c:	e1a0c00d 	mov	ip, sp
2000efa0:	e92dd800 	push	{fp, ip, lr, pc}
2000efa4:	e24cb004 	sub	fp, ip, #4
2000efa8:	e59f3048 	ldr	a4, [pc, #72]	; 2000eff8 <vh_serial_irq_enable+0x5c>
2000efac:	e08f3003 	add	a4, pc, a4
2000efb0:	e59f1044 	ldr	a2, [pc, #68]	; 2000effc <vh_serial_irq_enable+0x60>
2000efb4:	e59f2044 	ldr	a3, [pc, #68]	; 2000f000 <vh_serial_irq_enable+0x64>
2000efb8:	e7933002 	ldr	a4, [a4, a3]
2000efbc:	e5813000 	str	a4, [a2]
2000efc0:	e59f203c 	ldr	a3, [pc, #60]	; 2000f004 <vh_serial_irq_enable+0x68>
2000efc4:	e59f3038 	ldr	a4, [pc, #56]	; 2000f004 <vh_serial_irq_enable+0x68>
2000efc8:	e5933000 	ldr	a4, [a4]
2000efcc:	e3833b02 	orr	a4, a4, #2048	; 0x800
2000efd0:	e5823000 	str	a4, [a3]
2000efd4:	e59f202c 	ldr	a3, [pc, #44]	; 2000f008 <vh_serial_irq_enable+0x6c>
2000efd8:	e59f3028 	ldr	a4, [pc, #40]	; 2000f008 <vh_serial_irq_enable+0x6c>
2000efdc:	e5933000 	ldr	a4, [a4]
2000efe0:	e3c33b02 	bic	a4, a4, #2048	; 0x800
2000efe4:	e5823000 	str	a4, [a3]
2000efe8:	e59f201c 	ldr	a3, [pc, #28]	; 2000f00c <vh_serial_irq_enable+0x70>
2000efec:	e59f301c 	ldr	a4, [pc, #28]	; 2000f010 <vh_serial_irq_enable+0x74>
2000eff0:	e5823000 	str	a4, [a3]
2000eff4:	e89da800 	ldm	sp, {fp, sp, pc}
2000eff8:	000047e4 	andeq	v1, a1, v1, ror #15
2000effc:	e410012c 	ldr	a1, [a1], #-300	; 0x12c
2000f000:	000000a8 	andeq	a1, a1, v5, lsr #1
2000f004:	e4100010 	ldr	a1, [a1], #-16
2000f008:	e410000c 	ldr	a1, [a1], #-12
2000f00c:	e4100024 	ldr	a1, [a1], #-36	; 0x24
2000f010:	0000ffff 	strdeq	pc, [a1], -pc	; <UNPREDICTABLE>

2000f014 <vk_serial_push>:
2000f014:	e1a0c00d 	mov	ip, sp
2000f018:	e92dd800 	push	{fp, ip, lr, pc}
2000f01c:	e24cb004 	sub	fp, ip, #4
2000f020:	e24dd008 	sub	sp, sp, #8
2000f024:	e59f2030 	ldr	a3, [pc, #48]	; 2000f05c <vk_serial_push+0x48>
2000f028:	e08f2002 	add	a3, pc, a3
2000f02c:	e3a03000 	mov	a4, #0
2000f030:	e50b3010 	str	a4, [fp, #-16]
2000f034:	e59f3024 	ldr	a4, [pc, #36]	; 2000f060 <vk_serial_push+0x4c>
2000f038:	e5933000 	ldr	a4, [a4]
2000f03c:	e54b3011 	strb	a4, [fp, #-17]
2000f040:	e55b1011 	ldrb	a2, [fp, #-17]
2000f044:	e59f3018 	ldr	a4, [pc, #24]	; 2000f064 <vk_serial_push+0x50>
2000f048:	e0823003 	add	a4, a3, a4
2000f04c:	e1a00003 	mov	a1, a4
2000f050:	ebfffeed 	bl	2000ec0c <kPutQueue>
2000f054:	e24bd00c 	sub	sp, fp, #12
2000f058:	e89da800 	ldm	sp, {fp, sp, pc}
2000f05c:	00004768 	andeq	v1, a1, v5, ror #14
2000f060:	ec000424 	cfstrs	mvf0, [a1], {36}	; 0x24
2000f064:	000f4b2c 	andeq	v1, pc, ip, lsr #22

2000f068 <vh_serial_interrupt_handler>:
2000f068:	e1a0c00d 	mov	ip, sp
2000f06c:	e92dd800 	push	{fp, ip, lr, pc}
2000f070:	e24cb004 	sub	fp, ip, #4
2000f074:	ebffffe6 	bl	2000f014 <vk_serial_push>
2000f078:	e59f2030 	ldr	a3, [pc, #48]	; 2000f0b0 <vh_serial_interrupt_handler+0x48>
2000f07c:	e59f302c 	ldr	a4, [pc, #44]	; 2000f0b0 <vh_serial_interrupt_handler+0x48>
2000f080:	e5933000 	ldr	a4, [a4]
2000f084:	e3833b02 	orr	a4, a4, #2048	; 0x800
2000f088:	e5823000 	str	a4, [a3]
2000f08c:	e59f2020 	ldr	a3, [pc, #32]	; 2000f0b4 <vh_serial_interrupt_handler+0x4c>
2000f090:	e59f301c 	ldr	a4, [pc, #28]	; 2000f0b4 <vh_serial_interrupt_handler+0x4c>
2000f094:	e5933000 	ldr	a4, [a4]
2000f098:	e3833b02 	orr	a4, a4, #2048	; 0x800
2000f09c:	e5823000 	str	a4, [a3]
2000f0a0:	e59f2010 	ldr	a3, [pc, #16]	; 2000f0b8 <vh_serial_interrupt_handler+0x50>
2000f0a4:	e3a0300f 	mov	a4, #15
2000f0a8:	e5823000 	str	a4, [a3]
2000f0ac:	e89da800 	ldm	sp, {fp, sp, pc}
2000f0b0:	e4100014 	ldr	a1, [a1], #-20
2000f0b4:	e4100010 	ldr	a1, [a1], #-16
2000f0b8:	ec000430 	cfstrs	mvf0, [a1], {48}	; 0x30

2000f0bc <vh_seven_init>:
2000f0bc:	e1a0c00d 	mov	ip, sp
2000f0c0:	e92dd810 	push	{v1, fp, ip, lr, pc}
2000f0c4:	e24cb004 	sub	fp, ip, #4
2000f0c8:	e24dd00c 	sub	sp, sp, #12
2000f0cc:	e59f40c4 	ldr	v1, [pc, #196]	; 2000f198 <vh_seven_init+0xdc>
2000f0d0:	e08f4004 	add	v1, pc, v1
2000f0d4:	e59f20c0 	ldr	a3, [pc, #192]	; 2000f19c <vh_seven_init+0xe0>
2000f0d8:	e59f30bc 	ldr	a4, [pc, #188]	; 2000f19c <vh_seven_init+0xe0>
2000f0dc:	e5933000 	ldr	a4, [a4]
2000f0e0:	e3c3360f 	bic	a4, a4, #15728640	; 0xf00000
2000f0e4:	e5823000 	str	a4, [a3]
2000f0e8:	e59f20ac 	ldr	a3, [pc, #172]	; 2000f19c <vh_seven_init+0xe0>
2000f0ec:	e59f30a8 	ldr	a4, [pc, #168]	; 2000f19c <vh_seven_init+0xe0>
2000f0f0:	e5933000 	ldr	a4, [a4]
2000f0f4:	e3833602 	orr	a4, a4, #2097152	; 0x200000
2000f0f8:	e5823000 	str	a4, [a3]
2000f0fc:	e59f309c 	ldr	a4, [pc, #156]	; 2000f1a0 <vh_seven_init+0xe4>
2000f100:	e5933000 	ldr	a4, [a4]
2000f104:	e59f2094 	ldr	a3, [pc, #148]	; 2000f1a0 <vh_seven_init+0xe4>
2000f108:	e3a03000 	mov	a4, #0
2000f10c:	e5823000 	str	a4, [a3]
2000f110:	e59f2088 	ldr	a3, [pc, #136]	; 2000f1a0 <vh_seven_init+0xe4>
2000f114:	e59f3084 	ldr	a4, [pc, #132]	; 2000f1a0 <vh_seven_init+0xe4>
2000f118:	e5933000 	ldr	a4, [a4]
2000f11c:	e3833902 	orr	a4, a4, #32768	; 0x8000
2000f120:	e3833007 	orr	a4, a4, #7
2000f124:	e5823000 	str	a4, [a3]
2000f128:	e59f2074 	ldr	a3, [pc, #116]	; 2000f1a4 <vh_seven_init+0xe8>
2000f12c:	e59f3070 	ldr	a4, [pc, #112]	; 2000f1a4 <vh_seven_init+0xe8>
2000f130:	e5933000 	ldr	a4, [a4]
2000f134:	e3833050 	orr	a4, a4, #80	; 0x50
2000f138:	e5823000 	str	a4, [a3]
2000f13c:	e3a034e7 	mov	a4, #-419430400	; 0xe7000000
2000f140:	e5932000 	ldr	a3, [a4]
2000f144:	e59f305c 	ldr	a4, [pc, #92]	; 2000f1a8 <vh_seven_init+0xec>
2000f148:	e0843003 	add	a4, v1, a4
2000f14c:	e1a00003 	mov	a1, a4
2000f150:	e1a01002 	mov	a2, a3
2000f154:	ebfff66e 	bl	2000cb14 <printk>
2000f158:	e59f3040 	ldr	a4, [pc, #64]	; 2000f1a0 <vh_seven_init+0xe4>
2000f15c:	e5932000 	ldr	a3, [a4]
2000f160:	e59f3044 	ldr	a4, [pc, #68]	; 2000f1ac <vh_seven_init+0xf0>
2000f164:	e0843003 	add	a4, v1, a4
2000f168:	e1a00003 	mov	a1, a4
2000f16c:	e1a01002 	mov	a2, a3
2000f170:	ebfff667 	bl	2000cb14 <printk>
2000f174:	e59f3028 	ldr	a4, [pc, #40]	; 2000f1a4 <vh_seven_init+0xe8>
2000f178:	e5932000 	ldr	a3, [a4]
2000f17c:	e59f302c 	ldr	a4, [pc, #44]	; 2000f1b0 <vh_seven_init+0xf4>
2000f180:	e0843003 	add	a4, v1, a4
2000f184:	e1a00003 	mov	a1, a4
2000f188:	e1a01002 	mov	a2, a3
2000f18c:	ebfff660 	bl	2000cb14 <printk>
2000f190:	e24bd010 	sub	sp, fp, #16
2000f194:	e89da810 	ldm	sp, {v1, fp, sp, pc}
2000f198:	000046c0 	andeq	v1, a1, a1, asr #13
2000f19c:	e03002a0 	eors	a1, a1, a1, lsr #5
2000f1a0:	a800c080 	stmdage	a1, {v4, lr, pc}
2000f1a4:	a800c084 	stmdage	a1, {a3, v4, lr, pc}
2000f1a8:	fffffabc 			; <UNDEFINED> instruction: 0xfffffabc
2000f1ac:	fffffacc 			; <UNDEFINED> instruction: 0xfffffacc
2000f1b0:	fffffae0 			; <UNDEFINED> instruction: 0xfffffae0

2000f1b4 <strcasecmp>:
2000f1b4:	e1a0c00d 	mov	ip, sp
2000f1b8:	e92dd800 	push	{fp, ip, lr, pc}
2000f1bc:	e24cb004 	sub	fp, ip, #4
2000f1c0:	e24dd018 	sub	sp, sp, #24
2000f1c4:	e50b0018 	str	a1, [fp, #-24]
2000f1c8:	e50b101c 	str	a2, [fp, #-28]
2000f1cc:	ea000033 	b	2000f2a0 <strcasecmp+0xec>
2000f1d0:	e51b3018 	ldr	a4, [fp, #-24]
2000f1d4:	e5d33000 	ldrb	a4, [a4]
2000f1d8:	e3530060 	cmp	a4, #96	; 0x60
2000f1dc:	9a000008 	bls	2000f204 <strcasecmp+0x50>
2000f1e0:	e51b3018 	ldr	a4, [fp, #-24]
2000f1e4:	e5d33000 	ldrb	a4, [a4]
2000f1e8:	e353007a 	cmp	a4, #122	; 0x7a
2000f1ec:	8a000004 	bhi	2000f204 <strcasecmp+0x50>
2000f1f0:	e51b3018 	ldr	a4, [fp, #-24]
2000f1f4:	e5d33000 	ldrb	a4, [a4]
2000f1f8:	e2433020 	sub	a4, a4, #32
2000f1fc:	e50b3014 	str	a4, [fp, #-20]
2000f200:	ea000002 	b	2000f210 <strcasecmp+0x5c>
2000f204:	e51b3018 	ldr	a4, [fp, #-24]
2000f208:	e5d33000 	ldrb	a4, [a4]
2000f20c:	e50b3014 	str	a4, [fp, #-20]
2000f210:	e51b301c 	ldr	a4, [fp, #-28]
2000f214:	e5d33000 	ldrb	a4, [a4]
2000f218:	e3530060 	cmp	a4, #96	; 0x60
2000f21c:	9a000008 	bls	2000f244 <strcasecmp+0x90>
2000f220:	e51b301c 	ldr	a4, [fp, #-28]
2000f224:	e5d33000 	ldrb	a4, [a4]
2000f228:	e353007a 	cmp	a4, #122	; 0x7a
2000f22c:	8a000004 	bhi	2000f244 <strcasecmp+0x90>
2000f230:	e51b301c 	ldr	a4, [fp, #-28]
2000f234:	e5d33000 	ldrb	a4, [a4]
2000f238:	e2433020 	sub	a4, a4, #32
2000f23c:	e50b3010 	str	a4, [fp, #-16]
2000f240:	ea000002 	b	2000f250 <strcasecmp+0x9c>
2000f244:	e51b301c 	ldr	a4, [fp, #-28]
2000f248:	e5d33000 	ldrb	a4, [a4]
2000f24c:	e50b3010 	str	a4, [fp, #-16]
2000f250:	e51b2014 	ldr	a3, [fp, #-20]
2000f254:	e51b3010 	ldr	a4, [fp, #-16]
2000f258:	e1520003 	cmp	a3, a4
2000f25c:	da000002 	ble	2000f26c <strcasecmp+0xb8>
2000f260:	e3a03001 	mov	a4, #1
2000f264:	e50b3020 	str	a4, [fp, #-32]
2000f268:	ea000024 	b	2000f300 <strcasecmp+0x14c>
2000f26c:	e51b2014 	ldr	a3, [fp, #-20]
2000f270:	e51b3010 	ldr	a4, [fp, #-16]
2000f274:	e1520003 	cmp	a3, a4
2000f278:	aa000002 	bge	2000f288 <strcasecmp+0xd4>
2000f27c:	e3e03000 	mvn	a4, #0
2000f280:	e50b3020 	str	a4, [fp, #-32]
2000f284:	ea00001d 	b	2000f300 <strcasecmp+0x14c>
2000f288:	e51b3018 	ldr	a4, [fp, #-24]
2000f28c:	e2833001 	add	a4, a4, #1
2000f290:	e50b3018 	str	a4, [fp, #-24]
2000f294:	e51b301c 	ldr	a4, [fp, #-28]
2000f298:	e2833001 	add	a4, a4, #1
2000f29c:	e50b301c 	str	a4, [fp, #-28]
2000f2a0:	e51b3018 	ldr	a4, [fp, #-24]
2000f2a4:	e5d33000 	ldrb	a4, [a4]
2000f2a8:	e3530000 	cmp	a4, #0
2000f2ac:	0a000003 	beq	2000f2c0 <strcasecmp+0x10c>
2000f2b0:	e51b301c 	ldr	a4, [fp, #-28]
2000f2b4:	e5d33000 	ldrb	a4, [a4]
2000f2b8:	e3530000 	cmp	a4, #0
2000f2bc:	1affffc3 	bne	2000f1d0 <strcasecmp+0x1c>
2000f2c0:	e51b3018 	ldr	a4, [fp, #-24]
2000f2c4:	e5d33000 	ldrb	a4, [a4]
2000f2c8:	e3530000 	cmp	a4, #0
2000f2cc:	0a000002 	beq	2000f2dc <strcasecmp+0x128>
2000f2d0:	e3a03001 	mov	a4, #1
2000f2d4:	e50b3020 	str	a4, [fp, #-32]
2000f2d8:	ea000008 	b	2000f300 <strcasecmp+0x14c>
2000f2dc:	e51b301c 	ldr	a4, [fp, #-28]
2000f2e0:	e5d33000 	ldrb	a4, [a4]
2000f2e4:	e3530000 	cmp	a4, #0
2000f2e8:	0a000002 	beq	2000f2f8 <strcasecmp+0x144>
2000f2ec:	e3e03000 	mvn	a4, #0
2000f2f0:	e50b3020 	str	a4, [fp, #-32]
2000f2f4:	ea000001 	b	2000f300 <strcasecmp+0x14c>
2000f2f8:	e3a03000 	mov	a4, #0
2000f2fc:	e50b3020 	str	a4, [fp, #-32]
2000f300:	e51b3020 	ldr	a4, [fp, #-32]
2000f304:	e1a00003 	mov	a1, a4
2000f308:	e24bd00c 	sub	sp, fp, #12
2000f30c:	e89da800 	ldm	sp, {fp, sp, pc}

2000f310 <TOLOWER>:
2000f310:	e1a0c00d 	mov	ip, sp
2000f314:	e92dd800 	push	{fp, ip, lr, pc}
2000f318:	e24cb004 	sub	fp, ip, #4
2000f31c:	e24dd008 	sub	sp, sp, #8
2000f320:	e1a03000 	mov	a4, a1
2000f324:	e54b300d 	strb	a4, [fp, #-13]
2000f328:	e55b300d 	ldrb	a4, [fp, #-13]
2000f32c:	e3530040 	cmp	a4, #64	; 0x40
2000f330:	9a000007 	bls	2000f354 <TOLOWER+0x44>
2000f334:	e55b300d 	ldrb	a4, [fp, #-13]
2000f338:	e353005a 	cmp	a4, #90	; 0x5a
2000f33c:	8a000004 	bhi	2000f354 <TOLOWER+0x44>
2000f340:	e55b300d 	ldrb	a4, [fp, #-13]
2000f344:	e2833020 	add	a4, a4, #32
2000f348:	e20330ff 	and	a4, a4, #255	; 0xff
2000f34c:	e50b3014 	str	a4, [fp, #-20]
2000f350:	ea000001 	b	2000f35c <TOLOWER+0x4c>
2000f354:	e55b300d 	ldrb	a4, [fp, #-13]
2000f358:	e50b3014 	str	a4, [fp, #-20]
2000f35c:	e51b3014 	ldr	a4, [fp, #-20]
2000f360:	e1a00003 	mov	a1, a4
2000f364:	e24bd00c 	sub	sp, fp, #12
2000f368:	e89da800 	ldm	sp, {fp, sp, pc}

2000f36c <strncasecmp>:
2000f36c:	e1a0c00d 	mov	ip, sp
2000f370:	e92dd800 	push	{fp, ip, lr, pc}
2000f374:	e24cb004 	sub	fp, ip, #4
2000f378:	e24dd020 	sub	sp, sp, #32
2000f37c:	e50b0020 	str	a1, [fp, #-32]
2000f380:	e50b1024 	str	a2, [fp, #-36]	; 0x24
2000f384:	e50b2028 	str	a3, [fp, #-40]	; 0x28
2000f388:	e51b3020 	ldr	a4, [fp, #-32]
2000f38c:	e50b3018 	str	a4, [fp, #-24]
2000f390:	e51b3024 	ldr	a4, [fp, #-36]	; 0x24
2000f394:	e50b3014 	str	a4, [fp, #-20]
2000f398:	e51b2018 	ldr	a3, [fp, #-24]
2000f39c:	e51b3014 	ldr	a4, [fp, #-20]
2000f3a0:	e1520003 	cmp	a3, a4
2000f3a4:	0a000002 	beq	2000f3b4 <strncasecmp+0x48>
2000f3a8:	e51b3028 	ldr	a4, [fp, #-40]	; 0x28
2000f3ac:	e3530000 	cmp	a4, #0
2000f3b0:	1a000002 	bne	2000f3c0 <strncasecmp+0x54>
2000f3b4:	e3a03000 	mov	a4, #0
2000f3b8:	e50b302c 	str	a4, [fp, #-44]	; 0x2c
2000f3bc:	ea000027 	b	2000f460 <strncasecmp+0xf4>
2000f3c0:	e51b3018 	ldr	a4, [fp, #-24]
2000f3c4:	e5d32000 	ldrb	a3, [a4]
2000f3c8:	e51b3018 	ldr	a4, [fp, #-24]
2000f3cc:	e2833001 	add	a4, a4, #1
2000f3d0:	e50b3018 	str	a4, [fp, #-24]
2000f3d4:	e1a00002 	mov	a1, a3
2000f3d8:	ebffffcc 	bl	2000f310 <TOLOWER>
2000f3dc:	e1a03000 	mov	a4, a1
2000f3e0:	e54b300e 	strb	a4, [fp, #-14]
2000f3e4:	e51b3014 	ldr	a4, [fp, #-20]
2000f3e8:	e5d32000 	ldrb	a3, [a4]
2000f3ec:	e51b3014 	ldr	a4, [fp, #-20]
2000f3f0:	e2833001 	add	a4, a4, #1
2000f3f4:	e50b3014 	str	a4, [fp, #-20]
2000f3f8:	e1a00002 	mov	a1, a3
2000f3fc:	ebffffc3 	bl	2000f310 <TOLOWER>
2000f400:	e1a03000 	mov	a4, a1
2000f404:	e54b300d 	strb	a4, [fp, #-13]
2000f408:	e55b300e 	ldrb	a4, [fp, #-14]
2000f40c:	e3530000 	cmp	a4, #0
2000f410:	0a000003 	beq	2000f424 <strncasecmp+0xb8>
2000f414:	e55b200e 	ldrb	a3, [fp, #-14]
2000f418:	e55b300d 	ldrb	a4, [fp, #-13]
2000f41c:	e1520003 	cmp	a3, a4
2000f420:	0a000004 	beq	2000f438 <strncasecmp+0xcc>
2000f424:	e55b200e 	ldrb	a3, [fp, #-14]
2000f428:	e55b300d 	ldrb	a4, [fp, #-13]
2000f42c:	e0632002 	rsb	a3, a4, a3
2000f430:	e50b202c 	str	a3, [fp, #-44]	; 0x2c
2000f434:	ea000009 	b	2000f460 <strncasecmp+0xf4>
2000f438:	e51b3028 	ldr	a4, [fp, #-40]	; 0x28
2000f43c:	e2433001 	sub	a4, a4, #1
2000f440:	e50b3028 	str	a4, [fp, #-40]	; 0x28
2000f444:	e51b3028 	ldr	a4, [fp, #-40]	; 0x28
2000f448:	e3530000 	cmp	a4, #0
2000f44c:	caffffdb 	bgt	2000f3c0 <strncasecmp+0x54>
2000f450:	e55b200e 	ldrb	a3, [fp, #-14]
2000f454:	e55b300d 	ldrb	a4, [fp, #-13]
2000f458:	e0632002 	rsb	a3, a4, a3
2000f45c:	e50b202c 	str	a3, [fp, #-44]	; 0x2c
2000f460:	e51b302c 	ldr	a4, [fp, #-44]	; 0x2c
2000f464:	e1a00003 	mov	a1, a4
2000f468:	e24bd00c 	sub	sp, fp, #12
2000f46c:	e89da800 	ldm	sp, {fp, sp, pc}

2000f470 <abs>:
2000f470:	e1a0c00d 	mov	ip, sp
2000f474:	e92dd800 	push	{fp, ip, lr, pc}
2000f478:	e24cb004 	sub	fp, ip, #4
2000f47c:	e24dd008 	sub	sp, sp, #8
2000f480:	e50b0010 	str	a1, [fp, #-16]
2000f484:	e51b3010 	ldr	a4, [fp, #-16]
2000f488:	e3530000 	cmp	a4, #0
2000f48c:	aa000003 	bge	2000f4a0 <abs+0x30>
2000f490:	e51b3010 	ldr	a4, [fp, #-16]
2000f494:	e2633000 	rsb	a4, a4, #0
2000f498:	e50b3014 	str	a4, [fp, #-20]
2000f49c:	ea000001 	b	2000f4a8 <abs+0x38>
2000f4a0:	e51b3010 	ldr	a4, [fp, #-16]
2000f4a4:	e50b3014 	str	a4, [fp, #-20]
2000f4a8:	e51b3014 	ldr	a4, [fp, #-20]
2000f4ac:	e1a00003 	mov	a1, a4
2000f4b0:	e24bd00c 	sub	sp, fp, #12
2000f4b4:	e89da800 	ldm	sp, {fp, sp, pc}

2000f4b8 <atoi>:
2000f4b8:	e1a0c00d 	mov	ip, sp
2000f4bc:	e92dd800 	push	{fp, ip, lr, pc}
2000f4c0:	e24cb004 	sub	fp, ip, #4
2000f4c4:	e24dd008 	sub	sp, sp, #8
2000f4c8:	e50b0010 	str	a1, [fp, #-16]
2000f4cc:	e51b0010 	ldr	a1, [fp, #-16]
2000f4d0:	e3a01000 	mov	a2, #0
2000f4d4:	e3a02000 	mov	a3, #0
2000f4d8:	e3a03000 	mov	a4, #0
2000f4dc:	eb0001dd 	bl	2000fc58 <strtoul>
2000f4e0:	e1a03000 	mov	a4, a1
2000f4e4:	e1a00003 	mov	a1, a4
2000f4e8:	e24bd00c 	sub	sp, fp, #12
2000f4ec:	e89da800 	ldm	sp, {fp, sp, pc}

2000f4f0 <atol>:
2000f4f0:	e1a0c00d 	mov	ip, sp
2000f4f4:	e92dd800 	push	{fp, ip, lr, pc}
2000f4f8:	e24cb004 	sub	fp, ip, #4
2000f4fc:	e24dd008 	sub	sp, sp, #8
2000f500:	e50b0010 	str	a1, [fp, #-16]
2000f504:	e51b0010 	ldr	a1, [fp, #-16]
2000f508:	e3a01000 	mov	a2, #0
2000f50c:	e3a02000 	mov	a3, #0
2000f510:	e3a03000 	mov	a4, #0
2000f514:	eb0001cf 	bl	2000fc58 <strtoul>
2000f518:	e1a03000 	mov	a4, a1
2000f51c:	e1a00003 	mov	a1, a4
2000f520:	e24bd00c 	sub	sp, fp, #12
2000f524:	e89da800 	ldm	sp, {fp, sp, pc}

2000f528 <itoa>:
2000f528:	e1a0c00d 	mov	ip, sp
2000f52c:	e92dd800 	push	{fp, ip, lr, pc}
2000f530:	e24cb004 	sub	fp, ip, #4
2000f534:	e24dd028 	sub	sp, sp, #40	; 0x28
2000f538:	e50b0028 	str	a1, [fp, #-40]	; 0x28
2000f53c:	e50b102c 	str	a2, [fp, #-44]	; 0x2c
2000f540:	e3a03000 	mov	a4, #0
2000f544:	e50b301c 	str	a4, [fp, #-28]
2000f548:	e3a03000 	mov	a4, #0
2000f54c:	e50b3018 	str	a4, [fp, #-24]
2000f550:	e3a03000 	mov	a4, #0
2000f554:	e50b3010 	str	a4, [fp, #-16]
2000f558:	e51b3028 	ldr	a4, [fp, #-40]	; 0x28
2000f55c:	e3530009 	cmp	a4, #9
2000f560:	8a000016 	bhi	2000f5c0 <itoa+0x98>
2000f564:	e51b0018 	ldr	a1, [fp, #-24]
2000f568:	e51b1028 	ldr	a2, [fp, #-40]	; 0x28
2000f56c:	e59f3184 	ldr	a4, [pc, #388]	; 2000f6f8 <itoa+0x1d0>
2000f570:	e0832391 	umull	a3, a4, a2, a4
2000f574:	e1a031a3 	lsr	a4, a4, #3
2000f578:	e50b3034 	str	a4, [fp, #-52]	; 0x34
2000f57c:	e51b3034 	ldr	a4, [fp, #-52]	; 0x34
2000f580:	e1a03083 	lsl	a4, a4, #1
2000f584:	e1a02103 	lsl	a3, a4, #2
2000f588:	e0833002 	add	a4, a4, a3
2000f58c:	e0633001 	rsb	a4, a4, a2
2000f590:	e50b3034 	str	a4, [fp, #-52]	; 0x34
2000f594:	e51bc034 	ldr	ip, [fp, #-52]	; 0x34
2000f598:	e20c30ff 	and	a4, ip, #255	; 0xff
2000f59c:	e2833030 	add	a4, a4, #48	; 0x30
2000f5a0:	e20310ff 	and	a2, a4, #255	; 0xff
2000f5a4:	e3e02015 	mvn	a3, #21
2000f5a8:	e24bc00c 	sub	ip, fp, #12
2000f5ac:	e08c3000 	add	a4, ip, a1
2000f5b0:	e0832002 	add	a3, a4, a3
2000f5b4:	e1a03001 	mov	a4, a2
2000f5b8:	e5c23000 	strb	a4, [a3]
2000f5bc:	ea000030 	b	2000f684 <itoa+0x15c>
2000f5c0:	e51b1028 	ldr	a2, [fp, #-40]	; 0x28
2000f5c4:	e59f312c 	ldr	a4, [pc, #300]	; 2000f6f8 <itoa+0x1d0>
2000f5c8:	e0830391 	umull	a1, a4, a2, a4
2000f5cc:	e1a031a3 	lsr	a4, a4, #3
2000f5d0:	e50b3030 	str	a4, [fp, #-48]	; 0x30
2000f5d4:	e51b3030 	ldr	a4, [fp, #-48]	; 0x30
2000f5d8:	e1a03083 	lsl	a4, a4, #1
2000f5dc:	e1a02103 	lsl	a3, a4, #2
2000f5e0:	e0833002 	add	a4, a4, a3
2000f5e4:	e0633001 	rsb	a4, a4, a2
2000f5e8:	e50b3030 	str	a4, [fp, #-48]	; 0x30
2000f5ec:	e51b1030 	ldr	a2, [fp, #-48]	; 0x30
2000f5f0:	e50b101c 	str	a2, [fp, #-28]
2000f5f4:	e51b0018 	ldr	a1, [fp, #-24]
2000f5f8:	e51b301c 	ldr	a4, [fp, #-28]
2000f5fc:	e20330ff 	and	a4, a4, #255	; 0xff
2000f600:	e2833030 	add	a4, a4, #48	; 0x30
2000f604:	e20310ff 	and	a2, a4, #255	; 0xff
2000f608:	e3e02015 	mvn	a3, #21
2000f60c:	e24bc00c 	sub	ip, fp, #12
2000f610:	e08c3000 	add	a4, ip, a1
2000f614:	e0832002 	add	a3, a4, a3
2000f618:	e1a03001 	mov	a4, a2
2000f61c:	e5c23000 	strb	a4, [a3]
2000f620:	e51b3018 	ldr	a4, [fp, #-24]
2000f624:	e2833001 	add	a4, a4, #1
2000f628:	e50b3018 	str	a4, [fp, #-24]
2000f62c:	e51b2028 	ldr	a3, [fp, #-40]	; 0x28
2000f630:	e59f30c0 	ldr	a4, [pc, #192]	; 2000f6f8 <itoa+0x1d0>
2000f634:	e0830392 	umull	a1, a4, a3, a4
2000f638:	e1a031a3 	lsr	a4, a4, #3
2000f63c:	e50b3028 	str	a4, [fp, #-40]	; 0x28
2000f640:	e51b3028 	ldr	a4, [fp, #-40]	; 0x28
2000f644:	e353000a 	cmp	a4, #10
2000f648:	8affffdc 	bhi	2000f5c0 <itoa+0x98>
2000f64c:	e51b3028 	ldr	a4, [fp, #-40]	; 0x28
2000f650:	e3530000 	cmp	a4, #0
2000f654:	0a00000a 	beq	2000f684 <itoa+0x15c>
2000f658:	e51b0018 	ldr	a1, [fp, #-24]
2000f65c:	e51b3028 	ldr	a4, [fp, #-40]	; 0x28
2000f660:	e20330ff 	and	a4, a4, #255	; 0xff
2000f664:	e2833030 	add	a4, a4, #48	; 0x30
2000f668:	e20310ff 	and	a2, a4, #255	; 0xff
2000f66c:	e3e02015 	mvn	a3, #21
2000f670:	e24bc00c 	sub	ip, fp, #12
2000f674:	e08c3000 	add	a4, ip, a1
2000f678:	e0832002 	add	a3, a4, a3
2000f67c:	e1a03001 	mov	a4, a2
2000f680:	e5c23000 	strb	a4, [a3]
2000f684:	e51b3018 	ldr	a4, [fp, #-24]
2000f688:	e50b3014 	str	a4, [fp, #-20]
2000f68c:	ea00000f 	b	2000f6d0 <itoa+0x1a8>
2000f690:	e51b2010 	ldr	a3, [fp, #-16]
2000f694:	e51b302c 	ldr	a4, [fp, #-44]	; 0x2c
2000f698:	e0831002 	add	a2, a4, a3
2000f69c:	e51b3014 	ldr	a4, [fp, #-20]
2000f6a0:	e3e02015 	mvn	a3, #21
2000f6a4:	e24b000c 	sub	a1, fp, #12
2000f6a8:	e0803003 	add	a4, a1, a4
2000f6ac:	e0833002 	add	a4, a4, a3
2000f6b0:	e5d33000 	ldrb	a4, [a4]
2000f6b4:	e5c13000 	strb	a4, [a2]
2000f6b8:	e51b3010 	ldr	a4, [fp, #-16]
2000f6bc:	e2833001 	add	a4, a4, #1
2000f6c0:	e50b3010 	str	a4, [fp, #-16]
2000f6c4:	e51b3014 	ldr	a4, [fp, #-20]
2000f6c8:	e2433001 	sub	a4, a4, #1
2000f6cc:	e50b3014 	str	a4, [fp, #-20]
2000f6d0:	e51b3014 	ldr	a4, [fp, #-20]
2000f6d4:	e3530000 	cmp	a4, #0
2000f6d8:	aaffffec 	bge	2000f690 <itoa+0x168>
2000f6dc:	e51b2010 	ldr	a3, [fp, #-16]
2000f6e0:	e51b302c 	ldr	a4, [fp, #-44]	; 0x2c
2000f6e4:	e0832002 	add	a3, a4, a3
2000f6e8:	e3a03000 	mov	a4, #0
2000f6ec:	e5c23000 	strb	a4, [a3]
2000f6f0:	e24bd00c 	sub	sp, fp, #12
2000f6f4:	e89da800 	ldm	sp, {fp, sp, pc}
2000f6f8:	cccccccd 	stclgt	12, cr12, [ip], {205}	; 0xcd

2000f6fc <itoa16>:
2000f6fc:	e1a0c00d 	mov	ip, sp
2000f700:	e92dd800 	push	{fp, ip, lr, pc}
2000f704:	e24cb004 	sub	fp, ip, #4
2000f708:	e24dd020 	sub	sp, sp, #32
2000f70c:	e50b0028 	str	a1, [fp, #-40]	; 0x28
2000f710:	e50b102c 	str	a2, [fp, #-44]	; 0x2c
2000f714:	e3a03000 	mov	a4, #0
2000f718:	e50b301c 	str	a4, [fp, #-28]
2000f71c:	e3a03000 	mov	a4, #0
2000f720:	e50b3018 	str	a4, [fp, #-24]
2000f724:	e3a03000 	mov	a4, #0
2000f728:	e50b3010 	str	a4, [fp, #-16]
2000f72c:	e51b3028 	ldr	a4, [fp, #-40]	; 0x28
2000f730:	e3530009 	cmp	a4, #9
2000f734:	8a00000c 	bhi	2000f76c <itoa16+0x70>
2000f738:	e51b0018 	ldr	a1, [fp, #-24]
2000f73c:	e51b3028 	ldr	a4, [fp, #-40]	; 0x28
2000f740:	e20330ff 	and	a4, a4, #255	; 0xff
2000f744:	e203300f 	and	a4, a4, #15
2000f748:	e2833030 	add	a4, a4, #48	; 0x30
2000f74c:	e20310ff 	and	a2, a4, #255	; 0xff
2000f750:	e3e02015 	mvn	a3, #21
2000f754:	e24bc00c 	sub	ip, fp, #12
2000f758:	e08c3000 	add	a4, ip, a1
2000f75c:	e0832002 	add	a3, a4, a3
2000f760:	e1a03001 	mov	a4, a2
2000f764:	e5c23000 	strb	a4, [a3]
2000f768:	ea000024 	b	2000f800 <itoa16+0x104>
2000f76c:	e51b3028 	ldr	a4, [fp, #-40]	; 0x28
2000f770:	e203300f 	and	a4, a4, #15
2000f774:	e50b301c 	str	a4, [fp, #-28]
2000f778:	e51b0018 	ldr	a1, [fp, #-24]
2000f77c:	e51b301c 	ldr	a4, [fp, #-28]
2000f780:	e20330ff 	and	a4, a4, #255	; 0xff
2000f784:	e2833030 	add	a4, a4, #48	; 0x30
2000f788:	e20310ff 	and	a2, a4, #255	; 0xff
2000f78c:	e3e02015 	mvn	a3, #21
2000f790:	e24bc00c 	sub	ip, fp, #12
2000f794:	e08c3000 	add	a4, ip, a1
2000f798:	e0832002 	add	a3, a4, a3
2000f79c:	e1a03001 	mov	a4, a2
2000f7a0:	e5c23000 	strb	a4, [a3]
2000f7a4:	e51b3018 	ldr	a4, [fp, #-24]
2000f7a8:	e2833001 	add	a4, a4, #1
2000f7ac:	e50b3018 	str	a4, [fp, #-24]
2000f7b0:	e51b3028 	ldr	a4, [fp, #-40]	; 0x28
2000f7b4:	e1a03223 	lsr	a4, a4, #4
2000f7b8:	e50b3028 	str	a4, [fp, #-40]	; 0x28
2000f7bc:	e51b3028 	ldr	a4, [fp, #-40]	; 0x28
2000f7c0:	e3530010 	cmp	a4, #16
2000f7c4:	8affffe8 	bhi	2000f76c <itoa16+0x70>
2000f7c8:	e51b3028 	ldr	a4, [fp, #-40]	; 0x28
2000f7cc:	e3530000 	cmp	a4, #0
2000f7d0:	0a00000a 	beq	2000f800 <itoa16+0x104>
2000f7d4:	e51b0018 	ldr	a1, [fp, #-24]
2000f7d8:	e51b3028 	ldr	a4, [fp, #-40]	; 0x28
2000f7dc:	e20330ff 	and	a4, a4, #255	; 0xff
2000f7e0:	e2833030 	add	a4, a4, #48	; 0x30
2000f7e4:	e20310ff 	and	a2, a4, #255	; 0xff
2000f7e8:	e3e02015 	mvn	a3, #21
2000f7ec:	e24bc00c 	sub	ip, fp, #12
2000f7f0:	e08c3000 	add	a4, ip, a1
2000f7f4:	e0832002 	add	a3, a4, a3
2000f7f8:	e1a03001 	mov	a4, a2
2000f7fc:	e5c23000 	strb	a4, [a3]
2000f800:	e51b3018 	ldr	a4, [fp, #-24]
2000f804:	e50b3014 	str	a4, [fp, #-20]
2000f808:	ea00000f 	b	2000f84c <itoa16+0x150>
2000f80c:	e51b2010 	ldr	a3, [fp, #-16]
2000f810:	e51b302c 	ldr	a4, [fp, #-44]	; 0x2c
2000f814:	e0831002 	add	a2, a4, a3
2000f818:	e51b3014 	ldr	a4, [fp, #-20]
2000f81c:	e3e02015 	mvn	a3, #21
2000f820:	e24b000c 	sub	a1, fp, #12
2000f824:	e0803003 	add	a4, a1, a4
2000f828:	e0833002 	add	a4, a4, a3
2000f82c:	e5d33000 	ldrb	a4, [a4]
2000f830:	e5c13000 	strb	a4, [a2]
2000f834:	e51b3010 	ldr	a4, [fp, #-16]
2000f838:	e2833001 	add	a4, a4, #1
2000f83c:	e50b3010 	str	a4, [fp, #-16]
2000f840:	e51b3014 	ldr	a4, [fp, #-20]
2000f844:	e2433001 	sub	a4, a4, #1
2000f848:	e50b3014 	str	a4, [fp, #-20]
2000f84c:	e51b3014 	ldr	a4, [fp, #-20]
2000f850:	e3530000 	cmp	a4, #0
2000f854:	aaffffec 	bge	2000f80c <itoa16+0x110>
2000f858:	e51b2010 	ldr	a3, [fp, #-16]
2000f85c:	e51b302c 	ldr	a4, [fp, #-44]	; 0x2c
2000f860:	e0832002 	add	a3, a4, a3
2000f864:	e3a03000 	mov	a4, #0
2000f868:	e5c23000 	strb	a4, [a3]
2000f86c:	e24bd00c 	sub	sp, fp, #12
2000f870:	e89da800 	ldm	sp, {fp, sp, pc}

2000f874 <UpperStr>:
2000f874:	e1a0c00d 	mov	ip, sp
2000f878:	e92dd800 	push	{fp, ip, lr, pc}
2000f87c:	e24cb004 	sub	fp, ip, #4
2000f880:	e24dd008 	sub	sp, sp, #8
2000f884:	e50b0010 	str	a1, [fp, #-16]
2000f888:	ea000009 	b	2000f8b4 <UpperStr+0x40>
2000f88c:	e51b3010 	ldr	a4, [fp, #-16]
2000f890:	e5d33000 	ldrb	a4, [a4]
2000f894:	e1a00003 	mov	a1, a4
2000f898:	eb00000b 	bl	2000f8cc <__toupper>
2000f89c:	e1a03000 	mov	a4, a1
2000f8a0:	e51b2010 	ldr	a3, [fp, #-16]
2000f8a4:	e5c23000 	strb	a4, [a3]
2000f8a8:	e51b3010 	ldr	a4, [fp, #-16]
2000f8ac:	e2833001 	add	a4, a4, #1
2000f8b0:	e50b3010 	str	a4, [fp, #-16]
2000f8b4:	e51b3010 	ldr	a4, [fp, #-16]
2000f8b8:	e5d33000 	ldrb	a4, [a4]
2000f8bc:	e3530000 	cmp	a4, #0
2000f8c0:	1afffff1 	bne	2000f88c <UpperStr+0x18>
2000f8c4:	e24bd00c 	sub	sp, fp, #12
2000f8c8:	e89da800 	ldm	sp, {fp, sp, pc}

2000f8cc <__toupper>:
2000f8cc:	e1a0c00d 	mov	ip, sp
2000f8d0:	e92dd800 	push	{fp, ip, lr, pc}
2000f8d4:	e24cb004 	sub	fp, ip, #4
2000f8d8:	e24dd008 	sub	sp, sp, #8
2000f8dc:	e59f2040 	ldr	a3, [pc, #64]	; 2000f924 <__toupper+0x58>
2000f8e0:	e08f2002 	add	a3, pc, a3
2000f8e4:	e1a03000 	mov	a4, a1
2000f8e8:	e54b300d 	strb	a4, [fp, #-13]
2000f8ec:	e55b100d 	ldrb	a2, [fp, #-13]
2000f8f0:	e59f3030 	ldr	a4, [pc, #48]	; 2000f928 <__toupper+0x5c>
2000f8f4:	e7923003 	ldr	a4, [a3, a4]
2000f8f8:	e7d33001 	ldrb	a4, [a4, a2]
2000f8fc:	e2033002 	and	a4, a4, #2
2000f900:	e3530000 	cmp	a4, #0
2000f904:	0a000002 	beq	2000f914 <__toupper+0x48>
2000f908:	e55b300d 	ldrb	a4, [fp, #-13]
2000f90c:	e2433020 	sub	a4, a4, #32
2000f910:	e54b300d 	strb	a4, [fp, #-13]
2000f914:	e55b300d 	ldrb	a4, [fp, #-13]
2000f918:	e1a00003 	mov	a1, a4
2000f91c:	e24bd00c 	sub	sp, fp, #12
2000f920:	e89da800 	ldm	sp, {fp, sp, pc}
2000f924:	00003eb0 			; <UNDEFINED> instruction: 0x00003eb0
2000f928:	00000064 	andeq	a1, a1, v1, rrx

2000f92c <LowerStr>:
2000f92c:	e1a0c00d 	mov	ip, sp
2000f930:	e92dd800 	push	{fp, ip, lr, pc}
2000f934:	e24cb004 	sub	fp, ip, #4
2000f938:	e24dd008 	sub	sp, sp, #8
2000f93c:	e50b0010 	str	a1, [fp, #-16]
2000f940:	ea000009 	b	2000f96c <LowerStr+0x40>
2000f944:	e51b3010 	ldr	a4, [fp, #-16]
2000f948:	e5d33000 	ldrb	a4, [a4]
2000f94c:	e1a00003 	mov	a1, a4
2000f950:	eb00000b 	bl	2000f984 <__tolower>
2000f954:	e1a03000 	mov	a4, a1
2000f958:	e51b2010 	ldr	a3, [fp, #-16]
2000f95c:	e5c23000 	strb	a4, [a3]
2000f960:	e51b3010 	ldr	a4, [fp, #-16]
2000f964:	e2833001 	add	a4, a4, #1
2000f968:	e50b3010 	str	a4, [fp, #-16]
2000f96c:	e51b3010 	ldr	a4, [fp, #-16]
2000f970:	e5d33000 	ldrb	a4, [a4]
2000f974:	e3530000 	cmp	a4, #0
2000f978:	1afffff1 	bne	2000f944 <LowerStr+0x18>
2000f97c:	e24bd00c 	sub	sp, fp, #12
2000f980:	e89da800 	ldm	sp, {fp, sp, pc}

2000f984 <__tolower>:
2000f984:	e1a0c00d 	mov	ip, sp
2000f988:	e92dd800 	push	{fp, ip, lr, pc}
2000f98c:	e24cb004 	sub	fp, ip, #4
2000f990:	e24dd008 	sub	sp, sp, #8
2000f994:	e59f2044 	ldr	a3, [pc, #68]	; 2000f9e0 <__tolower+0x5c>
2000f998:	e08f2002 	add	a3, pc, a3
2000f99c:	e1a03000 	mov	a4, a1
2000f9a0:	e54b300d 	strb	a4, [fp, #-13]
2000f9a4:	e55b100d 	ldrb	a2, [fp, #-13]
2000f9a8:	e59f3034 	ldr	a4, [pc, #52]	; 2000f9e4 <__tolower+0x60>
2000f9ac:	e7923003 	ldr	a4, [a3, a4]
2000f9b0:	e7d33001 	ldrb	a4, [a4, a2]
2000f9b4:	e2033001 	and	a4, a4, #1
2000f9b8:	e20330ff 	and	a4, a4, #255	; 0xff
2000f9bc:	e3530000 	cmp	a4, #0
2000f9c0:	0a000002 	beq	2000f9d0 <__tolower+0x4c>
2000f9c4:	e55b300d 	ldrb	a4, [fp, #-13]
2000f9c8:	e2833020 	add	a4, a4, #32
2000f9cc:	e54b300d 	strb	a4, [fp, #-13]
2000f9d0:	e55b300d 	ldrb	a4, [fp, #-13]
2000f9d4:	e1a00003 	mov	a1, a4
2000f9d8:	e24bd00c 	sub	sp, fp, #12
2000f9dc:	e89da800 	ldm	sp, {fp, sp, pc}
2000f9e0:	00003df8 	strdeq	a4, [a1], -v5
2000f9e4:	00000064 	andeq	a1, a1, v1, rrx

2000f9e8 <u32todecimal>:
2000f9e8:	e1a0c00d 	mov	ip, sp
2000f9ec:	e92dd800 	push	{fp, ip, lr, pc}
2000f9f0:	e24cb004 	sub	fp, ip, #4
2000f9f4:	e24dd030 	sub	sp, sp, #48	; 0x30
2000f9f8:	e59f2140 	ldr	a3, [pc, #320]	; 2000fb40 <u32todecimal+0x158>
2000f9fc:	e50b2038 	str	a3, [fp, #-56]	; 0x38
2000fa00:	e51b3038 	ldr	a4, [fp, #-56]	; 0x38
2000fa04:	e08f3003 	add	a4, pc, a4
2000fa08:	e50b3038 	str	a4, [fp, #-56]	; 0x38
2000fa0c:	e50b0030 	str	a1, [fp, #-48]	; 0x30
2000fa10:	e50b1034 	str	a2, [fp, #-52]	; 0x34
2000fa14:	e3a03000 	mov	a4, #0
2000fa18:	e50b3018 	str	a4, [fp, #-24]
2000fa1c:	e3a03000 	mov	a4, #0
2000fa20:	e50b3014 	str	a4, [fp, #-20]
2000fa24:	e51b3034 	ldr	a4, [fp, #-52]	; 0x34
2000fa28:	e3530000 	cmp	a4, #0
2000fa2c:	0a00003a 	beq	2000fb1c <u32todecimal+0x134>
2000fa30:	ea00001c 	b	2000faa8 <u32todecimal+0xc0>
2000fa34:	e51b1034 	ldr	a2, [fp, #-52]	; 0x34
2000fa38:	e59f3104 	ldr	a4, [pc, #260]	; 2000fb44 <u32todecimal+0x15c>
2000fa3c:	e083c391 	umull	ip, a4, a2, a4
2000fa40:	e1a031a3 	lsr	a4, a4, #3
2000fa44:	e1a03083 	lsl	a4, a4, #1
2000fa48:	e1a02103 	lsl	a3, a4, #2
2000fa4c:	e0833002 	add	a4, a4, a3
2000fa50:	e0633001 	rsb	a4, a4, a2
2000fa54:	e50b3010 	str	a4, [fp, #-16]
2000fa58:	e51b0018 	ldr	a1, [fp, #-24]
2000fa5c:	e51b2010 	ldr	a3, [fp, #-16]
2000fa60:	e59f30e0 	ldr	a4, [pc, #224]	; 2000fb48 <u32todecimal+0x160>
2000fa64:	e51b1038 	ldr	a2, [fp, #-56]	; 0x38
2000fa68:	e0813003 	add	a4, a2, a4
2000fa6c:	e7d31002 	ldrb	a2, [a4, a3]
2000fa70:	e3e0201b 	mvn	a3, #27
2000fa74:	e24bc00c 	sub	ip, fp, #12
2000fa78:	e08c3000 	add	a4, ip, a1
2000fa7c:	e0832002 	add	a3, a4, a3
2000fa80:	e1a03001 	mov	a4, a2
2000fa84:	e5c23000 	strb	a4, [a3]
2000fa88:	e51b3018 	ldr	a4, [fp, #-24]
2000fa8c:	e2833001 	add	a4, a4, #1
2000fa90:	e50b3018 	str	a4, [fp, #-24]
2000fa94:	e51b2034 	ldr	a3, [fp, #-52]	; 0x34
2000fa98:	e59f30a4 	ldr	a4, [pc, #164]	; 2000fb44 <u32todecimal+0x15c>
2000fa9c:	e0830392 	umull	a1, a4, a3, a4
2000faa0:	e1a031a3 	lsr	a4, a4, #3
2000faa4:	e50b3034 	str	a4, [fp, #-52]	; 0x34
2000faa8:	e51b3034 	ldr	a4, [fp, #-52]	; 0x34
2000faac:	e3530000 	cmp	a4, #0
2000fab0:	1affffdf 	bne	2000fa34 <u32todecimal+0x4c>
2000fab4:	ea00000f 	b	2000faf8 <u32todecimal+0x110>
2000fab8:	e51b3018 	ldr	a4, [fp, #-24]
2000fabc:	e2433001 	sub	a4, a4, #1
2000fac0:	e50b3018 	str	a4, [fp, #-24]
2000fac4:	e51b2014 	ldr	a3, [fp, #-20]
2000fac8:	e51b3030 	ldr	a4, [fp, #-48]	; 0x30
2000facc:	e0831002 	add	a2, a4, a3
2000fad0:	e51b3018 	ldr	a4, [fp, #-24]
2000fad4:	e3e0201b 	mvn	a3, #27
2000fad8:	e24bc00c 	sub	ip, fp, #12
2000fadc:	e08c3003 	add	a4, ip, a4
2000fae0:	e0833002 	add	a4, a4, a3
2000fae4:	e5d33000 	ldrb	a4, [a4]
2000fae8:	e5c13000 	strb	a4, [a2]
2000faec:	e51b3014 	ldr	a4, [fp, #-20]
2000faf0:	e2833001 	add	a4, a4, #1
2000faf4:	e50b3014 	str	a4, [fp, #-20]
2000faf8:	e51b3018 	ldr	a4, [fp, #-24]
2000fafc:	e3530000 	cmp	a4, #0
2000fb00:	caffffec 	bgt	2000fab8 <u32todecimal+0xd0>
2000fb04:	e51b2014 	ldr	a3, [fp, #-20]
2000fb08:	e51b3030 	ldr	a4, [fp, #-48]	; 0x30
2000fb0c:	e0832002 	add	a3, a4, a3
2000fb10:	e3a03000 	mov	a4, #0
2000fb14:	e5c23000 	strb	a4, [a3]
2000fb18:	ea000006 	b	2000fb38 <u32todecimal+0x150>
2000fb1c:	e51b2030 	ldr	a3, [fp, #-48]	; 0x30
2000fb20:	e3a03030 	mov	a4, #48	; 0x30
2000fb24:	e5c23000 	strb	a4, [a3]
2000fb28:	e51b3030 	ldr	a4, [fp, #-48]	; 0x30
2000fb2c:	e2832001 	add	a3, a4, #1
2000fb30:	e3a03000 	mov	a4, #0
2000fb34:	e5c23000 	strb	a4, [a3]
2000fb38:	e24bd00c 	sub	sp, fp, #12
2000fb3c:	e89da800 	ldm	sp, {fp, sp, pc}
2000fb40:	00003d8c 	andeq	a4, a1, ip, lsl #27
2000fb44:	cccccccd 	stclgt	12, cr12, [ip], {205}	; 0xcd
2000fb48:	ffffff08 			; <UNDEFINED> instruction: 0xffffff08

2000fb4c <binarytohex>:
2000fb4c:	e1a0c00d 	mov	ip, sp
2000fb50:	e92dd800 	push	{fp, ip, lr, pc}
2000fb54:	e24cb004 	sub	fp, ip, #4
2000fb58:	e24dd018 	sub	sp, sp, #24
2000fb5c:	e59f30e8 	ldr	a4, [pc, #232]	; 2000fc4c <binarytohex+0x100>
2000fb60:	e50b3024 	str	a4, [fp, #-36]	; 0x24
2000fb64:	e51b3024 	ldr	a4, [fp, #-36]	; 0x24
2000fb68:	e08f3003 	add	a4, pc, a4
2000fb6c:	e50b3024 	str	a4, [fp, #-36]	; 0x24
2000fb70:	e50b0018 	str	a1, [fp, #-24]
2000fb74:	e50b101c 	str	a2, [fp, #-28]
2000fb78:	e50b2020 	str	a3, [fp, #-32]
2000fb7c:	e51b3020 	ldr	a4, [fp, #-32]
2000fb80:	e1a03083 	lsl	a4, a4, #1
2000fb84:	e2633000 	rsb	a4, a4, #0
2000fb88:	e1e03003 	mvn	a4, a4
2000fb8c:	e1a03103 	lsl	a4, a4, #2
2000fb90:	e50b3010 	str	a4, [fp, #-16]
2000fb94:	e59f30b4 	ldr	a4, [pc, #180]	; 2000fc50 <binarytohex+0x104>
2000fb98:	e51b0024 	ldr	a1, [fp, #-36]	; 0x24
2000fb9c:	e0803003 	add	a4, a1, a4
2000fba0:	e5d33000 	ldrb	a4, [a4]
2000fba4:	e3530030 	cmp	a4, #48	; 0x30
2000fba8:	0a000004 	beq	2000fbc0 <binarytohex+0x74>
2000fbac:	e59f30a0 	ldr	a4, [pc, #160]	; 2000fc54 <binarytohex+0x108>
2000fbb0:	e51b2024 	ldr	a3, [fp, #-36]	; 0x24
2000fbb4:	e0823003 	add	a4, a3, a4
2000fbb8:	e1a00003 	mov	a1, a4
2000fbbc:	eb0000b9 	bl	2000fea8 <putstr>
2000fbc0:	e3a03000 	mov	a4, #0
2000fbc4:	e50b3014 	str	a4, [fp, #-20]
2000fbc8:	ea000011 	b	2000fc14 <binarytohex+0xc8>
2000fbcc:	e51b2014 	ldr	a3, [fp, #-20]
2000fbd0:	e51b3018 	ldr	a4, [fp, #-24]
2000fbd4:	e0831002 	add	a2, a4, a3
2000fbd8:	e51b201c 	ldr	a3, [fp, #-28]
2000fbdc:	e51b3010 	ldr	a4, [fp, #-16]
2000fbe0:	e1a03352 	asr	a4, a3, a4
2000fbe4:	e203200f 	and	a3, a4, #15
2000fbe8:	e59f3060 	ldr	a4, [pc, #96]	; 2000fc50 <binarytohex+0x104>
2000fbec:	e51b0024 	ldr	a1, [fp, #-36]	; 0x24
2000fbf0:	e0803003 	add	a4, a1, a4
2000fbf4:	e7d33002 	ldrb	a4, [a4, a3]
2000fbf8:	e5c13000 	strb	a4, [a2]
2000fbfc:	e51b3010 	ldr	a4, [fp, #-16]
2000fc00:	e2433004 	sub	a4, a4, #4
2000fc04:	e50b3010 	str	a4, [fp, #-16]
2000fc08:	e51b3014 	ldr	a4, [fp, #-20]
2000fc0c:	e2833001 	add	a4, a4, #1
2000fc10:	e50b3014 	str	a4, [fp, #-20]
2000fc14:	e51b3020 	ldr	a4, [fp, #-32]
2000fc18:	e1a02083 	lsl	a3, a4, #1
2000fc1c:	e51b3014 	ldr	a4, [fp, #-20]
2000fc20:	e1520003 	cmp	a3, a4
2000fc24:	caffffe8 	bgt	2000fbcc <binarytohex+0x80>
2000fc28:	e51b3020 	ldr	a4, [fp, #-32]
2000fc2c:	e1a03083 	lsl	a4, a4, #1
2000fc30:	e1a02003 	mov	a3, a4
2000fc34:	e51b3018 	ldr	a4, [fp, #-24]
2000fc38:	e0832002 	add	a3, a4, a3
2000fc3c:	e3a03000 	mov	a4, #0
2000fc40:	e5c23000 	strb	a4, [a3]
2000fc44:	e24bd00c 	sub	sp, fp, #12
2000fc48:	e89da800 	ldm	sp, {fp, sp, pc}
2000fc4c:	00003c28 	andeq	a4, a1, v5, lsr #24
2000fc50:	ffffff08 			; <UNDEFINED> instruction: 0xffffff08
2000fc54:	fffffaf4 			; <UNDEFINED> instruction: 0xfffffaf4

2000fc58 <strtoul>:
2000fc58:	e1a0c00d 	mov	ip, sp
2000fc5c:	e92dd800 	push	{fp, ip, lr, pc}
2000fc60:	e24cb004 	sub	fp, ip, #4
2000fc64:	e24dd030 	sub	sp, sp, #48	; 0x30
2000fc68:	e50b0028 	str	a1, [fp, #-40]	; 0x28
2000fc6c:	e50b102c 	str	a2, [fp, #-44]	; 0x2c
2000fc70:	e50b2030 	str	a3, [fp, #-48]	; 0x30
2000fc74:	e50b3034 	str	a4, [fp, #-52]	; 0x34
2000fc78:	e3a03000 	mov	a4, #0
2000fc7c:	e50b3020 	str	a4, [fp, #-32]
2000fc80:	e3a0300a 	mov	a4, #10
2000fc84:	e50b3018 	str	a4, [fp, #-24]
2000fc88:	e3a03000 	mov	a4, #0
2000fc8c:	e50b3014 	str	a4, [fp, #-20]
2000fc90:	e3a03000 	mov	a4, #0
2000fc94:	e50b3010 	str	a4, [fp, #-16]
2000fc98:	e51b2034 	ldr	a3, [fp, #-52]	; 0x34
2000fc9c:	e3a03000 	mov	a4, #0
2000fca0:	e5823000 	str	a4, [a3]
2000fca4:	ea000056 	b	2000fe04 <strtoul+0x1ac>
2000fca8:	e51b3014 	ldr	a4, [fp, #-20]
2000fcac:	e3530000 	cmp	a4, #0
2000fcb0:	1a000005 	bne	2000fccc <strtoul+0x74>
2000fcb4:	e55b301a 	ldrb	a4, [fp, #-26]
2000fcb8:	e3530030 	cmp	a4, #48	; 0x30
2000fcbc:	1a000002 	bne	2000fccc <strtoul+0x74>
2000fcc0:	e3a03001 	mov	a4, #1
2000fcc4:	e50b3010 	str	a4, [fp, #-16]
2000fcc8:	ea000047 	b	2000fdec <strtoul+0x194>
2000fccc:	e51b3010 	ldr	a4, [fp, #-16]
2000fcd0:	e3530000 	cmp	a4, #0
2000fcd4:	0a00000e 	beq	2000fd14 <strtoul+0xbc>
2000fcd8:	e51b3014 	ldr	a4, [fp, #-20]
2000fcdc:	e3530001 	cmp	a4, #1
2000fce0:	1a00000b 	bne	2000fd14 <strtoul+0xbc>
2000fce4:	e55b301a 	ldrb	a4, [fp, #-26]
2000fce8:	e3530078 	cmp	a4, #120	; 0x78
2000fcec:	1a000002 	bne	2000fcfc <strtoul+0xa4>
2000fcf0:	e3a03010 	mov	a4, #16
2000fcf4:	e50b3018 	str	a4, [fp, #-24]
2000fcf8:	ea00003b 	b	2000fdec <strtoul+0x194>
2000fcfc:	e55b301a 	ldrb	a4, [fp, #-26]
2000fd00:	e353006f 	cmp	a4, #111	; 0x6f
2000fd04:	1a000002 	bne	2000fd14 <strtoul+0xbc>
2000fd08:	e3a03008 	mov	a4, #8
2000fd0c:	e50b3018 	str	a4, [fp, #-24]
2000fd10:	ea000035 	b	2000fdec <strtoul+0x194>
2000fd14:	e55b301a 	ldrb	a4, [fp, #-26]
2000fd18:	e353002f 	cmp	a4, #47	; 0x2f
2000fd1c:	9a000006 	bls	2000fd3c <strtoul+0xe4>
2000fd20:	e55b301a 	ldrb	a4, [fp, #-26]
2000fd24:	e3530039 	cmp	a4, #57	; 0x39
2000fd28:	8a000003 	bhi	2000fd3c <strtoul+0xe4>
2000fd2c:	e55b301a 	ldrb	a4, [fp, #-26]
2000fd30:	e2433030 	sub	a4, a4, #48	; 0x30
2000fd34:	e54b3019 	strb	a4, [fp, #-25]
2000fd38:	ea000019 	b	2000fda4 <strtoul+0x14c>
2000fd3c:	e55b301a 	ldrb	a4, [fp, #-26]
2000fd40:	e3530060 	cmp	a4, #96	; 0x60
2000fd44:	9a000006 	bls	2000fd64 <strtoul+0x10c>
2000fd48:	e55b301a 	ldrb	a4, [fp, #-26]
2000fd4c:	e353007a 	cmp	a4, #122	; 0x7a
2000fd50:	8a000003 	bhi	2000fd64 <strtoul+0x10c>
2000fd54:	e55b301a 	ldrb	a4, [fp, #-26]
2000fd58:	e2433057 	sub	a4, a4, #87	; 0x57
2000fd5c:	e54b3019 	strb	a4, [fp, #-25]
2000fd60:	ea00000f 	b	2000fda4 <strtoul+0x14c>
2000fd64:	e55b301a 	ldrb	a4, [fp, #-26]
2000fd68:	e3530040 	cmp	a4, #64	; 0x40
2000fd6c:	9a000006 	bls	2000fd8c <strtoul+0x134>
2000fd70:	e55b301a 	ldrb	a4, [fp, #-26]
2000fd74:	e353005a 	cmp	a4, #90	; 0x5a
2000fd78:	8a000003 	bhi	2000fd8c <strtoul+0x134>
2000fd7c:	e55b301a 	ldrb	a4, [fp, #-26]
2000fd80:	e2433037 	sub	a4, a4, #55	; 0x37
2000fd84:	e54b3019 	strb	a4, [fp, #-25]
2000fd88:	ea000005 	b	2000fda4 <strtoul+0x14c>
2000fd8c:	e51b2034 	ldr	a3, [fp, #-52]	; 0x34
2000fd90:	e3a03003 	mov	a4, #3
2000fd94:	e5823000 	str	a4, [a3]
2000fd98:	e3a03000 	mov	a4, #0
2000fd9c:	e50b3038 	str	a4, [fp, #-56]	; 0x38
2000fda0:	ea00001f 	b	2000fe24 <strtoul+0x1cc>
2000fda4:	e55b2019 	ldrb	a3, [fp, #-25]
2000fda8:	e51b3018 	ldr	a4, [fp, #-24]
2000fdac:	e1520003 	cmp	a3, a4
2000fdb0:	ba000005 	blt	2000fdcc <strtoul+0x174>
2000fdb4:	e51b2034 	ldr	a3, [fp, #-52]	; 0x34
2000fdb8:	e3a03004 	mov	a4, #4
2000fdbc:	e5823000 	str	a4, [a3]
2000fdc0:	e3a03000 	mov	a4, #0
2000fdc4:	e50b3038 	str	a4, [fp, #-56]	; 0x38
2000fdc8:	ea000015 	b	2000fe24 <strtoul+0x1cc>
2000fdcc:	e51b2018 	ldr	a3, [fp, #-24]
2000fdd0:	e51b3020 	ldr	a4, [fp, #-32]
2000fdd4:	e0030392 	mul	a4, a3, a4
2000fdd8:	e50b3020 	str	a4, [fp, #-32]
2000fddc:	e55b2019 	ldrb	a3, [fp, #-25]
2000fde0:	e51b3020 	ldr	a4, [fp, #-32]
2000fde4:	e0833002 	add	a4, a4, a3
2000fde8:	e50b3020 	str	a4, [fp, #-32]
2000fdec:	e51b3028 	ldr	a4, [fp, #-40]	; 0x28
2000fdf0:	e2833001 	add	a4, a4, #1
2000fdf4:	e50b3028 	str	a4, [fp, #-40]	; 0x28
2000fdf8:	e51b3014 	ldr	a4, [fp, #-20]
2000fdfc:	e2833001 	add	a4, a4, #1
2000fe00:	e50b3014 	str	a4, [fp, #-20]
2000fe04:	e51b3028 	ldr	a4, [fp, #-40]	; 0x28
2000fe08:	e5d33000 	ldrb	a4, [a4]
2000fe0c:	e54b301a 	strb	a4, [fp, #-26]
2000fe10:	e55b301a 	ldrb	a4, [fp, #-26]
2000fe14:	e3530000 	cmp	a4, #0
2000fe18:	1affffa2 	bne	2000fca8 <strtoul+0x50>
2000fe1c:	e51b3020 	ldr	a4, [fp, #-32]
2000fe20:	e50b3038 	str	a4, [fp, #-56]	; 0x38
2000fe24:	e51b3038 	ldr	a4, [fp, #-56]	; 0x38
2000fe28:	e1a00003 	mov	a1, a4
2000fe2c:	e24bd00c 	sub	sp, fp, #12
2000fe30:	e89da800 	ldm	sp, {fp, sp, pc}

2000fe34 <putnstr>:
2000fe34:	e1a0c00d 	mov	ip, sp
2000fe38:	e92dd800 	push	{fp, ip, lr, pc}
2000fe3c:	e24cb004 	sub	fp, ip, #4
2000fe40:	e24dd008 	sub	sp, sp, #8
2000fe44:	e50b0010 	str	a1, [fp, #-16]
2000fe48:	e50b1014 	str	a2, [fp, #-20]
2000fe4c:	e51b3010 	ldr	a4, [fp, #-16]
2000fe50:	e3530000 	cmp	a4, #0
2000fe54:	0a000011 	beq	2000fea0 <putnstr+0x6c>
2000fe58:	ea000009 	b	2000fe84 <putnstr+0x50>
2000fe5c:	e51b3010 	ldr	a4, [fp, #-16]
2000fe60:	e5d33000 	ldrb	a4, [a4]
2000fe64:	e1a00003 	mov	a1, a4
2000fe68:	ebfffbd6 	bl	2000edc8 <putc>
2000fe6c:	e51b3010 	ldr	a4, [fp, #-16]
2000fe70:	e2833001 	add	a4, a4, #1
2000fe74:	e50b3010 	str	a4, [fp, #-16]
2000fe78:	e51b3014 	ldr	a4, [fp, #-20]
2000fe7c:	e2433001 	sub	a4, a4, #1
2000fe80:	e50b3014 	str	a4, [fp, #-20]
2000fe84:	e51b3014 	ldr	a4, [fp, #-20]
2000fe88:	e3530000 	cmp	a4, #0
2000fe8c:	0a000003 	beq	2000fea0 <putnstr+0x6c>
2000fe90:	e51b3010 	ldr	a4, [fp, #-16]
2000fe94:	e5d33000 	ldrb	a4, [a4]
2000fe98:	e3530000 	cmp	a4, #0
2000fe9c:	1affffee 	bne	2000fe5c <putnstr+0x28>
2000fea0:	e24bd00c 	sub	sp, fp, #12
2000fea4:	e89da800 	ldm	sp, {fp, sp, pc}

2000fea8 <putstr>:
2000fea8:	e1a0c00d 	mov	ip, sp
2000feac:	e92dd800 	push	{fp, ip, lr, pc}
2000feb0:	e24cb004 	sub	fp, ip, #4
2000feb4:	e24dd008 	sub	sp, sp, #8
2000feb8:	e50b0010 	str	a1, [fp, #-16]
2000febc:	e51b0010 	ldr	a1, [fp, #-16]
2000fec0:	eb000206 	bl	200106e0 <strlen>
2000fec4:	e1a03000 	mov	a4, a1
2000fec8:	e51b0010 	ldr	a1, [fp, #-16]
2000fecc:	e1a01003 	mov	a2, a4
2000fed0:	ebffffd7 	bl	2000fe34 <putnstr>
2000fed4:	e24bd00c 	sub	sp, fp, #12
2000fed8:	e89da800 	ldm	sp, {fp, sp, pc}

2000fedc <putstr_hex>:
2000fedc:	e1a0c00d 	mov	ip, sp
2000fee0:	e92dd810 	push	{v1, fp, ip, lr, pc}
2000fee4:	e24cb004 	sub	fp, ip, #4
2000fee8:	e24dd01c 	sub	sp, sp, #28
2000feec:	e59f404c 	ldr	v1, [pc, #76]	; 2000ff40 <putstr_hex+0x64>
2000fef0:	e08f4004 	add	v1, pc, v1
2000fef4:	e50b0028 	str	a1, [fp, #-40]	; 0x28
2000fef8:	e50b102c 	str	a2, [fp, #-44]	; 0x2c
2000fefc:	e51b202c 	ldr	a3, [fp, #-44]	; 0x2c
2000ff00:	e24b301d 	sub	a4, fp, #29
2000ff04:	e1a00003 	mov	a1, a4
2000ff08:	e1a01002 	mov	a2, a3
2000ff0c:	e3a02004 	mov	a3, #4
2000ff10:	ebffff0d 	bl	2000fb4c <binarytohex>
2000ff14:	e51b0028 	ldr	a1, [fp, #-40]	; 0x28
2000ff18:	ebffffe2 	bl	2000fea8 <putstr>
2000ff1c:	e24b301d 	sub	a4, fp, #29
2000ff20:	e1a00003 	mov	a1, a4
2000ff24:	ebffffdf 	bl	2000fea8 <putstr>
2000ff28:	e59f3014 	ldr	a4, [pc, #20]	; 2000ff44 <putstr_hex+0x68>
2000ff2c:	e0843003 	add	a4, v1, a4
2000ff30:	e1a00003 	mov	a1, a4
2000ff34:	ebffffdb 	bl	2000fea8 <putstr>
2000ff38:	e24bd010 	sub	sp, fp, #16
2000ff3c:	e89da810 	ldm	sp, {v1, fp, sp, pc}
2000ff40:	000038a0 	andeq	a4, a1, a1, lsr #17
2000ff44:	fffffb14 			; <UNDEFINED> instruction: 0xfffffb14

2000ff48 <gets>:
2000ff48:	e1a0c00d 	mov	ip, sp
2000ff4c:	e92dd800 	push	{fp, ip, lr, pc}
2000ff50:	e24cb004 	sub	fp, ip, #4
2000ff54:	e24dd010 	sub	sp, sp, #16
2000ff58:	e59f10e4 	ldr	a2, [pc, #228]	; 20010044 <gets+0xfc>
2000ff5c:	e50b101c 	str	a2, [fp, #-28]
2000ff60:	e51b201c 	ldr	a3, [fp, #-28]
2000ff64:	e08f2002 	add	a3, pc, a3
2000ff68:	e50b201c 	str	a3, [fp, #-28]
2000ff6c:	e50b0018 	str	a1, [fp, #-24]
2000ff70:	e3a03000 	mov	a4, #0
2000ff74:	e50b3014 	str	a4, [fp, #-20]
2000ff78:	ea000024 	b	20010010 <gets+0xc8>
2000ff7c:	e55b300d 	ldrb	a4, [fp, #-13]
2000ff80:	e3530008 	cmp	a4, #8
2000ff84:	0a000010 	beq	2000ffcc <gets+0x84>
2000ff88:	e51b3014 	ldr	a4, [fp, #-20]
2000ff8c:	e2833001 	add	a4, a4, #1
2000ff90:	e50b3014 	str	a4, [fp, #-20]
2000ff94:	e51b2018 	ldr	a3, [fp, #-24]
2000ff98:	e55b300d 	ldrb	a4, [fp, #-13]
2000ff9c:	e5c23000 	strb	a4, [a3]
2000ffa0:	e51b3018 	ldr	a4, [fp, #-24]
2000ffa4:	e2833001 	add	a4, a4, #1
2000ffa8:	e50b3018 	str	a4, [fp, #-24]
2000ffac:	e55b200d 	ldrb	a3, [fp, #-13]
2000ffb0:	e59f3090 	ldr	a4, [pc, #144]	; 20010048 <gets+0x100>
2000ffb4:	e51b101c 	ldr	a2, [fp, #-28]
2000ffb8:	e0813003 	add	a4, a2, a4
2000ffbc:	e1a00003 	mov	a1, a4
2000ffc0:	e1a01002 	mov	a2, a3
2000ffc4:	ebfff2d2 	bl	2000cb14 <printk>
2000ffc8:	ea000010 	b	20010010 <gets+0xc8>
2000ffcc:	e51b3014 	ldr	a4, [fp, #-20]
2000ffd0:	e3530000 	cmp	a4, #0
2000ffd4:	da00000d 	ble	20010010 <gets+0xc8>
2000ffd8:	e51b3014 	ldr	a4, [fp, #-20]
2000ffdc:	e2433001 	sub	a4, a4, #1
2000ffe0:	e50b3014 	str	a4, [fp, #-20]
2000ffe4:	e51b2018 	ldr	a3, [fp, #-24]
2000ffe8:	e3a03020 	mov	a4, #32
2000ffec:	e5c23000 	strb	a4, [a3]
2000fff0:	e51b3018 	ldr	a4, [fp, #-24]
2000fff4:	e2433001 	sub	a4, a4, #1
2000fff8:	e50b3018 	str	a4, [fp, #-24]
2000fffc:	e59f3048 	ldr	a4, [pc, #72]	; 2001004c <gets+0x104>
20010000:	e51b201c 	ldr	a3, [fp, #-28]
20010004:	e0823003 	add	a4, a3, a4
20010008:	e1a00003 	mov	a1, a4
2001000c:	ebfff2c0 	bl	2000cb14 <printk>
20010010:	ebfffb53 	bl	2000ed64 <getc>
20010014:	e1a03000 	mov	a4, a1
20010018:	e54b300d 	strb	a4, [fp, #-13]
2001001c:	e55b300d 	ldrb	a4, [fp, #-13]
20010020:	e353000d 	cmp	a4, #13
20010024:	1affffd4 	bne	2000ff7c <gets+0x34>
20010028:	e51b2018 	ldr	a3, [fp, #-24]
2001002c:	e3a03000 	mov	a4, #0
20010030:	e5c23000 	strb	a4, [a3]
20010034:	e51b3014 	ldr	a4, [fp, #-20]
20010038:	e1a00003 	mov	a1, a4
2001003c:	e24bd00c 	sub	sp, fp, #12
20010040:	e89da800 	ldm	sp, {fp, sp, pc}
20010044:	0000382c 	andeq	a4, a1, ip, lsr #16
20010048:	fffffb18 			; <UNDEFINED> instruction: 0xfffffb18
2001004c:	fffffb1c 			; <UNDEFINED> instruction: 0xfffffb1c

20010050 <get_cmd>:
20010050:	e1a0c00d 	mov	ip, sp
20010054:	e92dd800 	push	{fp, ip, lr, pc}
20010058:	e24cb004 	sub	fp, ip, #4
2001005c:	e24dd010 	sub	sp, sp, #16
20010060:	e59f1168 	ldr	a2, [pc, #360]	; 200101d0 <get_cmd+0x180>
20010064:	e50b101c 	str	a2, [fp, #-28]
20010068:	e51b201c 	ldr	a3, [fp, #-28]
2001006c:	e08f2002 	add	a3, pc, a3
20010070:	e50b201c 	str	a3, [fp, #-28]
20010074:	e50b0018 	str	a1, [fp, #-24]
20010078:	e3a03000 	mov	a4, #0
2001007c:	e50b3014 	str	a4, [fp, #-20]
20010080:	ea000045 	b	2001019c <get_cmd+0x14c>
20010084:	e55b300d 	ldrb	a4, [fp, #-13]
20010088:	e353001b 	cmp	a4, #27
2001008c:	1a00001d 	bne	20010108 <get_cmd+0xb8>
20010090:	e51b3018 	ldr	a4, [fp, #-24]
20010094:	e5d33000 	ldrb	a4, [a4]
20010098:	e353002a 	cmp	a4, #42	; 0x2a
2001009c:	0a00003e 	beq	2001019c <get_cmd+0x14c>
200100a0:	e51b3018 	ldr	a4, [fp, #-24]
200100a4:	e5d33000 	ldrb	a4, [a4]
200100a8:	e3530000 	cmp	a4, #0
200100ac:	0a00003a 	beq	2001019c <get_cmd+0x14c>
200100b0:	e51b3014 	ldr	a4, [fp, #-20]
200100b4:	e3530000 	cmp	a4, #0
200100b8:	1a000037 	bne	2001019c <get_cmd+0x14c>
200100bc:	e59f3110 	ldr	a4, [pc, #272]	; 200101d4 <get_cmd+0x184>
200100c0:	e51b101c 	ldr	a2, [fp, #-28]
200100c4:	e0813003 	add	a4, a2, a4
200100c8:	e1a00003 	mov	a1, a4
200100cc:	e51b1018 	ldr	a2, [fp, #-24]
200100d0:	ebfff28f 	bl	2000cb14 <printk>
200100d4:	ea000005 	b	200100f0 <get_cmd+0xa0>
200100d8:	e51b3018 	ldr	a4, [fp, #-24]
200100dc:	e2833001 	add	a4, a4, #1
200100e0:	e50b3018 	str	a4, [fp, #-24]
200100e4:	e51b3014 	ldr	a4, [fp, #-20]
200100e8:	e2833001 	add	a4, a4, #1
200100ec:	e50b3014 	str	a4, [fp, #-20]
200100f0:	e51b3018 	ldr	a4, [fp, #-24]
200100f4:	e5d33000 	ldrb	a4, [a4]
200100f8:	e3530000 	cmp	a4, #0
200100fc:	1afffff5 	bne	200100d8 <get_cmd+0x88>
20010100:	ebfffb17 	bl	2000ed64 <getc>
20010104:	ea000024 	b	2001019c <get_cmd+0x14c>
20010108:	e55b300d 	ldrb	a4, [fp, #-13]
2001010c:	e3530008 	cmp	a4, #8
20010110:	0a000010 	beq	20010158 <get_cmd+0x108>
20010114:	e51b3014 	ldr	a4, [fp, #-20]
20010118:	e2833001 	add	a4, a4, #1
2001011c:	e50b3014 	str	a4, [fp, #-20]
20010120:	e51b2018 	ldr	a3, [fp, #-24]
20010124:	e55b300d 	ldrb	a4, [fp, #-13]
20010128:	e5c23000 	strb	a4, [a3]
2001012c:	e51b3018 	ldr	a4, [fp, #-24]
20010130:	e2833001 	add	a4, a4, #1
20010134:	e50b3018 	str	a4, [fp, #-24]
20010138:	e55b200d 	ldrb	a3, [fp, #-13]
2001013c:	e59f3094 	ldr	a4, [pc, #148]	; 200101d8 <get_cmd+0x188>
20010140:	e51b101c 	ldr	a2, [fp, #-28]
20010144:	e0813003 	add	a4, a2, a4
20010148:	e1a00003 	mov	a1, a4
2001014c:	e1a01002 	mov	a2, a3
20010150:	ebfff26f 	bl	2000cb14 <printk>
20010154:	ea000010 	b	2001019c <get_cmd+0x14c>
20010158:	e51b3014 	ldr	a4, [fp, #-20]
2001015c:	e3530000 	cmp	a4, #0
20010160:	da00000d 	ble	2001019c <get_cmd+0x14c>
20010164:	e51b3014 	ldr	a4, [fp, #-20]
20010168:	e2433001 	sub	a4, a4, #1
2001016c:	e50b3014 	str	a4, [fp, #-20]
20010170:	e51b2018 	ldr	a3, [fp, #-24]
20010174:	e3a03020 	mov	a4, #32
20010178:	e5c23000 	strb	a4, [a3]
2001017c:	e51b3018 	ldr	a4, [fp, #-24]
20010180:	e2433001 	sub	a4, a4, #1
20010184:	e50b3018 	str	a4, [fp, #-24]
20010188:	e59f304c 	ldr	a4, [pc, #76]	; 200101dc <get_cmd+0x18c>
2001018c:	e51b201c 	ldr	a3, [fp, #-28]
20010190:	e0823003 	add	a4, a3, a4
20010194:	e1a00003 	mov	a1, a4
20010198:	ebfff25d 	bl	2000cb14 <printk>
2001019c:	ebfffaf0 	bl	2000ed64 <getc>
200101a0:	e1a03000 	mov	a4, a1
200101a4:	e54b300d 	strb	a4, [fp, #-13]
200101a8:	e55b300d 	ldrb	a4, [fp, #-13]
200101ac:	e353000d 	cmp	a4, #13
200101b0:	1affffb3 	bne	20010084 <get_cmd+0x34>
200101b4:	e51b2018 	ldr	a3, [fp, #-24]
200101b8:	e3a03000 	mov	a4, #0
200101bc:	e5c23000 	strb	a4, [a3]
200101c0:	e51b3014 	ldr	a4, [fp, #-20]
200101c4:	e1a00003 	mov	a1, a4
200101c8:	e24bd00c 	sub	sp, fp, #12
200101cc:	e89da800 	ldm	sp, {fp, sp, pc}
200101d0:	00003724 	andeq	a4, a1, v1, lsr #14
200101d4:	fffffb20 			; <UNDEFINED> instruction: 0xfffffb20
200101d8:	fffffb18 			; <UNDEFINED> instruction: 0xfffffb18
200101dc:	fffffb1c 			; <UNDEFINED> instruction: 0xfffffb1c

200101e0 <strnicmp>:
200101e0:	e1a0c00d 	mov	ip, sp
200101e4:	e92dd800 	push	{fp, ip, lr, pc}
200101e8:	e24cb004 	sub	fp, ip, #4
200101ec:	e24dd018 	sub	sp, sp, #24
200101f0:	e50b0018 	str	a1, [fp, #-24]
200101f4:	e50b101c 	str	a2, [fp, #-28]
200101f8:	e50b2020 	str	a3, [fp, #-32]
200101fc:	e3a03000 	mov	a4, #0
20010200:	e54b300e 	strb	a4, [fp, #-14]
20010204:	e3a03000 	mov	a4, #0
20010208:	e54b300d 	strb	a4, [fp, #-13]
2001020c:	e51b3020 	ldr	a4, [fp, #-32]
20010210:	e3530000 	cmp	a4, #0
20010214:	0a000029 	beq	200102c0 <strnicmp+0xe0>
20010218:	e51b3018 	ldr	a4, [fp, #-24]
2001021c:	e5d33000 	ldrb	a4, [a4]
20010220:	e54b300e 	strb	a4, [fp, #-14]
20010224:	e51b301c 	ldr	a4, [fp, #-28]
20010228:	e5d33000 	ldrb	a4, [a4]
2001022c:	e54b300d 	strb	a4, [fp, #-13]
20010230:	e51b3018 	ldr	a4, [fp, #-24]
20010234:	e2833001 	add	a4, a4, #1
20010238:	e50b3018 	str	a4, [fp, #-24]
2001023c:	e51b301c 	ldr	a4, [fp, #-28]
20010240:	e2833001 	add	a4, a4, #1
20010244:	e50b301c 	str	a4, [fp, #-28]
20010248:	e55b300e 	ldrb	a4, [fp, #-14]
2001024c:	e3530000 	cmp	a4, #0
20010250:	0a00001a 	beq	200102c0 <strnicmp+0xe0>
20010254:	e55b300d 	ldrb	a4, [fp, #-13]
20010258:	e3530000 	cmp	a4, #0
2001025c:	0a000017 	beq	200102c0 <strnicmp+0xe0>
20010260:	e55b200e 	ldrb	a3, [fp, #-14]
20010264:	e55b300d 	ldrb	a4, [fp, #-13]
20010268:	e1520003 	cmp	a3, a4
2001026c:	0a00000d 	beq	200102a8 <strnicmp+0xc8>
20010270:	e55b300e 	ldrb	a4, [fp, #-14]
20010274:	e1a00003 	mov	a1, a4
20010278:	ebfffdc1 	bl	2000f984 <__tolower>
2001027c:	e1a03000 	mov	a4, a1
20010280:	e54b300e 	strb	a4, [fp, #-14]
20010284:	e55b300d 	ldrb	a4, [fp, #-13]
20010288:	e1a00003 	mov	a1, a4
2001028c:	ebfffdbc 	bl	2000f984 <__tolower>
20010290:	e1a03000 	mov	a4, a1
20010294:	e54b300d 	strb	a4, [fp, #-13]
20010298:	e55b200e 	ldrb	a3, [fp, #-14]
2001029c:	e55b300d 	ldrb	a4, [fp, #-13]
200102a0:	e1520003 	cmp	a3, a4
200102a4:	1a000005 	bne	200102c0 <strnicmp+0xe0>
200102a8:	e51b3020 	ldr	a4, [fp, #-32]
200102ac:	e2433001 	sub	a4, a4, #1
200102b0:	e50b3020 	str	a4, [fp, #-32]
200102b4:	e51b3020 	ldr	a4, [fp, #-32]
200102b8:	e3530000 	cmp	a4, #0
200102bc:	1affffd5 	bne	20010218 <strnicmp+0x38>
200102c0:	e55b200e 	ldrb	a3, [fp, #-14]
200102c4:	e55b300d 	ldrb	a4, [fp, #-13]
200102c8:	e0633002 	rsb	a4, a4, a3
200102cc:	e1a00003 	mov	a1, a4
200102d0:	e24bd00c 	sub	sp, fp, #12
200102d4:	e89da800 	ldm	sp, {fp, sp, pc}

200102d8 <strcpy>:
200102d8:	e1a0c00d 	mov	ip, sp
200102dc:	e92dd800 	push	{fp, ip, lr, pc}
200102e0:	e24cb004 	sub	fp, ip, #4
200102e4:	e24dd010 	sub	sp, sp, #16
200102e8:	e50b0018 	str	a1, [fp, #-24]
200102ec:	e50b101c 	str	a2, [fp, #-28]
200102f0:	e51b3018 	ldr	a4, [fp, #-24]
200102f4:	e50b3010 	str	a4, [fp, #-16]
200102f8:	e51b301c 	ldr	a4, [fp, #-28]
200102fc:	e5d33000 	ldrb	a4, [a4]
20010300:	e51b2018 	ldr	a3, [fp, #-24]
20010304:	e5c23000 	strb	a4, [a3]
20010308:	e51b3018 	ldr	a4, [fp, #-24]
2001030c:	e5d33000 	ldrb	a4, [a4]
20010310:	e3530000 	cmp	a4, #0
20010314:	03a03000 	moveq	a4, #0
20010318:	13a03001 	movne	a4, #1
2001031c:	e20320ff 	and	a3, a4, #255	; 0xff
20010320:	e51b3018 	ldr	a4, [fp, #-24]
20010324:	e2833001 	add	a4, a4, #1
20010328:	e50b3018 	str	a4, [fp, #-24]
2001032c:	e51b301c 	ldr	a4, [fp, #-28]
20010330:	e2833001 	add	a4, a4, #1
20010334:	e50b301c 	str	a4, [fp, #-28]
20010338:	e3520000 	cmp	a3, #0
2001033c:	1affffed 	bne	200102f8 <strcpy+0x20>
20010340:	e51b3010 	ldr	a4, [fp, #-16]
20010344:	e1a00003 	mov	a1, a4
20010348:	e24bd00c 	sub	sp, fp, #12
2001034c:	e89da800 	ldm	sp, {fp, sp, pc}

20010350 <strncpy>:
20010350:	e1a0c00d 	mov	ip, sp
20010354:	e92dd800 	push	{fp, ip, lr, pc}
20010358:	e24cb004 	sub	fp, ip, #4
2001035c:	e24dd018 	sub	sp, sp, #24
20010360:	e50b0018 	str	a1, [fp, #-24]
20010364:	e50b101c 	str	a2, [fp, #-28]
20010368:	e50b2020 	str	a3, [fp, #-32]
2001036c:	e51b3018 	ldr	a4, [fp, #-24]
20010370:	e50b3010 	str	a4, [fp, #-16]
20010374:	e51b3020 	ldr	a4, [fp, #-32]
20010378:	e3530000 	cmp	a4, #0
2001037c:	03a03000 	moveq	a4, #0
20010380:	13a03001 	movne	a4, #1
20010384:	e20320ff 	and	a3, a4, #255	; 0xff
20010388:	e51b3020 	ldr	a4, [fp, #-32]
2001038c:	e2433001 	sub	a4, a4, #1
20010390:	e50b3020 	str	a4, [fp, #-32]
20010394:	e2223001 	eor	a4, a3, #1
20010398:	e20330ff 	and	a4, a4, #255	; 0xff
2001039c:	e3530000 	cmp	a4, #0
200103a0:	1a000011 	bne	200103ec <strncpy+0x9c>
200103a4:	e51b301c 	ldr	a4, [fp, #-28]
200103a8:	e5d33000 	ldrb	a4, [a4]
200103ac:	e51b2018 	ldr	a3, [fp, #-24]
200103b0:	e5c23000 	strb	a4, [a3]
200103b4:	e51b3018 	ldr	a4, [fp, #-24]
200103b8:	e5d33000 	ldrb	a4, [a4]
200103bc:	e3530000 	cmp	a4, #0
200103c0:	03a03000 	moveq	a4, #0
200103c4:	13a03001 	movne	a4, #1
200103c8:	e20320ff 	and	a3, a4, #255	; 0xff
200103cc:	e51b3018 	ldr	a4, [fp, #-24]
200103d0:	e2833001 	add	a4, a4, #1
200103d4:	e50b3018 	str	a4, [fp, #-24]
200103d8:	e51b301c 	ldr	a4, [fp, #-28]
200103dc:	e2833001 	add	a4, a4, #1
200103e0:	e50b301c 	str	a4, [fp, #-28]
200103e4:	e3520000 	cmp	a3, #0
200103e8:	1affffe1 	bne	20010374 <strncpy+0x24>
200103ec:	e51b3010 	ldr	a4, [fp, #-16]
200103f0:	e1a00003 	mov	a1, a4
200103f4:	e24bd00c 	sub	sp, fp, #12
200103f8:	e89da800 	ldm	sp, {fp, sp, pc}

200103fc <strcat>:
200103fc:	e1a0c00d 	mov	ip, sp
20010400:	e92dd800 	push	{fp, ip, lr, pc}
20010404:	e24cb004 	sub	fp, ip, #4
20010408:	e24dd010 	sub	sp, sp, #16
2001040c:	e50b0018 	str	a1, [fp, #-24]
20010410:	e50b101c 	str	a2, [fp, #-28]
20010414:	e51b3018 	ldr	a4, [fp, #-24]
20010418:	e50b3010 	str	a4, [fp, #-16]
2001041c:	ea000002 	b	2001042c <strcat+0x30>
20010420:	e51b3018 	ldr	a4, [fp, #-24]
20010424:	e2833001 	add	a4, a4, #1
20010428:	e50b3018 	str	a4, [fp, #-24]
2001042c:	e51b3018 	ldr	a4, [fp, #-24]
20010430:	e5d33000 	ldrb	a4, [a4]
20010434:	e3530000 	cmp	a4, #0
20010438:	1afffff8 	bne	20010420 <strcat+0x24>
2001043c:	e51b301c 	ldr	a4, [fp, #-28]
20010440:	e5d33000 	ldrb	a4, [a4]
20010444:	e51b2018 	ldr	a3, [fp, #-24]
20010448:	e5c23000 	strb	a4, [a3]
2001044c:	e51b3018 	ldr	a4, [fp, #-24]
20010450:	e5d33000 	ldrb	a4, [a4]
20010454:	e3530000 	cmp	a4, #0
20010458:	03a03000 	moveq	a4, #0
2001045c:	13a03001 	movne	a4, #1
20010460:	e20320ff 	and	a3, a4, #255	; 0xff
20010464:	e51b3018 	ldr	a4, [fp, #-24]
20010468:	e2833001 	add	a4, a4, #1
2001046c:	e50b3018 	str	a4, [fp, #-24]
20010470:	e51b301c 	ldr	a4, [fp, #-28]
20010474:	e2833001 	add	a4, a4, #1
20010478:	e50b301c 	str	a4, [fp, #-28]
2001047c:	e3520000 	cmp	a3, #0
20010480:	1affffed 	bne	2001043c <strcat+0x40>
20010484:	e51b3010 	ldr	a4, [fp, #-16]
20010488:	e1a00003 	mov	a1, a4
2001048c:	e24bd00c 	sub	sp, fp, #12
20010490:	e89da800 	ldm	sp, {fp, sp, pc}

20010494 <strncat>:
20010494:	e1a0c00d 	mov	ip, sp
20010498:	e92dd800 	push	{fp, ip, lr, pc}
2001049c:	e24cb004 	sub	fp, ip, #4
200104a0:	e24dd018 	sub	sp, sp, #24
200104a4:	e50b0018 	str	a1, [fp, #-24]
200104a8:	e50b101c 	str	a2, [fp, #-28]
200104ac:	e50b2020 	str	a3, [fp, #-32]
200104b0:	e51b3018 	ldr	a4, [fp, #-24]
200104b4:	e50b3010 	str	a4, [fp, #-16]
200104b8:	e51b3020 	ldr	a4, [fp, #-32]
200104bc:	e3530000 	cmp	a4, #0
200104c0:	0a000024 	beq	20010558 <strncat+0xc4>
200104c4:	ea000002 	b	200104d4 <strncat+0x40>
200104c8:	e51b3018 	ldr	a4, [fp, #-24]
200104cc:	e2833001 	add	a4, a4, #1
200104d0:	e50b3018 	str	a4, [fp, #-24]
200104d4:	e51b3018 	ldr	a4, [fp, #-24]
200104d8:	e5d33000 	ldrb	a4, [a4]
200104dc:	e3530000 	cmp	a4, #0
200104e0:	1afffff8 	bne	200104c8 <strncat+0x34>
200104e4:	ea000009 	b	20010510 <strncat+0x7c>
200104e8:	e51b3020 	ldr	a4, [fp, #-32]
200104ec:	e2433001 	sub	a4, a4, #1
200104f0:	e50b3020 	str	a4, [fp, #-32]
200104f4:	e51b3020 	ldr	a4, [fp, #-32]
200104f8:	e3530000 	cmp	a4, #0
200104fc:	1a000003 	bne	20010510 <strncat+0x7c>
20010500:	e51b3018 	ldr	a4, [fp, #-24]
20010504:	e3a02000 	mov	a3, #0
20010508:	e5c32000 	strb	a3, [a4]
2001050c:	ea000011 	b	20010558 <strncat+0xc4>
20010510:	e51b301c 	ldr	a4, [fp, #-28]
20010514:	e5d33000 	ldrb	a4, [a4]
20010518:	e51b2018 	ldr	a3, [fp, #-24]
2001051c:	e5c23000 	strb	a4, [a3]
20010520:	e51b3018 	ldr	a4, [fp, #-24]
20010524:	e5d33000 	ldrb	a4, [a4]
20010528:	e3530000 	cmp	a4, #0
2001052c:	03a03000 	moveq	a4, #0
20010530:	13a03001 	movne	a4, #1
20010534:	e20320ff 	and	a3, a4, #255	; 0xff
20010538:	e51b3018 	ldr	a4, [fp, #-24]
2001053c:	e2833001 	add	a4, a4, #1
20010540:	e50b3018 	str	a4, [fp, #-24]
20010544:	e51b301c 	ldr	a4, [fp, #-28]
20010548:	e2833001 	add	a4, a4, #1
2001054c:	e50b301c 	str	a4, [fp, #-28]
20010550:	e3520000 	cmp	a3, #0
20010554:	1affffe3 	bne	200104e8 <strncat+0x54>
20010558:	e51b3010 	ldr	a4, [fp, #-16]
2001055c:	e1a00003 	mov	a1, a4
20010560:	e24bd00c 	sub	sp, fp, #12
20010564:	e89da800 	ldm	sp, {fp, sp, pc}

20010568 <strcmp>:
20010568:	e1a0c00d 	mov	ip, sp
2001056c:	e92dd800 	push	{fp, ip, lr, pc}
20010570:	e24cb004 	sub	fp, ip, #4
20010574:	e24dd010 	sub	sp, sp, #16
20010578:	e50b0010 	str	a1, [fp, #-16]
2001057c:	e50b1014 	str	a2, [fp, #-20]
20010580:	e51b3010 	ldr	a4, [fp, #-16]
20010584:	e5d32000 	ldrb	a3, [a4]
20010588:	e51b3014 	ldr	a4, [fp, #-20]
2001058c:	e5d33000 	ldrb	a4, [a4]
20010590:	e0633002 	rsb	a4, a4, a3
20010594:	e20330ff 	and	a4, a4, #255	; 0xff
20010598:	e50b3018 	str	a4, [fp, #-24]
2001059c:	e51b2018 	ldr	a3, [fp, #-24]
200105a0:	e1a03c02 	lsl	a4, a3, #24
200105a4:	e1a03c43 	asr	a4, a4, #24
200105a8:	e3530000 	cmp	a4, #0
200105ac:	03a03000 	moveq	a4, #0
200105b0:	13a03001 	movne	a4, #1
200105b4:	e20320ff 	and	a3, a4, #255	; 0xff
200105b8:	e51b3014 	ldr	a4, [fp, #-20]
200105bc:	e2833001 	add	a4, a4, #1
200105c0:	e50b3014 	str	a4, [fp, #-20]
200105c4:	e3520000 	cmp	a3, #0
200105c8:	1a00000a 	bne	200105f8 <strcmp+0x90>
200105cc:	e51b3010 	ldr	a4, [fp, #-16]
200105d0:	e5d33000 	ldrb	a4, [a4]
200105d4:	e3530000 	cmp	a4, #0
200105d8:	13a03000 	movne	a4, #0
200105dc:	03a03001 	moveq	a4, #1
200105e0:	e20320ff 	and	a3, a4, #255	; 0xff
200105e4:	e51b3010 	ldr	a4, [fp, #-16]
200105e8:	e2833001 	add	a4, a4, #1
200105ec:	e50b3010 	str	a4, [fp, #-16]
200105f0:	e3520000 	cmp	a3, #0
200105f4:	0affffe1 	beq	20010580 <strcmp+0x18>
200105f8:	e51b2018 	ldr	a3, [fp, #-24]
200105fc:	e1a03c02 	lsl	a4, a3, #24
20010600:	e1a03c43 	asr	a4, a4, #24
20010604:	e1a00003 	mov	a1, a4
20010608:	e24bd00c 	sub	sp, fp, #12
2001060c:	e89da800 	ldm	sp, {fp, sp, pc}

20010610 <strncmp>:
20010610:	e1a0c00d 	mov	ip, sp
20010614:	e92dd800 	push	{fp, ip, lr, pc}
20010618:	e24cb004 	sub	fp, ip, #4
2001061c:	e24dd010 	sub	sp, sp, #16
20010620:	e50b0010 	str	a1, [fp, #-16]
20010624:	e50b1014 	str	a2, [fp, #-20]
20010628:	e50b2018 	str	a3, [fp, #-24]
2001062c:	e3a02000 	mov	a3, #0
20010630:	e50b201c 	str	a3, [fp, #-28]
20010634:	ea000020 	b	200106bc <strncmp+0xac>
20010638:	e51b3010 	ldr	a4, [fp, #-16]
2001063c:	e5d32000 	ldrb	a3, [a4]
20010640:	e51b3014 	ldr	a4, [fp, #-20]
20010644:	e5d33000 	ldrb	a4, [a4]
20010648:	e0633002 	rsb	a4, a4, a3
2001064c:	e20330ff 	and	a4, a4, #255	; 0xff
20010650:	e50b301c 	str	a4, [fp, #-28]
20010654:	e51b201c 	ldr	a3, [fp, #-28]
20010658:	e1a03c02 	lsl	a4, a3, #24
2001065c:	e1a03c43 	asr	a4, a4, #24
20010660:	e3530000 	cmp	a4, #0
20010664:	03a03000 	moveq	a4, #0
20010668:	13a03001 	movne	a4, #1
2001066c:	e20320ff 	and	a3, a4, #255	; 0xff
20010670:	e51b3014 	ldr	a4, [fp, #-20]
20010674:	e2833001 	add	a4, a4, #1
20010678:	e50b3014 	str	a4, [fp, #-20]
2001067c:	e3520000 	cmp	a3, #0
20010680:	1a000010 	bne	200106c8 <strncmp+0xb8>
20010684:	e51b3010 	ldr	a4, [fp, #-16]
20010688:	e5d33000 	ldrb	a4, [a4]
2001068c:	e3530000 	cmp	a4, #0
20010690:	13a03000 	movne	a4, #0
20010694:	03a03001 	moveq	a4, #1
20010698:	e20320ff 	and	a3, a4, #255	; 0xff
2001069c:	e51b3010 	ldr	a4, [fp, #-16]
200106a0:	e2833001 	add	a4, a4, #1
200106a4:	e50b3010 	str	a4, [fp, #-16]
200106a8:	e3520000 	cmp	a3, #0
200106ac:	1a000005 	bne	200106c8 <strncmp+0xb8>
200106b0:	e51b3018 	ldr	a4, [fp, #-24]
200106b4:	e2433001 	sub	a4, a4, #1
200106b8:	e50b3018 	str	a4, [fp, #-24]
200106bc:	e51b3018 	ldr	a4, [fp, #-24]
200106c0:	e3530000 	cmp	a4, #0
200106c4:	1affffdb 	bne	20010638 <strncmp+0x28>
200106c8:	e51b201c 	ldr	a3, [fp, #-28]
200106cc:	e1a03c02 	lsl	a4, a3, #24
200106d0:	e1a03c43 	asr	a4, a4, #24
200106d4:	e1a00003 	mov	a1, a4
200106d8:	e24bd00c 	sub	sp, fp, #12
200106dc:	e89da800 	ldm	sp, {fp, sp, pc}

200106e0 <strlen>:
200106e0:	e1a0c00d 	mov	ip, sp
200106e4:	e92dd800 	push	{fp, ip, lr, pc}
200106e8:	e24cb004 	sub	fp, ip, #4
200106ec:	e24dd010 	sub	sp, sp, #16
200106f0:	e50b0018 	str	a1, [fp, #-24]
200106f4:	e51b3018 	ldr	a4, [fp, #-24]
200106f8:	e50b3010 	str	a4, [fp, #-16]
200106fc:	ea000002 	b	2001070c <strlen+0x2c>
20010700:	e51b3010 	ldr	a4, [fp, #-16]
20010704:	e2833001 	add	a4, a4, #1
20010708:	e50b3010 	str	a4, [fp, #-16]
2001070c:	e51b3010 	ldr	a4, [fp, #-16]
20010710:	e5d33000 	ldrb	a4, [a4]
20010714:	e3530000 	cmp	a4, #0
20010718:	1afffff8 	bne	20010700 <strlen+0x20>
2001071c:	e51b2010 	ldr	a3, [fp, #-16]
20010720:	e51b3018 	ldr	a4, [fp, #-24]
20010724:	e0633002 	rsb	a4, a4, a3
20010728:	e1a00003 	mov	a1, a4
2001072c:	e24bd00c 	sub	sp, fp, #12
20010730:	e89da800 	ldm	sp, {fp, sp, pc}

20010734 <strnlen>:
20010734:	e1a0c00d 	mov	ip, sp
20010738:	e92dd800 	push	{fp, ip, lr, pc}
2001073c:	e24cb004 	sub	fp, ip, #4
20010740:	e24dd010 	sub	sp, sp, #16
20010744:	e50b0018 	str	a1, [fp, #-24]
20010748:	e50b101c 	str	a2, [fp, #-28]
2001074c:	e51b3018 	ldr	a4, [fp, #-24]
20010750:	e50b3010 	str	a4, [fp, #-16]
20010754:	ea000002 	b	20010764 <strnlen+0x30>
20010758:	e51b3010 	ldr	a4, [fp, #-16]
2001075c:	e2833001 	add	a4, a4, #1
20010760:	e50b3010 	str	a4, [fp, #-16]
20010764:	e51b301c 	ldr	a4, [fp, #-28]
20010768:	e3530000 	cmp	a4, #0
2001076c:	03a03000 	moveq	a4, #0
20010770:	13a03001 	movne	a4, #1
20010774:	e20320ff 	and	a3, a4, #255	; 0xff
20010778:	e51b301c 	ldr	a4, [fp, #-28]
2001077c:	e2433001 	sub	a4, a4, #1
20010780:	e50b301c 	str	a4, [fp, #-28]
20010784:	e2223001 	eor	a4, a3, #1
20010788:	e20330ff 	and	a4, a4, #255	; 0xff
2001078c:	e3530000 	cmp	a4, #0
20010790:	1a000003 	bne	200107a4 <strnlen+0x70>
20010794:	e51b3010 	ldr	a4, [fp, #-16]
20010798:	e5d33000 	ldrb	a4, [a4]
2001079c:	e3530000 	cmp	a4, #0
200107a0:	1affffec 	bne	20010758 <strnlen+0x24>
200107a4:	e51b2010 	ldr	a3, [fp, #-16]
200107a8:	e51b3018 	ldr	a4, [fp, #-24]
200107ac:	e0633002 	rsb	a4, a4, a3
200107b0:	e1a00003 	mov	a1, a4
200107b4:	e24bd00c 	sub	sp, fp, #12
200107b8:	e89da800 	ldm	sp, {fp, sp, pc}

200107bc <strspn>:
200107bc:	e1a0c00d 	mov	ip, sp
200107c0:	e92dd800 	push	{fp, ip, lr, pc}
200107c4:	e24cb004 	sub	fp, ip, #4
200107c8:	e24dd020 	sub	sp, sp, #32
200107cc:	e50b0020 	str	a1, [fp, #-32]
200107d0:	e50b1024 	str	a2, [fp, #-36]	; 0x24
200107d4:	e3a03000 	mov	a4, #0
200107d8:	e50b3010 	str	a4, [fp, #-16]
200107dc:	e51b3020 	ldr	a4, [fp, #-32]
200107e0:	e50b3018 	str	a4, [fp, #-24]
200107e4:	ea00001c 	b	2001085c <strspn+0xa0>
200107e8:	e51b3024 	ldr	a4, [fp, #-36]	; 0x24
200107ec:	e50b3014 	str	a4, [fp, #-20]
200107f0:	ea000008 	b	20010818 <strspn+0x5c>
200107f4:	e51b3018 	ldr	a4, [fp, #-24]
200107f8:	e5d32000 	ldrb	a3, [a4]
200107fc:	e51b3014 	ldr	a4, [fp, #-20]
20010800:	e5d33000 	ldrb	a4, [a4]
20010804:	e1520003 	cmp	a3, a4
20010808:	0a000006 	beq	20010828 <strspn+0x6c>
2001080c:	e51b3014 	ldr	a4, [fp, #-20]
20010810:	e2833001 	add	a4, a4, #1
20010814:	e50b3014 	str	a4, [fp, #-20]
20010818:	e51b3014 	ldr	a4, [fp, #-20]
2001081c:	e5d33000 	ldrb	a4, [a4]
20010820:	e3530000 	cmp	a4, #0
20010824:	1afffff2 	bne	200107f4 <strspn+0x38>
20010828:	e51b3014 	ldr	a4, [fp, #-20]
2001082c:	e5d33000 	ldrb	a4, [a4]
20010830:	e3530000 	cmp	a4, #0
20010834:	1a000002 	bne	20010844 <strspn+0x88>
20010838:	e51b3010 	ldr	a4, [fp, #-16]
2001083c:	e50b3028 	str	a4, [fp, #-40]	; 0x28
20010840:	ea00000b 	b	20010874 <strspn+0xb8>
20010844:	e51b3010 	ldr	a4, [fp, #-16]
20010848:	e2833001 	add	a4, a4, #1
2001084c:	e50b3010 	str	a4, [fp, #-16]
20010850:	e51b3018 	ldr	a4, [fp, #-24]
20010854:	e2833001 	add	a4, a4, #1
20010858:	e50b3018 	str	a4, [fp, #-24]
2001085c:	e51b3018 	ldr	a4, [fp, #-24]
20010860:	e5d33000 	ldrb	a4, [a4]
20010864:	e3530000 	cmp	a4, #0
20010868:	1affffde 	bne	200107e8 <strspn+0x2c>
2001086c:	e51b3010 	ldr	a4, [fp, #-16]
20010870:	e50b3028 	str	a4, [fp, #-40]	; 0x28
20010874:	e51b3028 	ldr	a4, [fp, #-40]	; 0x28
20010878:	e1a00003 	mov	a1, a4
2001087c:	e24bd00c 	sub	sp, fp, #12
20010880:	e89da800 	ldm	sp, {fp, sp, pc}

20010884 <strpbrk>:
20010884:	e1a0c00d 	mov	ip, sp
20010888:	e92dd800 	push	{fp, ip, lr, pc}
2001088c:	e24cb004 	sub	fp, ip, #4
20010890:	e24dd018 	sub	sp, sp, #24
20010894:	e50b0018 	str	a1, [fp, #-24]
20010898:	e50b101c 	str	a2, [fp, #-28]
2001089c:	e51b3018 	ldr	a4, [fp, #-24]
200108a0:	e50b3014 	str	a4, [fp, #-20]
200108a4:	ea000015 	b	20010900 <strpbrk+0x7c>
200108a8:	e51b301c 	ldr	a4, [fp, #-28]
200108ac:	e50b3010 	str	a4, [fp, #-16]
200108b0:	ea00000b 	b	200108e4 <strpbrk+0x60>
200108b4:	e51b3014 	ldr	a4, [fp, #-20]
200108b8:	e5d32000 	ldrb	a3, [a4]
200108bc:	e51b3010 	ldr	a4, [fp, #-16]
200108c0:	e5d33000 	ldrb	a4, [a4]
200108c4:	e1520003 	cmp	a3, a4
200108c8:	1a000002 	bne	200108d8 <strpbrk+0x54>
200108cc:	e51b3014 	ldr	a4, [fp, #-20]
200108d0:	e50b3020 	str	a4, [fp, #-32]
200108d4:	ea00000f 	b	20010918 <strpbrk+0x94>
200108d8:	e51b3010 	ldr	a4, [fp, #-16]
200108dc:	e2833001 	add	a4, a4, #1
200108e0:	e50b3010 	str	a4, [fp, #-16]
200108e4:	e51b3010 	ldr	a4, [fp, #-16]
200108e8:	e5d33000 	ldrb	a4, [a4]
200108ec:	e3530000 	cmp	a4, #0
200108f0:	1affffef 	bne	200108b4 <strpbrk+0x30>
200108f4:	e51b3014 	ldr	a4, [fp, #-20]
200108f8:	e2833001 	add	a4, a4, #1
200108fc:	e50b3014 	str	a4, [fp, #-20]
20010900:	e51b3014 	ldr	a4, [fp, #-20]
20010904:	e5d33000 	ldrb	a4, [a4]
20010908:	e3530000 	cmp	a4, #0
2001090c:	1affffe5 	bne	200108a8 <strpbrk+0x24>
20010910:	e3a03000 	mov	a4, #0
20010914:	e50b3020 	str	a4, [fp, #-32]
20010918:	e51b3020 	ldr	a4, [fp, #-32]
2001091c:	e1a00003 	mov	a1, a4
20010920:	e24bd00c 	sub	sp, fp, #12
20010924:	e89da800 	ldm	sp, {fp, sp, pc}

20010928 <strtok>:
20010928:	e1a0c00d 	mov	ip, sp
2001092c:	e92dd800 	push	{fp, ip, lr, pc}
20010930:	e24cb004 	sub	fp, ip, #4
20010934:	e24dd020 	sub	sp, sp, #32
20010938:	e59f2120 	ldr	a3, [pc, #288]	; 20010a60 <strtok+0x138>
2001093c:	e50b2028 	str	a3, [fp, #-40]	; 0x28
20010940:	e51b3028 	ldr	a4, [fp, #-40]	; 0x28
20010944:	e08f3003 	add	a4, pc, a4
20010948:	e50b3028 	str	a4, [fp, #-40]	; 0x28
2001094c:	e50b0018 	str	a1, [fp, #-24]
20010950:	e50b101c 	str	a2, [fp, #-28]
20010954:	e51b3018 	ldr	a4, [fp, #-24]
20010958:	e3530000 	cmp	a4, #0
2001095c:	0a000002 	beq	2001096c <strtok+0x44>
20010960:	e51b1018 	ldr	a2, [fp, #-24]
20010964:	e50b1024 	str	a2, [fp, #-36]	; 0x24
20010968:	ea000004 	b	20010980 <strtok+0x58>
2001096c:	e59f30f0 	ldr	a4, [pc, #240]	; 20010a64 <strtok+0x13c>
20010970:	e51b2028 	ldr	a3, [fp, #-40]	; 0x28
20010974:	e7923003 	ldr	a4, [a3, a4]
20010978:	e5933000 	ldr	a4, [a4]
2001097c:	e50b3024 	str	a4, [fp, #-36]	; 0x24
20010980:	e51b3024 	ldr	a4, [fp, #-36]	; 0x24
20010984:	e50b3014 	str	a4, [fp, #-20]
20010988:	e51b3014 	ldr	a4, [fp, #-20]
2001098c:	e3530000 	cmp	a4, #0
20010990:	1a000002 	bne	200109a0 <strtok+0x78>
20010994:	e3a01000 	mov	a2, #0
20010998:	e50b1020 	str	a2, [fp, #-32]
2001099c:	ea00002b 	b	20010a50 <strtok+0x128>
200109a0:	e51b0014 	ldr	a1, [fp, #-20]
200109a4:	e51b101c 	ldr	a2, [fp, #-28]
200109a8:	ebffff83 	bl	200107bc <strspn>
200109ac:	e1a02000 	mov	a3, a1
200109b0:	e51b3014 	ldr	a4, [fp, #-20]
200109b4:	e0833002 	add	a4, a4, a3
200109b8:	e50b3014 	str	a4, [fp, #-20]
200109bc:	e51b3014 	ldr	a4, [fp, #-20]
200109c0:	e5d33000 	ldrb	a4, [a4]
200109c4:	e3530000 	cmp	a4, #0
200109c8:	1a000007 	bne	200109ec <strtok+0xc4>
200109cc:	e59f3090 	ldr	a4, [pc, #144]	; 20010a64 <strtok+0x13c>
200109d0:	e51b1028 	ldr	a2, [fp, #-40]	; 0x28
200109d4:	e7912003 	ldr	a3, [a2, a4]
200109d8:	e3a03000 	mov	a4, #0
200109dc:	e5823000 	str	a4, [a3]
200109e0:	e3a02000 	mov	a3, #0
200109e4:	e50b2020 	str	a3, [fp, #-32]
200109e8:	ea000018 	b	20010a50 <strtok+0x128>
200109ec:	e51b0014 	ldr	a1, [fp, #-20]
200109f0:	e51b101c 	ldr	a2, [fp, #-28]
200109f4:	ebffffa2 	bl	20010884 <strpbrk>
200109f8:	e1a03000 	mov	a4, a1
200109fc:	e50b3010 	str	a4, [fp, #-16]
20010a00:	e51b3010 	ldr	a4, [fp, #-16]
20010a04:	e3530000 	cmp	a4, #0
20010a08:	0a000009 	beq	20010a34 <strtok+0x10c>
20010a0c:	e51b3010 	ldr	a4, [fp, #-16]
20010a10:	e5d33000 	ldrb	a4, [a4]
20010a14:	e3530000 	cmp	a4, #0
20010a18:	0a000005 	beq	20010a34 <strtok+0x10c>
20010a1c:	e51b2010 	ldr	a3, [fp, #-16]
20010a20:	e3a03000 	mov	a4, #0
20010a24:	e5c23000 	strb	a4, [a3]
20010a28:	e51b3010 	ldr	a4, [fp, #-16]
20010a2c:	e2833001 	add	a4, a4, #1
20010a30:	e50b3010 	str	a4, [fp, #-16]
20010a34:	e59f3028 	ldr	a4, [pc, #40]	; 20010a64 <strtok+0x13c>
20010a38:	e51b1028 	ldr	a2, [fp, #-40]	; 0x28
20010a3c:	e7912003 	ldr	a3, [a2, a4]
20010a40:	e51b3010 	ldr	a4, [fp, #-16]
20010a44:	e5823000 	str	a4, [a3]
20010a48:	e51b2014 	ldr	a3, [fp, #-20]
20010a4c:	e50b2020 	str	a3, [fp, #-32]
20010a50:	e51b3020 	ldr	a4, [fp, #-32]
20010a54:	e1a00003 	mov	a1, a4
20010a58:	e24bd00c 	sub	sp, fp, #12
20010a5c:	e89da800 	ldm	sp, {fp, sp, pc}
20010a60:	00002e4c 	andeq	a3, a1, ip, asr #28
20010a64:	00000028 	andeq	a1, a1, v5, lsr #32

20010a68 <strsep>:
20010a68:	e1a0c00d 	mov	ip, sp
20010a6c:	e92dd800 	push	{fp, ip, lr, pc}
20010a70:	e24cb004 	sub	fp, ip, #4
20010a74:	e24dd018 	sub	sp, sp, #24
20010a78:	e50b0018 	str	a1, [fp, #-24]
20010a7c:	e50b101c 	str	a2, [fp, #-28]
20010a80:	e51b3018 	ldr	a4, [fp, #-24]
20010a84:	e5933000 	ldr	a4, [a4]
20010a88:	e50b3014 	str	a4, [fp, #-20]
20010a8c:	e51b3014 	ldr	a4, [fp, #-20]
20010a90:	e3530000 	cmp	a4, #0
20010a94:	1a000002 	bne	20010aa4 <strsep+0x3c>
20010a98:	e3a03000 	mov	a4, #0
20010a9c:	e50b3020 	str	a4, [fp, #-32]
20010aa0:	ea000012 	b	20010af0 <strsep+0x88>
20010aa4:	e51b0014 	ldr	a1, [fp, #-20]
20010aa8:	e51b101c 	ldr	a2, [fp, #-28]
20010aac:	ebffff74 	bl	20010884 <strpbrk>
20010ab0:	e1a03000 	mov	a4, a1
20010ab4:	e50b3010 	str	a4, [fp, #-16]
20010ab8:	e51b3010 	ldr	a4, [fp, #-16]
20010abc:	e3530000 	cmp	a4, #0
20010ac0:	0a000005 	beq	20010adc <strsep+0x74>
20010ac4:	e51b2010 	ldr	a3, [fp, #-16]
20010ac8:	e3a03000 	mov	a4, #0
20010acc:	e5c23000 	strb	a4, [a3]
20010ad0:	e51b3010 	ldr	a4, [fp, #-16]
20010ad4:	e2833001 	add	a4, a4, #1
20010ad8:	e50b3010 	str	a4, [fp, #-16]
20010adc:	e51b2018 	ldr	a3, [fp, #-24]
20010ae0:	e51b3010 	ldr	a4, [fp, #-16]
20010ae4:	e5823000 	str	a4, [a3]
20010ae8:	e51b3014 	ldr	a4, [fp, #-20]
20010aec:	e50b3020 	str	a4, [fp, #-32]
20010af0:	e51b3020 	ldr	a4, [fp, #-32]
20010af4:	e1a00003 	mov	a1, a4
20010af8:	e24bd00c 	sub	sp, fp, #12
20010afc:	e89da800 	ldm	sp, {fp, sp, pc}

20010b00 <bcopy>:
20010b00:	e1a0c00d 	mov	ip, sp
20010b04:	e92dd800 	push	{fp, ip, lr, pc}
20010b08:	e24cb004 	sub	fp, ip, #4
20010b0c:	e24dd018 	sub	sp, sp, #24
20010b10:	e50b0018 	str	a1, [fp, #-24]
20010b14:	e50b101c 	str	a2, [fp, #-28]
20010b18:	e50b2020 	str	a3, [fp, #-32]
20010b1c:	e51b301c 	ldr	a4, [fp, #-28]
20010b20:	e50b3010 	str	a4, [fp, #-16]
20010b24:	ea000009 	b	20010b50 <bcopy+0x50>
20010b28:	e51b3018 	ldr	a4, [fp, #-24]
20010b2c:	e5d33000 	ldrb	a4, [a4]
20010b30:	e51b2010 	ldr	a3, [fp, #-16]
20010b34:	e5c23000 	strb	a4, [a3]
20010b38:	e51b3010 	ldr	a4, [fp, #-16]
20010b3c:	e2833001 	add	a4, a4, #1
20010b40:	e50b3010 	str	a4, [fp, #-16]
20010b44:	e51b3018 	ldr	a4, [fp, #-24]
20010b48:	e2833001 	add	a4, a4, #1
20010b4c:	e50b3018 	str	a4, [fp, #-24]
20010b50:	e51b3020 	ldr	a4, [fp, #-32]
20010b54:	e3530000 	cmp	a4, #0
20010b58:	03a03000 	moveq	a4, #0
20010b5c:	13a03001 	movne	a4, #1
20010b60:	e20320ff 	and	a3, a4, #255	; 0xff
20010b64:	e51b3020 	ldr	a4, [fp, #-32]
20010b68:	e2433001 	sub	a4, a4, #1
20010b6c:	e50b3020 	str	a4, [fp, #-32]
20010b70:	e3520000 	cmp	a3, #0
20010b74:	1affffeb 	bne	20010b28 <bcopy+0x28>
20010b78:	e51b301c 	ldr	a4, [fp, #-28]
20010b7c:	e1a00003 	mov	a1, a4
20010b80:	e24bd00c 	sub	sp, fp, #12
20010b84:	e89da800 	ldm	sp, {fp, sp, pc}

20010b88 <memcmp>:
20010b88:	e1a0c00d 	mov	ip, sp
20010b8c:	e92dd800 	push	{fp, ip, lr, pc}
20010b90:	e24cb004 	sub	fp, ip, #4
20010b94:	e24dd020 	sub	sp, sp, #32
20010b98:	e50b0020 	str	a1, [fp, #-32]
20010b9c:	e50b1024 	str	a2, [fp, #-36]	; 0x24
20010ba0:	e50b2028 	str	a3, [fp, #-40]	; 0x28
20010ba4:	e3a03000 	mov	a4, #0
20010ba8:	e50b3010 	str	a4, [fp, #-16]
20010bac:	e51b3020 	ldr	a4, [fp, #-32]
20010bb0:	e50b3018 	str	a4, [fp, #-24]
20010bb4:	e51b3024 	ldr	a4, [fp, #-36]	; 0x24
20010bb8:	e50b3014 	str	a4, [fp, #-20]
20010bbc:	ea000012 	b	20010c0c <memcmp+0x84>
20010bc0:	e51b3018 	ldr	a4, [fp, #-24]
20010bc4:	e5d33000 	ldrb	a4, [a4]
20010bc8:	e1a02003 	mov	a3, a4
20010bcc:	e51b3014 	ldr	a4, [fp, #-20]
20010bd0:	e5d33000 	ldrb	a4, [a4]
20010bd4:	e0633002 	rsb	a4, a4, a3
20010bd8:	e50b3010 	str	a4, [fp, #-16]
20010bdc:	e51b3010 	ldr	a4, [fp, #-16]
20010be0:	e3530000 	cmp	a4, #0
20010be4:	1a00000b 	bne	20010c18 <memcmp+0x90>
20010be8:	e51b3018 	ldr	a4, [fp, #-24]
20010bec:	e2833001 	add	a4, a4, #1
20010bf0:	e50b3018 	str	a4, [fp, #-24]
20010bf4:	e51b3014 	ldr	a4, [fp, #-20]
20010bf8:	e2833001 	add	a4, a4, #1
20010bfc:	e50b3014 	str	a4, [fp, #-20]
20010c00:	e51b3028 	ldr	a4, [fp, #-40]	; 0x28
20010c04:	e2433001 	sub	a4, a4, #1
20010c08:	e50b3028 	str	a4, [fp, #-40]	; 0x28
20010c0c:	e51b3028 	ldr	a4, [fp, #-40]	; 0x28
20010c10:	e3530000 	cmp	a4, #0
20010c14:	1affffe9 	bne	20010bc0 <memcmp+0x38>
20010c18:	e51b3010 	ldr	a4, [fp, #-16]
20010c1c:	e1a00003 	mov	a1, a4
20010c20:	e24bd00c 	sub	sp, fp, #12
20010c24:	e89da800 	ldm	sp, {fp, sp, pc}

20010c28 <memscan>:
20010c28:	e1a0c00d 	mov	ip, sp
20010c2c:	e92dd800 	push	{fp, ip, lr, pc}
20010c30:	e24cb004 	sub	fp, ip, #4
20010c34:	e24dd018 	sub	sp, sp, #24
20010c38:	e50b0018 	str	a1, [fp, #-24]
20010c3c:	e50b101c 	str	a2, [fp, #-28]
20010c40:	e50b2020 	str	a3, [fp, #-32]
20010c44:	e51b3018 	ldr	a4, [fp, #-24]
20010c48:	e50b3010 	str	a4, [fp, #-16]
20010c4c:	ea00000e 	b	20010c8c <memscan+0x64>
20010c50:	e51b3010 	ldr	a4, [fp, #-16]
20010c54:	e5d33000 	ldrb	a4, [a4]
20010c58:	e1a02003 	mov	a3, a4
20010c5c:	e51b301c 	ldr	a4, [fp, #-28]
20010c60:	e1520003 	cmp	a3, a4
20010c64:	1a000002 	bne	20010c74 <memscan+0x4c>
20010c68:	e51b3010 	ldr	a4, [fp, #-16]
20010c6c:	e50b3024 	str	a4, [fp, #-36]	; 0x24
20010c70:	ea00000a 	b	20010ca0 <memscan+0x78>
20010c74:	e51b3010 	ldr	a4, [fp, #-16]
20010c78:	e2833001 	add	a4, a4, #1
20010c7c:	e50b3010 	str	a4, [fp, #-16]
20010c80:	e51b3020 	ldr	a4, [fp, #-32]
20010c84:	e2433001 	sub	a4, a4, #1
20010c88:	e50b3020 	str	a4, [fp, #-32]
20010c8c:	e51b3020 	ldr	a4, [fp, #-32]
20010c90:	e3530000 	cmp	a4, #0
20010c94:	1affffed 	bne	20010c50 <memscan+0x28>
20010c98:	e51b3010 	ldr	a4, [fp, #-16]
20010c9c:	e50b3024 	str	a4, [fp, #-36]	; 0x24
20010ca0:	e51b3024 	ldr	a4, [fp, #-36]	; 0x24
20010ca4:	e1a00003 	mov	a1, a4
20010ca8:	e24bd00c 	sub	sp, fp, #12
20010cac:	e89da800 	ldm	sp, {fp, sp, pc}

20010cb0 <strstr>:
20010cb0:	e1a0c00d 	mov	ip, sp
20010cb4:	e92dd800 	push	{fp, ip, lr, pc}
20010cb8:	e24cb004 	sub	fp, ip, #4
20010cbc:	e24dd018 	sub	sp, sp, #24
20010cc0:	e50b0018 	str	a1, [fp, #-24]
20010cc4:	e50b101c 	str	a2, [fp, #-28]
20010cc8:	e51b001c 	ldr	a1, [fp, #-28]
20010ccc:	ebfffe83 	bl	200106e0 <strlen>
20010cd0:	e1a03000 	mov	a4, a1
20010cd4:	e50b3010 	str	a4, [fp, #-16]
20010cd8:	e51b3010 	ldr	a4, [fp, #-16]
20010cdc:	e3530000 	cmp	a4, #0
20010ce0:	1a000002 	bne	20010cf0 <strstr+0x40>
20010ce4:	e51b3018 	ldr	a4, [fp, #-24]
20010ce8:	e50b3020 	str	a4, [fp, #-32]
20010cec:	ea00001b 	b	20010d60 <strstr+0xb0>
20010cf0:	e51b0018 	ldr	a1, [fp, #-24]
20010cf4:	ebfffe79 	bl	200106e0 <strlen>
20010cf8:	e1a03000 	mov	a4, a1
20010cfc:	e50b3014 	str	a4, [fp, #-20]
20010d00:	ea000010 	b	20010d48 <strstr+0x98>
20010d04:	e51b3014 	ldr	a4, [fp, #-20]
20010d08:	e2433001 	sub	a4, a4, #1
20010d0c:	e50b3014 	str	a4, [fp, #-20]
20010d10:	e51b3010 	ldr	a4, [fp, #-16]
20010d14:	e51b0018 	ldr	a1, [fp, #-24]
20010d18:	e51b101c 	ldr	a2, [fp, #-28]
20010d1c:	e1a02003 	mov	a3, a4
20010d20:	ebffff98 	bl	20010b88 <memcmp>
20010d24:	e1a03000 	mov	a4, a1
20010d28:	e3530000 	cmp	a4, #0
20010d2c:	1a000002 	bne	20010d3c <strstr+0x8c>
20010d30:	e51b3018 	ldr	a4, [fp, #-24]
20010d34:	e50b3020 	str	a4, [fp, #-32]
20010d38:	ea000008 	b	20010d60 <strstr+0xb0>
20010d3c:	e51b3018 	ldr	a4, [fp, #-24]
20010d40:	e2833001 	add	a4, a4, #1
20010d44:	e50b3018 	str	a4, [fp, #-24]
20010d48:	e51b2014 	ldr	a3, [fp, #-20]
20010d4c:	e51b3010 	ldr	a4, [fp, #-16]
20010d50:	e1520003 	cmp	a3, a4
20010d54:	aaffffea 	bge	20010d04 <strstr+0x54>
20010d58:	e3a03000 	mov	a4, #0
20010d5c:	e50b3020 	str	a4, [fp, #-32]
20010d60:	e51b3020 	ldr	a4, [fp, #-32]
20010d64:	e1a00003 	mov	a1, a4
20010d68:	e24bd00c 	sub	sp, fp, #12
20010d6c:	e89da800 	ldm	sp, {fp, sp, pc}

20010d70 <init_thread_id>:
20010d70:	e1a0c00d 	mov	ip, sp
20010d74:	e92dd800 	push	{fp, ip, lr, pc}
20010d78:	e24cb004 	sub	fp, ip, #4
20010d7c:	e59f3014 	ldr	a4, [pc, #20]	; 20010d98 <init_thread_id+0x28>
20010d80:	e08f3003 	add	a4, pc, a4
20010d84:	e59f2010 	ldr	a3, [pc, #16]	; 20010d9c <init_thread_id+0x2c>
20010d88:	e7932002 	ldr	a3, [a4, a3]
20010d8c:	e3a03000 	mov	a4, #0
20010d90:	e5823000 	str	a4, [a3]
20010d94:	e89da800 	ldm	sp, {fp, sp, pc}
20010d98:	00002a10 	andeq	a3, a1, a1, lsl sl
20010d9c:	000000ac 	andeq	a1, a1, ip, lsr #1

20010da0 <pthread_create>:
20010da0:	e1a0c00d 	mov	ip, sp
20010da4:	e92dd800 	push	{fp, ip, lr, pc}
20010da8:	e24cb004 	sub	fp, ip, #4
20010dac:	e24dd028 	sub	sp, sp, #40	; 0x28
20010db0:	e59fc30c 	ldr	ip, [pc, #780]	; 200110c4 <pthread_create+0x324>
20010db4:	e50bc034 	str	ip, [fp, #-52]	; 0x34
20010db8:	e51bc034 	ldr	ip, [fp, #-52]	; 0x34
20010dbc:	e08fc00c 	add	ip, pc, ip
20010dc0:	e50bc034 	str	ip, [fp, #-52]	; 0x34
20010dc4:	e50b0020 	str	a1, [fp, #-32]
20010dc8:	e50b1024 	str	a2, [fp, #-36]	; 0x24
20010dcc:	e50b2028 	str	a3, [fp, #-40]	; 0x28
20010dd0:	e50b302c 	str	a4, [fp, #-44]	; 0x2c
20010dd4:	ebfff459 	bl	2000df40 <vk_scheduler_lock>
20010dd8:	e3a00084 	mov	a1, #132	; 0x84
20010ddc:	ebffe34d 	bl	20009b18 <vk_malloc>
20010de0:	e1a03000 	mov	a4, a1
20010de4:	e50b3014 	str	a4, [fp, #-20]
20010de8:	e51b3014 	ldr	a4, [fp, #-20]
20010dec:	e3530000 	cmp	a4, #0
20010df0:	1a000007 	bne	20010e14 <pthread_create+0x74>
20010df4:	e59f32cc 	ldr	a4, [pc, #716]	; 200110c8 <pthread_create+0x328>
20010df8:	e51b1034 	ldr	a2, [fp, #-52]	; 0x34
20010dfc:	e0813003 	add	a4, a2, a4
20010e00:	e1a00003 	mov	a1, a4
20010e04:	ebffef42 	bl	2000cb14 <printk>
20010e08:	e3a02001 	mov	a3, #1
20010e0c:	e50b2030 	str	a3, [fp, #-48]	; 0x30
20010e10:	ea0000a7 	b	200110b4 <pthread_create+0x314>
20010e14:	e3a00b01 	mov	a1, #1024	; 0x400
20010e18:	ebffe33e 	bl	20009b18 <vk_malloc>
20010e1c:	e1a03000 	mov	a4, a1
20010e20:	e50b3018 	str	a4, [fp, #-24]
20010e24:	e51b3018 	ldr	a4, [fp, #-24]
20010e28:	e3530000 	cmp	a4, #0
20010e2c:	1a000007 	bne	20010e50 <pthread_create+0xb0>
20010e30:	e59f3294 	ldr	a4, [pc, #660]	; 200110cc <pthread_create+0x32c>
20010e34:	e51bc034 	ldr	ip, [fp, #-52]	; 0x34
20010e38:	e08c3003 	add	a4, ip, a4
20010e3c:	e1a00003 	mov	a1, a4
20010e40:	ebffef33 	bl	2000cb14 <printk>
20010e44:	e3a01001 	mov	a2, #1
20010e48:	e50b1030 	str	a2, [fp, #-48]	; 0x30
20010e4c:	ea000098 	b	200110b4 <pthread_create+0x314>
20010e50:	e59f3278 	ldr	a4, [pc, #632]	; 200110d0 <pthread_create+0x330>
20010e54:	e51b2034 	ldr	a3, [fp, #-52]	; 0x34
20010e58:	e7923003 	ldr	a4, [a3, a4]
20010e5c:	e5932000 	ldr	a3, [a4]
20010e60:	e51b3014 	ldr	a4, [fp, #-20]
20010e64:	e5832004 	str	a3, [a4, #4]
20010e68:	e59f3260 	ldr	a4, [pc, #608]	; 200110d0 <pthread_create+0x330>
20010e6c:	e51bc034 	ldr	ip, [fp, #-52]	; 0x34
20010e70:	e79c3003 	ldr	a4, [ip, a4]
20010e74:	e5933000 	ldr	a4, [a4]
20010e78:	e2832001 	add	a3, a4, #1
20010e7c:	e59f324c 	ldr	a4, [pc, #588]	; 200110d0 <pthread_create+0x330>
20010e80:	e51b1034 	ldr	a2, [fp, #-52]	; 0x34
20010e84:	e7913003 	ldr	a4, [a2, a4]
20010e88:	e5832000 	str	a3, [a4]
20010e8c:	e51b2014 	ldr	a3, [fp, #-20]
20010e90:	e3a03001 	mov	a4, #1
20010e94:	e5823000 	str	a4, [a3]
20010e98:	e51b2028 	ldr	a3, [fp, #-40]	; 0x28
20010e9c:	e59f3230 	ldr	a4, [pc, #560]	; 200110d4 <pthread_create+0x334>
20010ea0:	e51bc034 	ldr	ip, [fp, #-52]	; 0x34
20010ea4:	e79c3003 	ldr	a4, [ip, a4]
20010ea8:	e1520003 	cmp	a3, a4
20010eac:	1a000006 	bne	20010ecc <pthread_create+0x12c>
20010eb0:	e51b2014 	ldr	a3, [fp, #-20]
20010eb4:	e3a03000 	mov	a4, #0
20010eb8:	e5823008 	str	a4, [a3, #8]
20010ebc:	e51b2014 	ldr	a3, [fp, #-20]
20010ec0:	e3a03000 	mov	a4, #0
20010ec4:	e582300c 	str	a4, [a3, #12]
20010ec8:	ea000016 	b	20010f28 <pthread_create+0x188>
20010ecc:	e51b3020 	ldr	a4, [fp, #-32]
20010ed0:	e5933000 	ldr	a4, [a4]
20010ed4:	e3530000 	cmp	a4, #0
20010ed8:	0a000003 	beq	20010eec <pthread_create+0x14c>
20010edc:	e51b3020 	ldr	a4, [fp, #-32]
20010ee0:	e5933000 	ldr	a4, [a4]
20010ee4:	e353001f 	cmp	a4, #31
20010ee8:	9a000006 	bls	20010f08 <pthread_create+0x168>
20010eec:	e51b2014 	ldr	a3, [fp, #-20]
20010ef0:	e3a0300f 	mov	a4, #15
20010ef4:	e5823008 	str	a4, [a3, #8]
20010ef8:	e51b2014 	ldr	a3, [fp, #-20]
20010efc:	e3a0300f 	mov	a4, #15
20010f00:	e582300c 	str	a4, [a3, #12]
20010f04:	ea000007 	b	20010f28 <pthread_create+0x188>
20010f08:	e51b3020 	ldr	a4, [fp, #-32]
20010f0c:	e5932000 	ldr	a3, [a4]
20010f10:	e51b3014 	ldr	a4, [fp, #-20]
20010f14:	e5832008 	str	a3, [a4, #8]
20010f18:	e51b3020 	ldr	a4, [fp, #-32]
20010f1c:	e5932000 	ldr	a3, [a4]
20010f20:	e51b3014 	ldr	a4, [fp, #-20]
20010f24:	e583200c 	str	a3, [a4, #12]
20010f28:	e51b2014 	ldr	a3, [fp, #-20]
20010f2c:	e3a03000 	mov	a4, #0
20010f30:	e5823010 	str	a4, [a3, #16]
20010f34:	e51b2014 	ldr	a3, [fp, #-20]
20010f38:	e3a03000 	mov	a4, #0
20010f3c:	e5823018 	str	a4, [a3, #24]
20010f40:	e51b2014 	ldr	a3, [fp, #-20]
20010f44:	e3a03000 	mov	a4, #0
20010f48:	e5823014 	str	a4, [a3, #20]
20010f4c:	e51b2014 	ldr	a3, [fp, #-20]
20010f50:	e3a03000 	mov	a4, #0
20010f54:	e582301c 	str	a4, [a3, #28]
20010f58:	e51b2014 	ldr	a3, [fp, #-20]
20010f5c:	e3a03000 	mov	a4, #0
20010f60:	e5823034 	str	a4, [a3, #52]	; 0x34
20010f64:	e51b2014 	ldr	a3, [fp, #-20]
20010f68:	e3a03000 	mov	a4, #0
20010f6c:	e582302c 	str	a4, [a3, #44]	; 0x2c
20010f70:	e51b2014 	ldr	a3, [fp, #-20]
20010f74:	e3a03000 	mov	a4, #0
20010f78:	e5823030 	str	a4, [a3, #48]	; 0x30
20010f7c:	e51b3014 	ldr	a4, [fp, #-20]
20010f80:	e2832040 	add	a3, a4, #64	; 0x40
20010f84:	e51b3014 	ldr	a4, [fp, #-20]
20010f88:	e5832020 	str	a3, [a4, #32]
20010f8c:	e51b2014 	ldr	a3, [fp, #-20]
20010f90:	e51b3018 	ldr	a4, [fp, #-24]
20010f94:	e5823024 	str	a4, [a3, #36]	; 0x24
20010f98:	e51b2014 	ldr	a3, [fp, #-20]
20010f9c:	e51b3028 	ldr	a4, [fp, #-40]	; 0x28
20010fa0:	e5823028 	str	a4, [a3, #40]	; 0x28
20010fa4:	e51b2014 	ldr	a3, [fp, #-20]
20010fa8:	e3a03000 	mov	a4, #0
20010fac:	e5823038 	str	a4, [a3, #56]	; 0x38
20010fb0:	e51b2014 	ldr	a3, [fp, #-20]
20010fb4:	e3a03000 	mov	a4, #0
20010fb8:	e582303c 	str	a4, [a3, #60]	; 0x3c
20010fbc:	e59f3114 	ldr	a4, [pc, #276]	; 200110d8 <pthread_create+0x338>
20010fc0:	e51b1034 	ldr	a2, [fp, #-52]	; 0x34
20010fc4:	e7913003 	ldr	a4, [a2, a4]
20010fc8:	e5933000 	ldr	a4, [a4]
20010fcc:	e1a02003 	mov	a3, a4
20010fd0:	e51b3014 	ldr	a4, [fp, #-20]
20010fd4:	e5832040 	str	a3, [a4, #64]	; 0x40
20010fd8:	e51b3014 	ldr	a4, [fp, #-20]
20010fdc:	e5933028 	ldr	a4, [a4, #40]	; 0x28
20010fe0:	e1a02003 	mov	a3, a4
20010fe4:	e51b3014 	ldr	a4, [fp, #-20]
20010fe8:	e5832044 	str	a3, [a4, #68]	; 0x44
20010fec:	e51b202c 	ldr	a3, [fp, #-44]	; 0x2c
20010ff0:	e51b3014 	ldr	a4, [fp, #-20]
20010ff4:	e5832048 	str	a3, [a4, #72]	; 0x48
20010ff8:	e3a03000 	mov	a4, #0
20010ffc:	e50b3010 	str	a4, [fp, #-16]
20011000:	ea00000b 	b	20011034 <pthread_create+0x294>
20011004:	e51b3010 	ldr	a4, [fp, #-16]
20011008:	e51b1014 	ldr	a2, [fp, #-20]
2001100c:	e2833012 	add	a4, a4, #18
20011010:	e3a02004 	mov	a3, #4
20011014:	e1a03103 	lsl	a4, a4, #2
20011018:	e0813003 	add	a4, a2, a4
2001101c:	e0832002 	add	a3, a4, a3
20011020:	e3a03000 	mov	a4, #0
20011024:	e5823000 	str	a4, [a3]
20011028:	e51b3010 	ldr	a4, [fp, #-16]
2001102c:	e2833001 	add	a4, a4, #1
20011030:	e50b3010 	str	a4, [fp, #-16]
20011034:	e51b3010 	ldr	a4, [fp, #-16]
20011038:	e353000b 	cmp	a4, #11
2001103c:	9afffff0 	bls	20011004 <pthread_create+0x264>
20011040:	e51b3018 	ldr	a4, [fp, #-24]
20011044:	e2833b01 	add	a4, a4, #1024	; 0x400
20011048:	e1a02003 	mov	a3, a4
2001104c:	e51b3014 	ldr	a4, [fp, #-20]
20011050:	e583207c 	str	a3, [a4, #124]	; 0x7c
20011054:	e59f3080 	ldr	a4, [pc, #128]	; 200110dc <pthread_create+0x33c>
20011058:	e51b2034 	ldr	a3, [fp, #-52]	; 0x34
2001105c:	e7923003 	ldr	a4, [a3, a4]
20011060:	e1a02003 	mov	a3, a4
20011064:	e51b3014 	ldr	a4, [fp, #-20]
20011068:	e5832080 	str	a3, [a4, #128]	; 0x80
2001106c:	e51b2020 	ldr	a3, [fp, #-32]
20011070:	e51b3014 	ldr	a4, [fp, #-20]
20011074:	e5823004 	str	a4, [a3, #4]
20011078:	e51b0014 	ldr	a1, [fp, #-20]
2001107c:	e59f305c 	ldr	a4, [pc, #92]	; 200110e0 <pthread_create+0x340>
20011080:	e51bc034 	ldr	ip, [fp, #-52]	; 0x34
20011084:	e79c3003 	ldr	a4, [ip, a4]
20011088:	e1a01003 	mov	a2, a4
2001108c:	ebfff022 	bl	2000d11c <vk_thread_enqueue>
20011090:	e51b0014 	ldr	a1, [fp, #-20]
20011094:	e59f3048 	ldr	a4, [pc, #72]	; 200110e4 <pthread_create+0x344>
20011098:	e51b1034 	ldr	a2, [fp, #-52]	; 0x34
2001109c:	e7913003 	ldr	a4, [a2, a4]
200110a0:	e1a01003 	mov	a2, a4
200110a4:	ebfff01c 	bl	2000d11c <vk_thread_enqueue>
200110a8:	ebfff3be 	bl	2000dfa8 <vk_scheduler_unlock>
200110ac:	e3a02000 	mov	a3, #0
200110b0:	e50b2030 	str	a3, [fp, #-48]	; 0x30
200110b4:	e51b3030 	ldr	a4, [fp, #-48]	; 0x30
200110b8:	e1a00003 	mov	a1, a4
200110bc:	e24bd00c 	sub	sp, fp, #12
200110c0:	e89da800 	ldm	sp, {fp, sp, pc}
200110c4:	000029d4 	ldrdeq	a3, [a1], -v1
200110c8:	fffffb24 			; <UNDEFINED> instruction: 0xfffffb24
200110cc:	fffffb5c 			; <UNDEFINED> instruction: 0xfffffb5c
200110d0:	000000ac 	andeq	a1, a1, ip, lsr #1
200110d4:	00000060 	andeq	a1, a1, a1, rrx
200110d8:	0000009c 	muleq	a1, ip, a1
200110dc:	00000010 	andeq	a1, a1, a1, lsl a1
200110e0:	00000090 	muleq	a1, a1, a1
200110e4:	00000074 	andeq	a1, a1, v1, ror a1

200110e8 <pthread_exit>:
200110e8:	e1a0c00d 	mov	ip, sp
200110ec:	e92dd810 	push	{v1, fp, ip, lr, pc}
200110f0:	e24cb004 	sub	fp, ip, #4
200110f4:	e24dd00c 	sub	sp, sp, #12
200110f8:	e59f403c 	ldr	v1, [pc, #60]	; 2001113c <pthread_exit+0x54>
200110fc:	e08f4004 	add	v1, pc, v1
20011100:	e50b0018 	str	a1, [fp, #-24]
20011104:	eb000216 	bl	20011964 <vk_timer_irq_disable>
20011108:	e59f3030 	ldr	a4, [pc, #48]	; 20011140 <pthread_exit+0x58>
2001110c:	e7943003 	ldr	a4, [v1, a4]
20011110:	e5932000 	ldr	a3, [a4]
20011114:	e51b3018 	ldr	a4, [fp, #-24]
20011118:	e582301c 	str	a4, [a3, #28]
2001111c:	e59f301c 	ldr	a4, [pc, #28]	; 20011140 <pthread_exit+0x58>
20011120:	e7943003 	ldr	a4, [v1, a4]
20011124:	e5932000 	ldr	a3, [a4]
20011128:	e3a03003 	mov	a4, #3
2001112c:	e5823000 	str	a4, [a3]
20011130:	ebffe1a9 	bl	200097dc <vk_swi_scheduler>
20011134:	e24bd010 	sub	sp, fp, #16
20011138:	e89da810 	ldm	sp, {v1, fp, sp, pc}
2001113c:	00002694 	muleq	a1, v1, v3
20011140:	000000a4 	andeq	a1, a1, v1, lsr #1

20011144 <vk_thread_yield>:
20011144:	e1a0c00d 	mov	ip, sp
20011148:	e92dd800 	push	{fp, ip, lr, pc}
2001114c:	e24cb004 	sub	fp, ip, #4
20011150:	e24dd010 	sub	sp, sp, #16
20011154:	e59f20b8 	ldr	a3, [pc, #184]	; 20011214 <vk_thread_yield+0xd0>
20011158:	e50b2018 	str	a3, [fp, #-24]
2001115c:	e51b3018 	ldr	a4, [fp, #-24]
20011160:	e08f3003 	add	a4, pc, a4
20011164:	e50b3018 	str	a4, [fp, #-24]
20011168:	e59f30a8 	ldr	a4, [pc, #168]	; 20011218 <vk_thread_yield+0xd4>
2001116c:	e51b2018 	ldr	a3, [fp, #-24]
20011170:	e7923003 	ldr	a4, [a3, a4]
20011174:	e5933000 	ldr	a4, [a4]
20011178:	e5933038 	ldr	a4, [a4, #56]	; 0x38
2001117c:	e50b3010 	str	a4, [fp, #-16]
20011180:	e51b3010 	ldr	a4, [fp, #-16]
20011184:	e3530000 	cmp	a4, #0
20011188:	1a000000 	bne	20011190 <vk_thread_yield+0x4c>
2001118c:	ebffe17d 	bl	20009788 <vk_disable_interrupt>
20011190:	e59f3080 	ldr	a4, [pc, #128]	; 20011218 <vk_thread_yield+0xd4>
20011194:	e51b2018 	ldr	a3, [fp, #-24]
20011198:	e7923003 	ldr	a4, [a3, a4]
2001119c:	e5932000 	ldr	a3, [a4]
200111a0:	e3a03002 	mov	a4, #2
200111a4:	e5823000 	str	a4, [a3]
200111a8:	e59f3068 	ldr	a4, [pc, #104]	; 20011218 <vk_thread_yield+0xd4>
200111ac:	e51b2018 	ldr	a3, [fp, #-24]
200111b0:	e7923003 	ldr	a4, [a3, a4]
200111b4:	e5933000 	ldr	a4, [a4]
200111b8:	e1a00003 	mov	a1, a4
200111bc:	e59f3058 	ldr	a4, [pc, #88]	; 2001121c <vk_thread_yield+0xd8>
200111c0:	e51b2018 	ldr	a3, [fp, #-24]
200111c4:	e7923003 	ldr	a4, [a3, a4]
200111c8:	e1a01003 	mov	a2, a4
200111cc:	ebffefd2 	bl	2000d11c <vk_thread_enqueue>
200111d0:	e59f3040 	ldr	a4, [pc, #64]	; 20011218 <vk_thread_yield+0xd4>
200111d4:	e51b2018 	ldr	a3, [fp, #-24]
200111d8:	e7923003 	ldr	a4, [a3, a4]
200111dc:	e5933000 	ldr	a4, [a4]
200111e0:	e1a00003 	mov	a1, a4
200111e4:	e59f3034 	ldr	a4, [pc, #52]	; 20011220 <vk_thread_yield+0xdc>
200111e8:	e51b2018 	ldr	a3, [fp, #-24]
200111ec:	e7923003 	ldr	a4, [a3, a4]
200111f0:	e1a01003 	mov	a2, a4
200111f4:	ebfff036 	bl	2000d2d4 <vk_thread_dequeue>
200111f8:	ebffe177 	bl	200097dc <vk_swi_scheduler>
200111fc:	e51b3010 	ldr	a4, [fp, #-16]
20011200:	e3530000 	cmp	a4, #0
20011204:	1a000000 	bne	2001120c <vk_thread_yield+0xc8>
20011208:	ebffe149 	bl	20009734 <vk_enable_interrupt>
2001120c:	e24bd00c 	sub	sp, fp, #12
20011210:	e89da800 	ldm	sp, {fp, sp, pc}
20011214:	00002630 	andeq	a3, a1, a1, lsr v3
20011218:	000000a4 	andeq	a1, a1, v1, lsr #1
2001121c:	000000b0 	strheq	a1, [a1], -a1	; <UNPREDICTABLE>
20011220:	00000074 	andeq	a1, a1, v1, ror a1

20011224 <pthread_join>:
20011224:	e1a0c00d 	mov	ip, sp
20011228:	e92dd800 	push	{fp, ip, lr, pc}
2001122c:	e24cb004 	sub	fp, ip, #4
20011230:	e24dd020 	sub	sp, sp, #32
20011234:	e59f318c 	ldr	a4, [pc, #396]	; 200113c8 <pthread_join+0x1a4>
20011238:	e50b3028 	str	a4, [fp, #-40]	; 0x28
2001123c:	e51bc028 	ldr	ip, [fp, #-40]	; 0x28
20011240:	e08fc00c 	add	ip, pc, ip
20011244:	e50bc028 	str	ip, [fp, #-40]	; 0x28
20011248:	e24b301c 	sub	a4, fp, #28
2001124c:	e8830003 	stm	a4, {a1, a2}
20011250:	e50b2020 	str	a3, [fp, #-32]
20011254:	e51b3018 	ldr	a4, [fp, #-24]
20011258:	e50b3010 	str	a4, [fp, #-16]
2001125c:	e51b3010 	ldr	a4, [fp, #-16]
20011260:	e5933000 	ldr	a4, [a4]
20011264:	e3530003 	cmp	a4, #3
20011268:	0a000050 	beq	200113b0 <pthread_join+0x18c>
2001126c:	e3a03000 	mov	a4, #0
20011270:	e50b3014 	str	a4, [fp, #-20]
20011274:	ea00004a 	b	200113a4 <pthread_join+0x180>
20011278:	e51b2014 	ldr	a3, [fp, #-20]
2001127c:	e59f3148 	ldr	a4, [pc, #328]	; 200113cc <pthread_join+0x1a8>
20011280:	e51b0028 	ldr	a1, [fp, #-40]	; 0x28
20011284:	e7901003 	ldr	a2, [a1, a4]
20011288:	e1a03002 	mov	a4, a3
2001128c:	e1a02103 	lsl	a3, a4, #2
20011290:	e1a03102 	lsl	a4, a3, #2
20011294:	e0623003 	rsb	a4, a3, a4
20011298:	e0813003 	add	a4, a2, a4
2001129c:	e5933000 	ldr	a4, [a4]
200112a0:	e3530000 	cmp	a4, #0
200112a4:	1a00003b 	bne	20011398 <pthread_join+0x174>
200112a8:	e51b2014 	ldr	a3, [fp, #-20]
200112ac:	e59f3118 	ldr	a4, [pc, #280]	; 200113cc <pthread_join+0x1a8>
200112b0:	e51bc028 	ldr	ip, [fp, #-40]	; 0x28
200112b4:	e79c1003 	ldr	a2, [ip, a4]
200112b8:	e1a03002 	mov	a4, a3
200112bc:	e1a02103 	lsl	a3, a4, #2
200112c0:	e1a03102 	lsl	a4, a3, #2
200112c4:	e0623003 	rsb	a4, a3, a4
200112c8:	e0812003 	add	a3, a2, a4
200112cc:	e3a03001 	mov	a4, #1
200112d0:	e5823000 	str	a4, [a3]
200112d4:	e51b2014 	ldr	a3, [fp, #-20]
200112d8:	e59f30ec 	ldr	a4, [pc, #236]	; 200113cc <pthread_join+0x1a8>
200112dc:	e51b0028 	ldr	a1, [fp, #-40]	; 0x28
200112e0:	e7901003 	ldr	a2, [a1, a4]
200112e4:	e3a00004 	mov	a1, #4
200112e8:	e1a03002 	mov	a4, a3
200112ec:	e1a02103 	lsl	a3, a4, #2
200112f0:	e1a03102 	lsl	a4, a3, #2
200112f4:	e0623003 	rsb	a4, a3, a4
200112f8:	e0813003 	add	a4, a2, a4
200112fc:	e0832000 	add	a3, a4, a1
20011300:	e51b3010 	ldr	a4, [fp, #-16]
20011304:	e5823000 	str	a4, [a3]
20011308:	e51b2014 	ldr	a3, [fp, #-20]
2001130c:	e59f30bc 	ldr	a4, [pc, #188]	; 200113d0 <pthread_join+0x1ac>
20011310:	e51b1028 	ldr	a2, [fp, #-40]	; 0x28
20011314:	e7913003 	ldr	a4, [a2, a4]
20011318:	e5931000 	ldr	a2, [a4]
2001131c:	e59f30a8 	ldr	a4, [pc, #168]	; 200113cc <pthread_join+0x1a8>
20011320:	e51bc028 	ldr	ip, [fp, #-40]	; 0x28
20011324:	e79c0003 	ldr	a1, [ip, a4]
20011328:	e3a0c008 	mov	ip, #8
2001132c:	e1a03002 	mov	a4, a3
20011330:	e1a02103 	lsl	a3, a4, #2
20011334:	e1a03102 	lsl	a4, a3, #2
20011338:	e0623003 	rsb	a4, a3, a4
2001133c:	e0803003 	add	a4, a1, a4
20011340:	e083300c 	add	a4, a4, ip
20011344:	e5831000 	str	a2, [a4]
20011348:	e59f3080 	ldr	a4, [pc, #128]	; 200113d0 <pthread_join+0x1ac>
2001134c:	e51b0028 	ldr	a1, [fp, #-40]	; 0x28
20011350:	e7903003 	ldr	a4, [a1, a4]
20011354:	e5933000 	ldr	a4, [a4]
20011358:	e1a00003 	mov	a1, a4
2001135c:	e59f3070 	ldr	a4, [pc, #112]	; 200113d4 <pthread_join+0x1b0>
20011360:	e51b1028 	ldr	a2, [fp, #-40]	; 0x28
20011364:	e7913003 	ldr	a4, [a2, a4]
20011368:	e1a01003 	mov	a2, a4
2001136c:	ebffefd8 	bl	2000d2d4 <vk_thread_dequeue>
20011370:	e59f3058 	ldr	a4, [pc, #88]	; 200113d0 <pthread_join+0x1ac>
20011374:	e51b2028 	ldr	a3, [fp, #-40]	; 0x28
20011378:	e7923003 	ldr	a4, [a3, a4]
2001137c:	e5932000 	ldr	a3, [a4]
20011380:	e3a03002 	mov	a4, #2
20011384:	e5823000 	str	a4, [a3]
20011388:	ebffe113 	bl	200097dc <vk_swi_scheduler>
2001138c:	e3a03000 	mov	a4, #0
20011390:	e50b3024 	str	a4, [fp, #-36]	; 0x24
20011394:	ea000007 	b	200113b8 <pthread_join+0x194>
20011398:	e51b3014 	ldr	a4, [fp, #-20]
2001139c:	e2833001 	add	a4, a4, #1
200113a0:	e50b3014 	str	a4, [fp, #-20]
200113a4:	e51b3014 	ldr	a4, [fp, #-20]
200113a8:	e3530009 	cmp	a4, #9
200113ac:	9affffb1 	bls	20011278 <pthread_join+0x54>
200113b0:	e3a0c000 	mov	ip, #0
200113b4:	e50bc024 	str	ip, [fp, #-36]	; 0x24
200113b8:	e51b3024 	ldr	a4, [fp, #-36]	; 0x24
200113bc:	e1a00003 	mov	a1, a4
200113c0:	e24bd00c 	sub	sp, fp, #12
200113c4:	e89da800 	ldm	sp, {fp, sp, pc}
200113c8:	00002550 	andeq	a3, a1, a1, asr v2
200113cc:	000000bc 	strheq	a1, [a1], -ip
200113d0:	000000a4 	andeq	a1, a1, v1, lsr #1
200113d4:	00000074 	andeq	a1, a1, v1, ror a1

200113d8 <ctime>:
200113d8:	e1a0c00d 	mov	ip, sp
200113dc:	e92dd800 	push	{fp, ip, lr, pc}
200113e0:	e24cb004 	sub	fp, ip, #4
200113e4:	e24dd098 	sub	sp, sp, #152	; 0x98
200113e8:	e59f13d4 	ldr	a2, [pc, #980]	; 200117c4 <ctime+0x3ec>
200113ec:	e50b10a4 	str	a2, [fp, #-164]	; 0xa4
200113f0:	e51b20a4 	ldr	a3, [fp, #-164]	; 0xa4
200113f4:	e08f2002 	add	a3, pc, a3
200113f8:	e50b20a4 	str	a3, [fp, #-164]	; 0xa4
200113fc:	e50b00a0 	str	a1, [fp, #-160]	; 0xa0
20011400:	e3a03000 	mov	a4, #0
20011404:	e50b3010 	str	a4, [fp, #-16]
20011408:	e59f33b8 	ldr	a4, [pc, #952]	; 200117c8 <ctime+0x3f0>
2001140c:	e51b00a4 	ldr	a1, [fp, #-164]	; 0xa4
20011410:	e0803003 	add	a4, a1, a4
20011414:	e24be04c 	sub	lr, fp, #76	; 0x4c
20011418:	e1a0c003 	mov	ip, a4
2001141c:	e8bc000f 	ldm	ip!, {a1, a2, a3, a4}
20011420:	e8ae000f 	stmia	lr!, {a1, a2, a3, a4}
20011424:	e89c000f 	ldm	ip, {a1, a2, a3, a4}
20011428:	e88e000f 	stm	lr, {a1, a2, a3, a4}
2001142c:	e59f3398 	ldr	a4, [pc, #920]	; 200117cc <ctime+0x3f4>
20011430:	e51b10a4 	ldr	a2, [fp, #-164]	; 0xa4
20011434:	e0813003 	add	a4, a2, a4
20011438:	e24b209c 	sub	a3, fp, #156	; 0x9c
2001143c:	e3a0c050 	mov	ip, #80	; 0x50
20011440:	e1a00002 	mov	a1, a3
20011444:	e1a01003 	mov	a2, a4
20011448:	e1a0200c 	mov	a3, ip
2001144c:	eb00050f 	bl	20012890 <memcpy>
20011450:	e24b302c 	sub	a4, fp, #44	; 0x2c
20011454:	e1a00003 	mov	a1, a4
20011458:	ebfff0b2 	bl	2000d728 <vh_gettime>
2001145c:	e51b3020 	ldr	a4, [fp, #-32]
20011460:	e3e0203f 	mvn	a3, #63	; 0x3f
20011464:	e1a03103 	lsl	a4, a4, #2
20011468:	e24b000c 	sub	a1, fp, #12
2001146c:	e0803003 	add	a4, a1, a4
20011470:	e0833002 	add	a4, a4, a3
20011474:	e5932000 	ldr	a3, [a4]
20011478:	e59f3350 	ldr	a4, [pc, #848]	; 200117d0 <ctime+0x3f8>
2001147c:	e51b10a4 	ldr	a2, [fp, #-164]	; 0xa4
20011480:	e7913003 	ldr	a4, [a2, a4]
20011484:	e1a00003 	mov	a1, a4
20011488:	e1a01002 	mov	a2, a3
2001148c:	ebfffb91 	bl	200102d8 <strcpy>
20011490:	e51b3020 	ldr	a4, [fp, #-32]
20011494:	e3e0203f 	mvn	a3, #63	; 0x3f
20011498:	e1a03103 	lsl	a4, a4, #2
2001149c:	e24b000c 	sub	a1, fp, #12
200114a0:	e0803003 	add	a4, a1, a4
200114a4:	e0833002 	add	a4, a4, a3
200114a8:	e5933000 	ldr	a4, [a4]
200114ac:	e1a00003 	mov	a1, a4
200114b0:	ebfffc8a 	bl	200106e0 <strlen>
200114b4:	e1a03000 	mov	a4, a1
200114b8:	e50b3010 	str	a4, [fp, #-16]
200114bc:	e51b1010 	ldr	a2, [fp, #-16]
200114c0:	e59f3308 	ldr	a4, [pc, #776]	; 200117d0 <ctime+0x3f8>
200114c4:	e51b00a4 	ldr	a1, [fp, #-164]	; 0xa4
200114c8:	e7902003 	ldr	a3, [a1, a4]
200114cc:	e3a03020 	mov	a4, #32
200114d0:	e7c23001 	strb	a4, [a3, a2]
200114d4:	e51b3010 	ldr	a4, [fp, #-16]
200114d8:	e2833001 	add	a4, a4, #1
200114dc:	e50b3010 	str	a4, [fp, #-16]
200114e0:	e51b2010 	ldr	a3, [fp, #-16]
200114e4:	e59f32e4 	ldr	a4, [pc, #740]	; 200117d0 <ctime+0x3f8>
200114e8:	e51b10a4 	ldr	a2, [fp, #-164]	; 0xa4
200114ec:	e7913003 	ldr	a4, [a2, a4]
200114f0:	e0821003 	add	a2, a3, a4
200114f4:	e51b3028 	ldr	a4, [fp, #-40]	; 0x28
200114f8:	e3e0208f 	mvn	a3, #143	; 0x8f
200114fc:	e1a03103 	lsl	a4, a4, #2
20011500:	e24b000c 	sub	a1, fp, #12
20011504:	e0803003 	add	a4, a1, a4
20011508:	e0833002 	add	a4, a4, a3
2001150c:	e5933000 	ldr	a4, [a4]
20011510:	e1a00001 	mov	a1, a2
20011514:	e1a01003 	mov	a2, a4
20011518:	ebfffb6e 	bl	200102d8 <strcpy>
2001151c:	e51b3028 	ldr	a4, [fp, #-40]	; 0x28
20011520:	e3e0208f 	mvn	a3, #143	; 0x8f
20011524:	e1a03103 	lsl	a4, a4, #2
20011528:	e24b100c 	sub	a2, fp, #12
2001152c:	e0813003 	add	a4, a2, a4
20011530:	e0833002 	add	a4, a4, a3
20011534:	e5933000 	ldr	a4, [a4]
20011538:	e1a00003 	mov	a1, a4
2001153c:	ebfffc67 	bl	200106e0 <strlen>
20011540:	e1a02000 	mov	a3, a1
20011544:	e51b3010 	ldr	a4, [fp, #-16]
20011548:	e0823003 	add	a4, a3, a4
2001154c:	e50b3010 	str	a4, [fp, #-16]
20011550:	e51b1010 	ldr	a2, [fp, #-16]
20011554:	e59f3274 	ldr	a4, [pc, #628]	; 200117d0 <ctime+0x3f8>
20011558:	e51b00a4 	ldr	a1, [fp, #-164]	; 0xa4
2001155c:	e7902003 	ldr	a3, [a1, a4]
20011560:	e3a03020 	mov	a4, #32
20011564:	e7c23001 	strb	a4, [a3, a2]
20011568:	e51b3010 	ldr	a4, [fp, #-16]
2001156c:	e2833001 	add	a4, a4, #1
20011570:	e50b3010 	str	a4, [fp, #-16]
20011574:	e51b3024 	ldr	a4, [fp, #-36]	; 0x24
20011578:	e1a01003 	mov	a2, a4
2001157c:	e51b2010 	ldr	a3, [fp, #-16]
20011580:	e59f3248 	ldr	a4, [pc, #584]	; 200117d0 <ctime+0x3f8>
20011584:	e51b00a4 	ldr	a1, [fp, #-164]	; 0xa4
20011588:	e7903003 	ldr	a4, [a1, a4]
2001158c:	e0823003 	add	a4, a3, a4
20011590:	e1a00001 	mov	a1, a2
20011594:	e1a01003 	mov	a2, a4
20011598:	ebfff857 	bl	2000f6fc <itoa16>
2001159c:	e51b3024 	ldr	a4, [fp, #-36]	; 0x24
200115a0:	e20330f0 	and	a4, a4, #240	; 0xf0
200115a4:	e3530000 	cmp	a4, #0
200115a8:	0a000003 	beq	200115bc <ctime+0x1e4>
200115ac:	e51b3010 	ldr	a4, [fp, #-16]
200115b0:	e2833002 	add	a4, a4, #2
200115b4:	e50b3010 	str	a4, [fp, #-16]
200115b8:	ea000002 	b	200115c8 <ctime+0x1f0>
200115bc:	e51b3010 	ldr	a4, [fp, #-16]
200115c0:	e2833001 	add	a4, a4, #1
200115c4:	e50b3010 	str	a4, [fp, #-16]
200115c8:	e51b1010 	ldr	a2, [fp, #-16]
200115cc:	e59f31fc 	ldr	a4, [pc, #508]	; 200117d0 <ctime+0x3f8>
200115d0:	e51b00a4 	ldr	a1, [fp, #-164]	; 0xa4
200115d4:	e7902003 	ldr	a3, [a1, a4]
200115d8:	e3a03020 	mov	a4, #32
200115dc:	e7c23001 	strb	a4, [a3, a2]
200115e0:	e51b3010 	ldr	a4, [fp, #-16]
200115e4:	e2833001 	add	a4, a4, #1
200115e8:	e50b3010 	str	a4, [fp, #-16]
200115ec:	e51b301c 	ldr	a4, [fp, #-28]
200115f0:	e1a01003 	mov	a2, a4
200115f4:	e51b2010 	ldr	a3, [fp, #-16]
200115f8:	e59f31d0 	ldr	a4, [pc, #464]	; 200117d0 <ctime+0x3f8>
200115fc:	e51b00a4 	ldr	a1, [fp, #-164]	; 0xa4
20011600:	e7903003 	ldr	a4, [a1, a4]
20011604:	e0823003 	add	a4, a3, a4
20011608:	e1a00001 	mov	a1, a2
2001160c:	e1a01003 	mov	a2, a4
20011610:	ebfff839 	bl	2000f6fc <itoa16>
20011614:	e51b301c 	ldr	a4, [fp, #-28]
20011618:	e20330f0 	and	a4, a4, #240	; 0xf0
2001161c:	e3530000 	cmp	a4, #0
20011620:	0a000003 	beq	20011634 <ctime+0x25c>
20011624:	e51b3010 	ldr	a4, [fp, #-16]
20011628:	e2833002 	add	a4, a4, #2
2001162c:	e50b3010 	str	a4, [fp, #-16]
20011630:	ea000002 	b	20011640 <ctime+0x268>
20011634:	e51b3010 	ldr	a4, [fp, #-16]
20011638:	e2833001 	add	a4, a4, #1
2001163c:	e50b3010 	str	a4, [fp, #-16]
20011640:	e51b1010 	ldr	a2, [fp, #-16]
20011644:	e59f3184 	ldr	a4, [pc, #388]	; 200117d0 <ctime+0x3f8>
20011648:	e51b00a4 	ldr	a1, [fp, #-164]	; 0xa4
2001164c:	e7902003 	ldr	a3, [a1, a4]
20011650:	e3a0303a 	mov	a4, #58	; 0x3a
20011654:	e7c23001 	strb	a4, [a3, a2]
20011658:	e51b3010 	ldr	a4, [fp, #-16]
2001165c:	e2833001 	add	a4, a4, #1
20011660:	e50b3010 	str	a4, [fp, #-16]
20011664:	e51b3018 	ldr	a4, [fp, #-24]
20011668:	e1a01003 	mov	a2, a4
2001166c:	e51b2010 	ldr	a3, [fp, #-16]
20011670:	e59f3158 	ldr	a4, [pc, #344]	; 200117d0 <ctime+0x3f8>
20011674:	e51b00a4 	ldr	a1, [fp, #-164]	; 0xa4
20011678:	e7903003 	ldr	a4, [a1, a4]
2001167c:	e0823003 	add	a4, a3, a4
20011680:	e1a00001 	mov	a1, a2
20011684:	e1a01003 	mov	a2, a4
20011688:	ebfff81b 	bl	2000f6fc <itoa16>
2001168c:	e51b3018 	ldr	a4, [fp, #-24]
20011690:	e20330f0 	and	a4, a4, #240	; 0xf0
20011694:	e3530000 	cmp	a4, #0
20011698:	0a000003 	beq	200116ac <ctime+0x2d4>
2001169c:	e51b3010 	ldr	a4, [fp, #-16]
200116a0:	e2833002 	add	a4, a4, #2
200116a4:	e50b3010 	str	a4, [fp, #-16]
200116a8:	ea000002 	b	200116b8 <ctime+0x2e0>
200116ac:	e51b3010 	ldr	a4, [fp, #-16]
200116b0:	e2833001 	add	a4, a4, #1
200116b4:	e50b3010 	str	a4, [fp, #-16]
200116b8:	e51b1010 	ldr	a2, [fp, #-16]
200116bc:	e59f310c 	ldr	a4, [pc, #268]	; 200117d0 <ctime+0x3f8>
200116c0:	e51b00a4 	ldr	a1, [fp, #-164]	; 0xa4
200116c4:	e7902003 	ldr	a3, [a1, a4]
200116c8:	e3a0303a 	mov	a4, #58	; 0x3a
200116cc:	e7c23001 	strb	a4, [a3, a2]
200116d0:	e51b3010 	ldr	a4, [fp, #-16]
200116d4:	e2833001 	add	a4, a4, #1
200116d8:	e50b3010 	str	a4, [fp, #-16]
200116dc:	e51b3014 	ldr	a4, [fp, #-20]
200116e0:	e1a01003 	mov	a2, a4
200116e4:	e51b2010 	ldr	a3, [fp, #-16]
200116e8:	e59f30e0 	ldr	a4, [pc, #224]	; 200117d0 <ctime+0x3f8>
200116ec:	e51b00a4 	ldr	a1, [fp, #-164]	; 0xa4
200116f0:	e7903003 	ldr	a4, [a1, a4]
200116f4:	e0823003 	add	a4, a3, a4
200116f8:	e1a00001 	mov	a1, a2
200116fc:	e1a01003 	mov	a2, a4
20011700:	ebfff7fd 	bl	2000f6fc <itoa16>
20011704:	e51b3014 	ldr	a4, [fp, #-20]
20011708:	e20330f0 	and	a4, a4, #240	; 0xf0
2001170c:	e3530000 	cmp	a4, #0
20011710:	0a000003 	beq	20011724 <ctime+0x34c>
20011714:	e51b3010 	ldr	a4, [fp, #-16]
20011718:	e2833002 	add	a4, a4, #2
2001171c:	e50b3010 	str	a4, [fp, #-16]
20011720:	ea000002 	b	20011730 <ctime+0x358>
20011724:	e51b3010 	ldr	a4, [fp, #-16]
20011728:	e2833001 	add	a4, a4, #1
2001172c:	e50b3010 	str	a4, [fp, #-16]
20011730:	e51b1010 	ldr	a2, [fp, #-16]
20011734:	e59f3094 	ldr	a4, [pc, #148]	; 200117d0 <ctime+0x3f8>
20011738:	e51b00a4 	ldr	a1, [fp, #-164]	; 0xa4
2001173c:	e7902003 	ldr	a3, [a1, a4]
20011740:	e3a03020 	mov	a4, #32
20011744:	e7c23001 	strb	a4, [a3, a2]
20011748:	e51b3010 	ldr	a4, [fp, #-16]
2001174c:	e2833001 	add	a4, a4, #1
20011750:	e50b3010 	str	a4, [fp, #-16]
20011754:	e51b302c 	ldr	a4, [fp, #-44]	; 0x2c
20011758:	e1a01003 	mov	a2, a4
2001175c:	e51b2010 	ldr	a3, [fp, #-16]
20011760:	e59f3068 	ldr	a4, [pc, #104]	; 200117d0 <ctime+0x3f8>
20011764:	e51b00a4 	ldr	a1, [fp, #-164]	; 0xa4
20011768:	e7903003 	ldr	a4, [a1, a4]
2001176c:	e0823003 	add	a4, a3, a4
20011770:	e1a00001 	mov	a1, a2
20011774:	e1a01003 	mov	a2, a4
20011778:	ebfff7df 	bl	2000f6fc <itoa16>
2001177c:	e51b3010 	ldr	a4, [fp, #-16]
20011780:	e2833004 	add	a4, a4, #4
20011784:	e50b3010 	str	a4, [fp, #-16]
20011788:	e51b3010 	ldr	a4, [fp, #-16]
2001178c:	e2833001 	add	a4, a4, #1
20011790:	e50b3010 	str	a4, [fp, #-16]
20011794:	e51b1010 	ldr	a2, [fp, #-16]
20011798:	e59f3030 	ldr	a4, [pc, #48]	; 200117d0 <ctime+0x3f8>
2001179c:	e51b00a4 	ldr	a1, [fp, #-164]	; 0xa4
200117a0:	e7902003 	ldr	a3, [a1, a4]
200117a4:	e3a03000 	mov	a4, #0
200117a8:	e7c23001 	strb	a4, [a3, a2]
200117ac:	e59f301c 	ldr	a4, [pc, #28]	; 200117d0 <ctime+0x3f8>
200117b0:	e51b10a4 	ldr	a2, [fp, #-164]	; 0xa4
200117b4:	e7913003 	ldr	a4, [a2, a4]
200117b8:	e1a00003 	mov	a1, a4
200117bc:	e24bd00c 	sub	sp, fp, #12
200117c0:	e89da800 	ldm	sp, {fp, sp, pc}
200117c4:	0000239c 	muleq	a1, ip, a4
200117c8:	ffffffe0 			; <UNDEFINED> instruction: 0xffffffe0
200117cc:	ffffff90 			; <UNDEFINED> instruction: 0xffffff90
200117d0:	00000098 	muleq	a1, v5, a1

200117d4 <mk_time>:
200117d4:	e1a0c00d 	mov	ip, sp
200117d8:	e92dd800 	push	{fp, ip, lr, pc}
200117dc:	e24cb004 	sub	fp, ip, #4
200117e0:	e24dd010 	sub	sp, sp, #16
200117e4:	e50b0018 	str	a1, [fp, #-24]
200117e8:	e51b3018 	ldr	a4, [fp, #-24]
200117ec:	e50b3010 	str	a4, [fp, #-16]
200117f0:	e51b0010 	ldr	a1, [fp, #-16]
200117f4:	ebfff005 	bl	2000d810 <vh_settime>
200117f8:	e3a03000 	mov	a4, #0
200117fc:	e1a00003 	mov	a1, a4
20011800:	e24bd00c 	sub	sp, fp, #12
20011804:	e89da800 	ldm	sp, {fp, sp, pc}

20011808 <sleep>:
20011808:	e1a0c00d 	mov	ip, sp
2001180c:	e92dd800 	push	{fp, ip, lr, pc}
20011810:	e24cb004 	sub	fp, ip, #4
20011814:	e24dd010 	sub	sp, sp, #16
20011818:	e59f1120 	ldr	a2, [pc, #288]	; 20011940 <sleep+0x138>
2001181c:	e08f1001 	add	a2, pc, a2
20011820:	e50b0018 	str	a1, [fp, #-24]
20011824:	e51b3018 	ldr	a4, [fp, #-24]
20011828:	e50b3010 	str	a4, [fp, #-16]
2001182c:	e59f3110 	ldr	a4, [pc, #272]	; 20011944 <sleep+0x13c>
20011830:	e7913003 	ldr	a4, [a2, a4]
20011834:	e5933000 	ldr	a4, [a4]
20011838:	e5932004 	ldr	a3, [a4, #4]
2001183c:	e59f3104 	ldr	a4, [pc, #260]	; 20011948 <sleep+0x140>
20011840:	e7910003 	ldr	a1, [a2, a4]
20011844:	e3a0c004 	mov	ip, #4
20011848:	e1a03002 	mov	a4, a3
2001184c:	e1a02103 	lsl	a3, a4, #2
20011850:	e1a03102 	lsl	a4, a3, #2
20011854:	e0623003 	rsb	a4, a3, a4
20011858:	e0803003 	add	a4, a1, a4
2001185c:	e083200c 	add	a3, a4, ip
20011860:	e3a03002 	mov	a4, #2
20011864:	e5823000 	str	a4, [a3]
20011868:	e59f30d4 	ldr	a4, [pc, #212]	; 20011944 <sleep+0x13c>
2001186c:	e7913003 	ldr	a4, [a2, a4]
20011870:	e5933000 	ldr	a4, [a4]
20011874:	e5932004 	ldr	a3, [a4, #4]
20011878:	e51bc010 	ldr	ip, [fp, #-16]
2001187c:	e59f30c4 	ldr	a4, [pc, #196]	; 20011948 <sleep+0x140>
20011880:	e7910003 	ldr	a1, [a2, a4]
20011884:	e1a03002 	mov	a4, a3
20011888:	e1a02103 	lsl	a3, a4, #2
2001188c:	e1a03102 	lsl	a4, a3, #2
20011890:	e0623003 	rsb	a4, a3, a4
20011894:	e0803003 	add	a4, a1, a4
20011898:	e583c000 	str	ip, [a4]
2001189c:	e59f30a0 	ldr	a4, [pc, #160]	; 20011944 <sleep+0x13c>
200118a0:	e7913003 	ldr	a4, [a2, a4]
200118a4:	e5933000 	ldr	a4, [a4]
200118a8:	e5932004 	ldr	a3, [a4, #4]
200118ac:	e59f3090 	ldr	a4, [pc, #144]	; 20011944 <sleep+0x13c>
200118b0:	e7913003 	ldr	a4, [a2, a4]
200118b4:	e5930000 	ldr	a1, [a4]
200118b8:	e59f3088 	ldr	a4, [pc, #136]	; 20011948 <sleep+0x140>
200118bc:	e791c003 	ldr	ip, [a2, a4]
200118c0:	e3a0e008 	mov	lr, #8
200118c4:	e1a03002 	mov	a4, a3
200118c8:	e1a02103 	lsl	a3, a4, #2
200118cc:	e1a03102 	lsl	a4, a3, #2
200118d0:	e0623003 	rsb	a4, a3, a4
200118d4:	e08c3003 	add	a4, ip, a4
200118d8:	e083300e 	add	a4, a4, lr
200118dc:	e5830000 	str	a1, [a4]
200118e0:	e59f3064 	ldr	a4, [pc, #100]	; 2001194c <sleep+0x144>
200118e4:	e7913003 	ldr	a4, [a2, a4]
200118e8:	e5933000 	ldr	a4, [a4]
200118ec:	e2832001 	add	a3, a4, #1
200118f0:	e59f3054 	ldr	a4, [pc, #84]	; 2001194c <sleep+0x144>
200118f4:	e7913003 	ldr	a4, [a2, a4]
200118f8:	e5832000 	str	a3, [a4]
200118fc:	e59f3040 	ldr	a4, [pc, #64]	; 20011944 <sleep+0x13c>
20011900:	e7913003 	ldr	a4, [a2, a4]
20011904:	e5932000 	ldr	a3, [a4]
20011908:	e3a03002 	mov	a4, #2
2001190c:	e5823000 	str	a4, [a3]
20011910:	e59f302c 	ldr	a4, [pc, #44]	; 20011944 <sleep+0x13c>
20011914:	e7913003 	ldr	a4, [a2, a4]
20011918:	e5933000 	ldr	a4, [a4]
2001191c:	e1a00003 	mov	a1, a4
20011920:	e59f3028 	ldr	a4, [pc, #40]	; 20011950 <sleep+0x148>
20011924:	e7913003 	ldr	a4, [a2, a4]
20011928:	e1a01003 	mov	a2, a4
2001192c:	ebffee68 	bl	2000d2d4 <vk_thread_dequeue>
20011930:	ebfff19c 	bl	2000dfa8 <vk_scheduler_unlock>
20011934:	ebffdfa8 	bl	200097dc <vk_swi_scheduler>
20011938:	e24bd00c 	sub	sp, fp, #12
2001193c:	e89da800 	ldm	sp, {fp, sp, pc}
20011940:	00001f74 	andeq	a2, a1, v1, ror pc
20011944:	000000a4 	andeq	a1, a1, v1, lsr #1
20011948:	00000008 	andeq	a1, a1, v5
2001194c:	00000030 	andeq	a1, a1, a1, lsr a1
20011950:	00000074 	andeq	a1, a1, v1, ror a1

20011954 <vk_timer_irq_enable>:
20011954:	e1a0c00d 	mov	ip, sp
20011958:	e92dd800 	push	{fp, ip, lr, pc}
2001195c:	e24cb004 	sub	fp, ip, #4
20011960:	e89da800 	ldm	sp, {fp, sp, pc}

20011964 <vk_timer_irq_disable>:
20011964:	e1a0c00d 	mov	ip, sp
20011968:	e92dd800 	push	{fp, ip, lr, pc}
2001196c:	e24cb004 	sub	fp, ip, #4
20011970:	e89da800 	ldm	sp, {fp, sp, pc}

20011974 <vh_timer_init>:
20011974:	e1a0c00d 	mov	ip, sp
20011978:	e92dd800 	push	{fp, ip, lr, pc}
2001197c:	e24cb004 	sub	fp, ip, #4
20011980:	e59f1038 	ldr	a2, [pc, #56]	; 200119c0 <vh_timer_init+0x4c>
20011984:	e08f1001 	add	a2, pc, a2
20011988:	e3a024ea 	mov	a3, #-369098752	; 0xea000000
2001198c:	e3a03c83 	mov	a4, #33536	; 0x8300
20011990:	e5823000 	str	a4, [a3]
20011994:	e59f2028 	ldr	a3, [pc, #40]	; 200119c4 <vh_timer_init+0x50>
20011998:	e3a03901 	mov	a4, #16384	; 0x4000
2001199c:	e5823000 	str	a4, [a3]
200119a0:	e59f2020 	ldr	a3, [pc, #32]	; 200119c8 <vh_timer_init+0x54>
200119a4:	e59f3020 	ldr	a4, [pc, #32]	; 200119cc <vh_timer_init+0x58>
200119a8:	e5823000 	str	a4, [a3]
200119ac:	e59f301c 	ldr	a4, [pc, #28]	; 200119d0 <vh_timer_init+0x5c>
200119b0:	e7912003 	ldr	a3, [a2, a4]
200119b4:	e3a03000 	mov	a4, #0
200119b8:	e5823000 	str	a4, [a3]
200119bc:	e89da800 	ldm	sp, {fp, sp, pc}
200119c0:	00001e0c 	andeq	a2, a1, ip, lsl #28
200119c4:	ea000004 	b	200119dc <vh_timer_irq_enable+0x8>
200119c8:	ea00003c 	b	20011ac0 <vh_timer_interrupt_handler+0x78>
200119cc:	00007a12 	andeq	v4, a1, a3, lsl sl
200119d0:	0000007c 	andeq	a1, a1, ip, ror a1

200119d4 <vh_timer_irq_enable>:
200119d4:	e1a0c00d 	mov	ip, sp
200119d8:	e92dd800 	push	{fp, ip, lr, pc}
200119dc:	e24cb004 	sub	fp, ip, #4
200119e0:	e24dd008 	sub	sp, sp, #8
200119e4:	e59f1050 	ldr	a2, [pc, #80]	; 20011a3c <vh_timer_irq_enable+0x68>
200119e8:	e50b1014 	str	a2, [fp, #-20]
200119ec:	e51b3014 	ldr	a4, [fp, #-20]
200119f0:	e08f3003 	add	a4, pc, a4
200119f4:	e50b3014 	str	a4, [fp, #-20]
200119f8:	e50b0010 	str	a1, [fp, #-16]
200119fc:	e51b3010 	ldr	a4, [fp, #-16]
20011a00:	e3530004 	cmp	a4, #4
20011a04:	908ff103 	addls	pc, pc, a4, lsl #2
20011a08:	ea000009 	b	20011a34 <vh_timer_irq_enable+0x60>
20011a0c:	ea000008 	b	20011a34 <vh_timer_irq_enable+0x60>
20011a10:	ea000007 	b	20011a34 <vh_timer_irq_enable+0x60>
20011a14:	ea000006 	b	20011a34 <vh_timer_irq_enable+0x60>
20011a18:	ea000005 	b	20011a34 <vh_timer_irq_enable+0x60>
20011a1c:	eaffffff 	b	20011a20 <vh_timer_irq_enable+0x4c>
20011a20:	e59f2018 	ldr	a3, [pc, #24]	; 20011a40 <vh_timer_irq_enable+0x6c>
20011a24:	e59f3018 	ldr	a4, [pc, #24]	; 20011a44 <vh_timer_irq_enable+0x70>
20011a28:	e51b1014 	ldr	a2, [fp, #-20]
20011a2c:	e7913003 	ldr	a4, [a2, a4]
20011a30:	e5823000 	str	a4, [a3]
20011a34:	e24bd00c 	sub	sp, fp, #12
20011a38:	e89da800 	ldm	sp, {fp, sp, pc}
20011a3c:	00001da0 	andeq	a2, a1, a1, lsr #27
20011a40:	e4000164 	str	a1, [a1], #-356	; 0x164
20011a44:	00000004 	andeq	a1, a1, v1

20011a48 <vh_timer_interrupt_handler>:
20011a48:	e1a0c00d 	mov	ip, sp
20011a4c:	e92dd830 	push	{v1, v2, fp, ip, lr, pc}
20011a50:	e24cb004 	sub	fp, ip, #4
20011a54:	e59f40a8 	ldr	v1, [pc, #168]	; 20011b04 <vh_timer_interrupt_handler+0xbc>
20011a58:	e08f4004 	add	v1, pc, v1
20011a5c:	ebffffc0 	bl	20011964 <vk_timer_irq_disable>
20011a60:	e59f30a0 	ldr	a4, [pc, #160]	; 20011b08 <vh_timer_interrupt_handler+0xc0>
20011a64:	e7943003 	ldr	a4, [v1, a4]
20011a68:	e1a00003 	mov	a1, a4
20011a6c:	ebffda09 	bl	20008298 <vh_save_thread_ctx>
20011a70:	e59fc094 	ldr	ip, [pc, #148]	; 20011b0c <vh_timer_interrupt_handler+0xc4>
20011a74:	e59f3090 	ldr	a4, [pc, #144]	; 20011b0c <vh_timer_interrupt_handler+0xc4>
20011a78:	e5935000 	ldr	v2, [a4]
20011a7c:	e59f108c 	ldr	a2, [pc, #140]	; 20011b10 <vh_timer_interrupt_handler+0xc8>
20011a80:	e59f3088 	ldr	a4, [pc, #136]	; 20011b10 <vh_timer_interrupt_handler+0xc8>
20011a84:	e5930000 	ldr	a1, [a4]
20011a88:	e59f3078 	ldr	a4, [pc, #120]	; 20011b08 <vh_timer_interrupt_handler+0xc0>
20011a8c:	e7943003 	ldr	a4, [v1, a4]
20011a90:	e1a02003 	mov	a3, a4
20011a94:	e59f3078 	ldr	a4, [pc, #120]	; 20011b14 <vh_timer_interrupt_handler+0xcc>
20011a98:	e7943003 	ldr	a4, [v1, a4]
20011a9c:	e5832000 	str	a3, [a4]
20011aa0:	e59f306c 	ldr	a4, [pc, #108]	; 20011b14 <vh_timer_interrupt_handler+0xcc>
20011aa4:	e7943003 	ldr	a4, [v1, a4]
20011aa8:	e5933000 	ldr	a4, [a4]
20011aac:	e1803003 	orr	a4, a1, a4
20011ab0:	e5813000 	str	a4, [a2]
20011ab4:	e5913000 	ldr	a4, [a2]
20011ab8:	e1853003 	orr	a4, v2, a4
20011abc:	e58c3000 	str	a4, [ip]
20011ac0:	e59f3050 	ldr	a4, [pc, #80]	; 20011b18 <vh_timer_interrupt_handler+0xd0>
20011ac4:	e7942003 	ldr	a3, [v1, a4]
20011ac8:	e3a03001 	mov	a4, #1
20011acc:	e5823000 	str	a4, [a3]
20011ad0:	e59f3044 	ldr	a4, [pc, #68]	; 20011b1c <vh_timer_interrupt_handler+0xd4>
20011ad4:	e7943003 	ldr	a4, [v1, a4]
20011ad8:	e5932000 	ldr	a3, [a4]
20011adc:	e5923030 	ldr	a4, [a3, #48]	; 0x30
20011ae0:	e2833001 	add	a4, a4, #1
20011ae4:	e5823030 	str	a4, [a3, #48]	; 0x30
20011ae8:	e59f3030 	ldr	a4, [pc, #48]	; 20011b20 <vh_timer_interrupt_handler+0xd8>
20011aec:	e7943003 	ldr	a4, [v1, a4]
20011af0:	e5933000 	ldr	a4, [a4]
20011af4:	e3530000 	cmp	a4, #0
20011af8:	1a000000 	bne	20011b00 <vh_timer_interrupt_handler+0xb8>
20011afc:	ebffdf36 	bl	200097dc <vk_swi_scheduler>
20011b00:	e89da830 	ldm	sp, {v1, v2, fp, sp, pc}
20011b04:	00001d38 	andeq	a2, a1, v5, lsr sp
20011b08:	00000094 	muleq	a1, v1, a1
20011b0c:	e4000014 	str	a1, [a1], #-20
20011b10:	e4000010 	str	a1, [a1], #-16
20011b14:	00000018 	andeq	a1, a1, v5, lsl a1
20011b18:	0000007c 	andeq	a1, a1, ip, ror a1
20011b1c:	000000a4 	andeq	a1, a1, v1, lsr #1
20011b20:	0000003c 	andeq	a1, a1, ip, lsr a1

20011b24 <thread>:
20011b24:	e1a0c00d 	mov	ip, sp
20011b28:	e92dd800 	push	{fp, ip, lr, pc}
20011b2c:	e24cb004 	sub	fp, ip, #4
20011b30:	e24dd018 	sub	sp, sp, #24
20011b34:	e59f10a8 	ldr	a2, [pc, #168]	; 20011be4 <thread+0xc0>
20011b38:	e50b1024 	str	a2, [fp, #-36]	; 0x24
20011b3c:	e51b2024 	ldr	a3, [fp, #-36]	; 0x24
20011b40:	e08f2002 	add	a3, pc, a3
20011b44:	e50b2024 	str	a3, [fp, #-36]	; 0x24
20011b48:	e50b0020 	str	a1, [fp, #-32]
20011b4c:	e3a03000 	mov	a4, #0
20011b50:	e50b3010 	str	a4, [fp, #-16]
20011b54:	ebffe10f 	bl	20009f98 <vh_LedInit>
20011b58:	e24b3018 	sub	a4, fp, #24
20011b5c:	e1a00003 	mov	a1, a4
20011b60:	e3a01000 	mov	a2, #0
20011b64:	e59f307c 	ldr	a4, [pc, #124]	; 20011be8 <thread+0xc4>
20011b68:	e51b2024 	ldr	a3, [fp, #-36]	; 0x24
20011b6c:	e7923003 	ldr	a4, [a3, a4]
20011b70:	e1a02003 	mov	a3, a4
20011b74:	e3a03000 	mov	a4, #0
20011b78:	ebfffc88 	bl	20010da0 <pthread_create>
20011b7c:	e51b3010 	ldr	a4, [fp, #-16]
20011b80:	e2833001 	add	a4, a4, #1
20011b84:	e50b3010 	str	a4, [fp, #-16]
20011b88:	e51b2010 	ldr	a3, [fp, #-16]
20011b8c:	e59f3058 	ldr	a4, [pc, #88]	; 20011bec <thread+0xc8>
20011b90:	e1520003 	cmp	a3, a4
20011b94:	1afffff8 	bne	20011b7c <thread+0x58>
20011b98:	ebffd960 	bl	20008120 <vt_read>
20011b9c:	e1a02000 	mov	a3, a1
20011ba0:	e59f3048 	ldr	a4, [pc, #72]	; 20011bf0 <thread+0xcc>
20011ba4:	e51b1024 	ldr	a2, [fp, #-36]	; 0x24
20011ba8:	e0813003 	add	a4, a2, a4
20011bac:	e1a00003 	mov	a1, a4
20011bb0:	e1a01002 	mov	a2, a3
20011bb4:	ebffebd6 	bl	2000cb14 <printk>
20011bb8:	ebffd956 	bl	20008118 <vt_read_sp>
20011bbc:	e1a02000 	mov	a3, a1
20011bc0:	e59f302c 	ldr	a4, [pc, #44]	; 20011bf4 <thread+0xd0>
20011bc4:	e51b1024 	ldr	a2, [fp, #-36]	; 0x24
20011bc8:	e0813003 	add	a4, a2, a4
20011bcc:	e1a00003 	mov	a1, a4
20011bd0:	e1a01002 	mov	a2, a3
20011bd4:	ebffebce 	bl	2000cb14 <printk>
20011bd8:	e3a03000 	mov	a4, #0
20011bdc:	e50b3010 	str	a4, [fp, #-16]
20011be0:	eaffffe5 	b	20011b7c <thread+0x58>
20011be4:	00001c50 	andeq	a2, a1, a1, asr ip
20011be8:	0000001c 	andeq	a1, a1, ip, lsl a1
20011bec:	004c4b40 	subeq	v1, ip, a1, asr #22
20011bf0:	fffffc14 			; <UNDEFINED> instruction: 0xfffffc14
20011bf4:	fffffc28 			; <UNDEFINED> instruction: 0xfffffc28

20011bf8 <thread2>:
20011bf8:	e1a0c00d 	mov	ip, sp
20011bfc:	e92dd800 	push	{fp, ip, lr, pc}
20011c00:	e24cb004 	sub	fp, ip, #4
20011c04:	e24dd010 	sub	sp, sp, #16
20011c08:	e59f1080 	ldr	a2, [pc, #128]	; 20011c90 <thread2+0x98>
20011c0c:	e50b101c 	str	a2, [fp, #-28]
20011c10:	e51b301c 	ldr	a4, [fp, #-28]
20011c14:	e08f3003 	add	a4, pc, a4
20011c18:	e50b301c 	str	a4, [fp, #-28]
20011c1c:	e50b0018 	str	a1, [fp, #-24]
20011c20:	e3a03000 	mov	a4, #0
20011c24:	e50b3010 	str	a4, [fp, #-16]
20011c28:	e51b3010 	ldr	a4, [fp, #-16]
20011c2c:	e2833001 	add	a4, a4, #1
20011c30:	e50b3010 	str	a4, [fp, #-16]
20011c34:	e51b2010 	ldr	a3, [fp, #-16]
20011c38:	e59f3054 	ldr	a4, [pc, #84]	; 20011c94 <thread2+0x9c>
20011c3c:	e1520003 	cmp	a3, a4
20011c40:	1afffff8 	bne	20011c28 <thread2+0x30>
20011c44:	ebffd935 	bl	20008120 <vt_read>
20011c48:	e1a02000 	mov	a3, a1
20011c4c:	e59f3044 	ldr	a4, [pc, #68]	; 20011c98 <thread2+0xa0>
20011c50:	e51b101c 	ldr	a2, [fp, #-28]
20011c54:	e0813003 	add	a4, a2, a4
20011c58:	e1a00003 	mov	a1, a4
20011c5c:	e1a01002 	mov	a2, a3
20011c60:	ebffebab 	bl	2000cb14 <printk>
20011c64:	ebffd92b 	bl	20008118 <vt_read_sp>
20011c68:	e1a02000 	mov	a3, a1
20011c6c:	e59f3028 	ldr	a4, [pc, #40]	; 20011c9c <thread2+0xa4>
20011c70:	e51b101c 	ldr	a2, [fp, #-28]
20011c74:	e0813003 	add	a4, a2, a4
20011c78:	e1a00003 	mov	a1, a4
20011c7c:	e1a01002 	mov	a2, a3
20011c80:	ebffeba3 	bl	2000cb14 <printk>
20011c84:	e3a03000 	mov	a4, #0
20011c88:	e50b3010 	str	a4, [fp, #-16]
20011c8c:	eaffffe5 	b	20011c28 <thread2+0x30>
20011c90:	00001b7c 	andeq	a2, a1, ip, ror fp
20011c94:	004c4b40 	subeq	v1, ip, a1, asr #22
20011c98:	fffffc3c 			; <UNDEFINED> instruction: 0xfffffc3c
20011c9c:	fffffc50 			; <UNDEFINED> instruction: 0xfffffc50

20011ca0 <thread3>:
20011ca0:	e1a0c00d 	mov	ip, sp
20011ca4:	e92dd800 	push	{fp, ip, lr, pc}
20011ca8:	e24cb004 	sub	fp, ip, #4
20011cac:	e24dd020 	sub	sp, sp, #32
20011cb0:	e59f1100 	ldr	a2, [pc, #256]	; 20011db8 <thread3+0x118>
20011cb4:	e50b1028 	str	a2, [fp, #-40]	; 0x28
20011cb8:	e51b2028 	ldr	a3, [fp, #-40]	; 0x28
20011cbc:	e08f2002 	add	a3, pc, a3
20011cc0:	e50b2028 	str	a3, [fp, #-40]	; 0x28
20011cc4:	e50b0020 	str	a1, [fp, #-32]
20011cc8:	e3a03000 	mov	a4, #0
20011ccc:	e50b3010 	str	a4, [fp, #-16]
20011cd0:	ebffe0b0 	bl	20009f98 <vh_LedInit>
20011cd4:	e24b3018 	sub	a4, fp, #24
20011cd8:	e1a00003 	mov	a1, a4
20011cdc:	e3a01000 	mov	a2, #0
20011ce0:	e59f30d4 	ldr	a4, [pc, #212]	; 20011dbc <thread3+0x11c>
20011ce4:	e51b2028 	ldr	a3, [fp, #-40]	; 0x28
20011ce8:	e7923003 	ldr	a4, [a3, a4]
20011cec:	e1a02003 	mov	a3, a4
20011cf0:	e3a03000 	mov	a4, #0
20011cf4:	ebfffc29 	bl	20010da0 <pthread_create>
20011cf8:	e51b3010 	ldr	a4, [fp, #-16]
20011cfc:	e2833001 	add	a4, a4, #1
20011d00:	e50b3010 	str	a4, [fp, #-16]
20011d04:	e51b1010 	ldr	a2, [fp, #-16]
20011d08:	e59f30b0 	ldr	a4, [pc, #176]	; 20011dc0 <thread3+0x120>
20011d0c:	e0c32391 	smull	a3, a4, a2, a4
20011d10:	e1a02943 	asr	a3, a4, #18
20011d14:	e1a03fc1 	asr	a4, a2, #31
20011d18:	e0633002 	rsb	a4, a4, a3
20011d1c:	e50b3024 	str	a4, [fp, #-36]	; 0x24
20011d20:	e51b3024 	ldr	a4, [fp, #-36]	; 0x24
20011d24:	e1a03183 	lsl	a4, a4, #3
20011d28:	e1a02283 	lsl	a3, a4, #5
20011d2c:	e0632002 	rsb	a3, a4, a3
20011d30:	e1a03302 	lsl	a4, a3, #6
20011d34:	e0623003 	rsb	a4, a3, a4
20011d38:	e51b2024 	ldr	a3, [fp, #-36]	; 0x24
20011d3c:	e0833002 	add	a4, a4, a3
20011d40:	e1a03303 	lsl	a4, a4, #6
20011d44:	e0633001 	rsb	a4, a4, a2
20011d48:	e50b3024 	str	a4, [fp, #-36]	; 0x24
20011d4c:	e51b3024 	ldr	a4, [fp, #-36]	; 0x24
20011d50:	e3530000 	cmp	a4, #0
20011d54:	1affffe7 	bne	20011cf8 <thread3+0x58>
20011d58:	ebffd8f0 	bl	20008120 <vt_read>
20011d5c:	e1a02000 	mov	a3, a1
20011d60:	e59f305c 	ldr	a4, [pc, #92]	; 20011dc4 <thread3+0x124>
20011d64:	e51b1028 	ldr	a2, [fp, #-40]	; 0x28
20011d68:	e0813003 	add	a4, a2, a4
20011d6c:	e1a00003 	mov	a1, a4
20011d70:	e1a01002 	mov	a2, a3
20011d74:	ebffeb66 	bl	2000cb14 <printk>
20011d78:	ebffd8e6 	bl	20008118 <vt_read_sp>
20011d7c:	e1a02000 	mov	a3, a1
20011d80:	e59f3040 	ldr	a4, [pc, #64]	; 20011dc8 <thread3+0x128>
20011d84:	e51b1028 	ldr	a2, [fp, #-40]	; 0x28
20011d88:	e0813003 	add	a4, a2, a4
20011d8c:	e1a00003 	mov	a1, a4
20011d90:	e1a01002 	mov	a2, a3
20011d94:	ebffeb5e 	bl	2000cb14 <printk>
20011d98:	e51b2010 	ldr	a3, [fp, #-16]
20011d9c:	e59f3028 	ldr	a4, [pc, #40]	; 20011dcc <thread3+0x12c>
20011da0:	e1520003 	cmp	a3, a4
20011da4:	1affffd3 	bne	20011cf8 <thread3+0x58>
20011da8:	e3a03000 	mov	a4, #0
20011dac:	e1a00003 	mov	a1, a4
20011db0:	e24bd00c 	sub	sp, fp, #12
20011db4:	e89da800 	ldm	sp, {fp, sp, pc}
20011db8:	00001ad4 	ldrdeq	a2, [a1], -v1
20011dbc:	00000048 	andeq	a1, a1, v5, asr #32
20011dc0:	431bde83 	tstmi	fp, #2096	; 0x830
20011dc4:	fffffc14 			; <UNDEFINED> instruction: 0xfffffc14
20011dc8:	fffffc28 			; <UNDEFINED> instruction: 0xfffffc28
20011dcc:	004c4b40 	subeq	v1, ip, a1, asr #22

20011dd0 <thread4>:
20011dd0:	e1a0c00d 	mov	ip, sp
20011dd4:	e92dd800 	push	{fp, ip, lr, pc}
20011dd8:	e24cb004 	sub	fp, ip, #4
20011ddc:	e24dd018 	sub	sp, sp, #24
20011de0:	e59f10d8 	ldr	a2, [pc, #216]	; 20011ec0 <thread4+0xf0>
20011de4:	e50b1020 	str	a2, [fp, #-32]
20011de8:	e51b2020 	ldr	a3, [fp, #-32]
20011dec:	e08f2002 	add	a3, pc, a3
20011df0:	e50b2020 	str	a3, [fp, #-32]
20011df4:	e50b0018 	str	a1, [fp, #-24]
20011df8:	e3a03000 	mov	a4, #0
20011dfc:	e50b3010 	str	a4, [fp, #-16]
20011e00:	e51b3010 	ldr	a4, [fp, #-16]
20011e04:	e2833001 	add	a4, a4, #1
20011e08:	e50b3010 	str	a4, [fp, #-16]
20011e0c:	e51b1010 	ldr	a2, [fp, #-16]
20011e10:	e59f30ac 	ldr	a4, [pc, #172]	; 20011ec4 <thread4+0xf4>
20011e14:	e0c32391 	smull	a3, a4, a2, a4
20011e18:	e1a02943 	asr	a3, a4, #18
20011e1c:	e1a03fc1 	asr	a4, a2, #31
20011e20:	e0633002 	rsb	a4, a4, a3
20011e24:	e50b301c 	str	a4, [fp, #-28]
20011e28:	e51b301c 	ldr	a4, [fp, #-28]
20011e2c:	e1a03183 	lsl	a4, a4, #3
20011e30:	e1a02283 	lsl	a3, a4, #5
20011e34:	e0632002 	rsb	a3, a4, a3
20011e38:	e1a03302 	lsl	a4, a3, #6
20011e3c:	e0623003 	rsb	a4, a3, a4
20011e40:	e51b201c 	ldr	a3, [fp, #-28]
20011e44:	e0833002 	add	a4, a4, a3
20011e48:	e1a03303 	lsl	a4, a4, #6
20011e4c:	e0633001 	rsb	a4, a4, a2
20011e50:	e50b301c 	str	a4, [fp, #-28]
20011e54:	e51b301c 	ldr	a4, [fp, #-28]
20011e58:	e3530000 	cmp	a4, #0
20011e5c:	1affffe7 	bne	20011e00 <thread4+0x30>
20011e60:	ebffd8ae 	bl	20008120 <vt_read>
20011e64:	e1a02000 	mov	a3, a1
20011e68:	e59f3058 	ldr	a4, [pc, #88]	; 20011ec8 <thread4+0xf8>
20011e6c:	e51b1020 	ldr	a2, [fp, #-32]
20011e70:	e0813003 	add	a4, a2, a4
20011e74:	e1a00003 	mov	a1, a4
20011e78:	e1a01002 	mov	a2, a3
20011e7c:	ebffeb24 	bl	2000cb14 <printk>
20011e80:	ebffd8a4 	bl	20008118 <vt_read_sp>
20011e84:	e1a02000 	mov	a3, a1
20011e88:	e59f303c 	ldr	a4, [pc, #60]	; 20011ecc <thread4+0xfc>
20011e8c:	e51b1020 	ldr	a2, [fp, #-32]
20011e90:	e0813003 	add	a4, a2, a4
20011e94:	e1a00003 	mov	a1, a4
20011e98:	e1a01002 	mov	a2, a3
20011e9c:	ebffeb1c 	bl	2000cb14 <printk>
20011ea0:	e51b2010 	ldr	a3, [fp, #-16]
20011ea4:	e59f3024 	ldr	a4, [pc, #36]	; 20011ed0 <thread4+0x100>
20011ea8:	e1520003 	cmp	a3, a4
20011eac:	1affffd3 	bne	20011e00 <thread4+0x30>
20011eb0:	e3a03000 	mov	a4, #0
20011eb4:	e1a00003 	mov	a1, a4
20011eb8:	e24bd00c 	sub	sp, fp, #12
20011ebc:	e89da800 	ldm	sp, {fp, sp, pc}
20011ec0:	000019a4 	andeq	a2, a1, v1, lsr #19
20011ec4:	431bde83 	tstmi	fp, #2096	; 0x830
20011ec8:	fffffc3c 			; <UNDEFINED> instruction: 0xfffffc3c
20011ecc:	fffffc50 			; <UNDEFINED> instruction: 0xfffffc50
20011ed0:	004c4b40 	subeq	v1, ip, a1, asr #22

20011ed4 <vu_debug>:
20011ed4:	e1a0c00d 	mov	ip, sp
20011ed8:	e92dd800 	push	{fp, ip, lr, pc}
20011edc:	e24cb004 	sub	fp, ip, #4
20011ee0:	e24dd010 	sub	sp, sp, #16
20011ee4:	e59f1188 	ldr	a2, [pc, #392]	; 20012074 <vu_debug+0x1a0>
20011ee8:	e50b101c 	str	a2, [fp, #-28]
20011eec:	e51b201c 	ldr	a3, [fp, #-28]
20011ef0:	e08f2002 	add	a3, pc, a3
20011ef4:	e50b201c 	str	a3, [fp, #-28]
20011ef8:	e50b0018 	str	a1, [fp, #-24]
20011efc:	e59f3174 	ldr	a4, [pc, #372]	; 20012078 <vu_debug+0x1a4>
20011f00:	e51b101c 	ldr	a2, [fp, #-28]
20011f04:	e7913003 	ldr	a4, [a2, a4]
20011f08:	e5932000 	ldr	a3, [a4]
20011f0c:	e59f3168 	ldr	a4, [pc, #360]	; 2001207c <vu_debug+0x1a8>
20011f10:	e51b101c 	ldr	a2, [fp, #-28]
20011f14:	e0813003 	add	a4, a2, a4
20011f18:	e1a00003 	mov	a1, a4
20011f1c:	e1a01002 	mov	a2, a3
20011f20:	ebffeb29 	bl	2000cbcc <printf>
20011f24:	e59f3154 	ldr	a4, [pc, #340]	; 20012080 <vu_debug+0x1ac>
20011f28:	e51b201c 	ldr	a3, [fp, #-28]
20011f2c:	e7923003 	ldr	a4, [a3, a4]
20011f30:	e5932000 	ldr	a3, [a4]
20011f34:	e59f3148 	ldr	a4, [pc, #328]	; 20012084 <vu_debug+0x1b0>
20011f38:	e51b101c 	ldr	a2, [fp, #-28]
20011f3c:	e0813003 	add	a4, a2, a4
20011f40:	e1a00003 	mov	a1, a4
20011f44:	e1a01002 	mov	a2, a3
20011f48:	ebffeb1f 	bl	2000cbcc <printf>
20011f4c:	e59f3134 	ldr	a4, [pc, #308]	; 20012088 <vu_debug+0x1b4>
20011f50:	e51b201c 	ldr	a3, [fp, #-28]
20011f54:	e7923003 	ldr	a4, [a3, a4]
20011f58:	e5932000 	ldr	a3, [a4]
20011f5c:	e59f3128 	ldr	a4, [pc, #296]	; 2001208c <vu_debug+0x1b8>
20011f60:	e51b101c 	ldr	a2, [fp, #-28]
20011f64:	e0813003 	add	a4, a2, a4
20011f68:	e1a00003 	mov	a1, a4
20011f6c:	e1a01002 	mov	a2, a3
20011f70:	ebffeb15 	bl	2000cbcc <printf>
20011f74:	e59f3114 	ldr	a4, [pc, #276]	; 20012090 <vu_debug+0x1bc>
20011f78:	e51b201c 	ldr	a3, [fp, #-28]
20011f7c:	e7923003 	ldr	a4, [a3, a4]
20011f80:	e5932000 	ldr	a3, [a4]
20011f84:	e59f3108 	ldr	a4, [pc, #264]	; 20012094 <vu_debug+0x1c0>
20011f88:	e51b101c 	ldr	a2, [fp, #-28]
20011f8c:	e0813003 	add	a4, a2, a4
20011f90:	e1a00003 	mov	a1, a4
20011f94:	e1a01002 	mov	a2, a3
20011f98:	ebffeb0b 	bl	2000cbcc <printf>
20011f9c:	e59f30f4 	ldr	a4, [pc, #244]	; 20012098 <vu_debug+0x1c4>
20011fa0:	e51b201c 	ldr	a3, [fp, #-28]
20011fa4:	e7923003 	ldr	a4, [a3, a4]
20011fa8:	e5932000 	ldr	a3, [a4]
20011fac:	e59f30e8 	ldr	a4, [pc, #232]	; 2001209c <vu_debug+0x1c8>
20011fb0:	e51b101c 	ldr	a2, [fp, #-28]
20011fb4:	e0813003 	add	a4, a2, a4
20011fb8:	e1a00003 	mov	a1, a4
20011fbc:	e1a01002 	mov	a2, a3
20011fc0:	ebffeb01 	bl	2000cbcc <printf>
20011fc4:	e59f30d4 	ldr	a4, [pc, #212]	; 200120a0 <vu_debug+0x1cc>
20011fc8:	e51b201c 	ldr	a3, [fp, #-28]
20011fcc:	e0823003 	add	a4, a3, a4
20011fd0:	e1a00003 	mov	a1, a4
20011fd4:	ebffeafc 	bl	2000cbcc <printf>
20011fd8:	e3a03000 	mov	a4, #0
20011fdc:	e50b3010 	str	a4, [fp, #-16]
20011fe0:	ea00000d 	b	2001201c <vu_debug+0x148>
20011fe4:	e51b2010 	ldr	a3, [fp, #-16]
20011fe8:	e59f30b4 	ldr	a4, [pc, #180]	; 200120a4 <vu_debug+0x1d0>
20011fec:	e51b101c 	ldr	a2, [fp, #-28]
20011ff0:	e7913003 	ldr	a4, [a2, a4]
20011ff4:	e7932102 	ldr	a3, [a4, a3, lsl #2]
20011ff8:	e59f30a8 	ldr	a4, [pc, #168]	; 200120a8 <vu_debug+0x1d4>
20011ffc:	e51b101c 	ldr	a2, [fp, #-28]
20012000:	e0813003 	add	a4, a2, a4
20012004:	e1a00003 	mov	a1, a4
20012008:	e51b1010 	ldr	a2, [fp, #-16]
2001200c:	ebffeaee 	bl	2000cbcc <printf>
20012010:	e51b3010 	ldr	a4, [fp, #-16]
20012014:	e2833001 	add	a4, a4, #1
20012018:	e50b3010 	str	a4, [fp, #-16]
2001201c:	e51b3010 	ldr	a4, [fp, #-16]
20012020:	e353000e 	cmp	a4, #14
20012024:	9affffee 	bls	20011fe4 <vu_debug+0x110>
20012028:	e59f307c 	ldr	a4, [pc, #124]	; 200120ac <vu_debug+0x1d8>
2001202c:	e51b201c 	ldr	a3, [fp, #-28]
20012030:	e0823003 	add	a4, a3, a4
20012034:	e1a00003 	mov	a1, a4
20012038:	ebffeae3 	bl	2000cbcc <printf>
2001203c:	e59f306c 	ldr	a4, [pc, #108]	; 200120b0 <vu_debug+0x1dc>
20012040:	e51b101c 	ldr	a2, [fp, #-28]
20012044:	e7913003 	ldr	a4, [a2, a4]
20012048:	e5932000 	ldr	a3, [a4]
2001204c:	e59f3060 	ldr	a4, [pc, #96]	; 200120b4 <vu_debug+0x1e0>
20012050:	e51b101c 	ldr	a2, [fp, #-28]
20012054:	e0813003 	add	a4, a2, a4
20012058:	e1a00003 	mov	a1, a4
2001205c:	e1a01002 	mov	a2, a3
20012060:	ebffead9 	bl	2000cbcc <printf>
20012064:	e3a03000 	mov	a4, #0
20012068:	e1a00003 	mov	a1, a4
2001206c:	e24bd00c 	sub	sp, fp, #12
20012070:	e89da800 	ldm	sp, {fp, sp, pc}
20012074:	000018a0 	andeq	a2, a1, a1, lsr #17
20012078:	000000b4 	strheq	a1, [a1], -v1
2001207c:	fffffc64 			; <UNDEFINED> instruction: 0xfffffc64
20012080:	00000024 	andeq	a1, a1, v1, lsr #32
20012084:	fffffc80 			; <UNDEFINED> instruction: 0xfffffc80
20012088:	00000038 	andeq	a1, a1, v5, lsr a1
2001208c:	fffffc94 			; <UNDEFINED> instruction: 0xfffffc94
20012090:	00000044 	andeq	a1, a1, v1, asr #32
20012094:	fffffcb0 			; <UNDEFINED> instruction: 0xfffffcb0
20012098:	0000004c 	andeq	a1, a1, ip, asr #32
2001209c:	fffffccc 			; <UNDEFINED> instruction: 0xfffffccc
200120a0:	fffffcec 			; <UNDEFINED> instruction: 0xfffffcec
200120a4:	000000c0 	andeq	a1, a1, a1, asr #1
200120a8:	fffffd0c 			; <UNDEFINED> instruction: 0xfffffd0c
200120ac:	fffffd18 			; <UNDEFINED> instruction: 0xfffffd18
200120b0:	00000054 	andeq	a1, a1, v1, asr a1
200120b4:	fffffd1c 			; <UNDEFINED> instruction: 0xfffffd1c

200120b8 <vu_help>:
200120b8:	e1a0c00d 	mov	ip, sp
200120bc:	e92dd800 	push	{fp, ip, lr, pc}
200120c0:	e24cb004 	sub	fp, ip, #4
200120c4:	e24dd010 	sub	sp, sp, #16
200120c8:	e59f1108 	ldr	a2, [pc, #264]	; 200121d8 <vu_help+0x120>
200120cc:	e50b101c 	str	a2, [fp, #-28]
200120d0:	e51b201c 	ldr	a3, [fp, #-28]
200120d4:	e08f2002 	add	a3, pc, a3
200120d8:	e50b201c 	str	a3, [fp, #-28]
200120dc:	e50b0018 	str	a1, [fp, #-24]
200120e0:	e3a03000 	mov	a4, #0
200120e4:	e50b3010 	str	a4, [fp, #-16]
200120e8:	e59f30ec 	ldr	a4, [pc, #236]	; 200121dc <vu_help+0x124>
200120ec:	e51b001c 	ldr	a1, [fp, #-28]
200120f0:	e0803003 	add	a4, a1, a4
200120f4:	e1a00003 	mov	a1, a4
200120f8:	ebffea85 	bl	2000cb14 <printk>
200120fc:	ea00001e 	b	2001217c <vu_help+0xc4>
20012100:	e51b2010 	ldr	a3, [fp, #-16]
20012104:	e59f30d4 	ldr	a4, [pc, #212]	; 200121e0 <vu_help+0x128>
20012108:	e51b001c 	ldr	a1, [fp, #-28]
2001210c:	e7901003 	ldr	a2, [a1, a4]
20012110:	e1a03002 	mov	a4, a3
20012114:	e1a02103 	lsl	a3, a4, #2
20012118:	e1a03102 	lsl	a4, a3, #2
2001211c:	e0623003 	rsb	a4, a3, a4
20012120:	e0813003 	add	a4, a2, a4
20012124:	e593c000 	ldr	ip, [a4]
20012128:	e51b2010 	ldr	a3, [fp, #-16]
2001212c:	e59f30ac 	ldr	a4, [pc, #172]	; 200121e0 <vu_help+0x128>
20012130:	e51b001c 	ldr	a1, [fp, #-28]
20012134:	e7901003 	ldr	a2, [a1, a4]
20012138:	e3a00004 	mov	a1, #4
2001213c:	e1a03002 	mov	a4, a3
20012140:	e1a02103 	lsl	a3, a4, #2
20012144:	e1a03102 	lsl	a4, a3, #2
20012148:	e0623003 	rsb	a4, a3, a4
2001214c:	e0813003 	add	a4, a2, a4
20012150:	e0833000 	add	a4, a4, a1
20012154:	e5932000 	ldr	a3, [a4]
20012158:	e59f3084 	ldr	a4, [pc, #132]	; 200121e4 <vu_help+0x12c>
2001215c:	e51b101c 	ldr	a2, [fp, #-28]
20012160:	e0813003 	add	a4, a2, a4
20012164:	e1a00003 	mov	a1, a4
20012168:	e1a0100c 	mov	a2, ip
2001216c:	ebffea68 	bl	2000cb14 <printk>
20012170:	e51b3010 	ldr	a4, [fp, #-16]
20012174:	e2833001 	add	a4, a4, #1
20012178:	e50b3010 	str	a4, [fp, #-16]
2001217c:	e51b2010 	ldr	a3, [fp, #-16]
20012180:	e59f3058 	ldr	a4, [pc, #88]	; 200121e0 <vu_help+0x128>
20012184:	e51b001c 	ldr	a1, [fp, #-28]
20012188:	e7901003 	ldr	a2, [a1, a4]
2001218c:	e3a00008 	mov	a1, #8
20012190:	e1a03002 	mov	a4, a3
20012194:	e1a02103 	lsl	a3, a4, #2
20012198:	e1a03102 	lsl	a4, a3, #2
2001219c:	e0623003 	rsb	a4, a3, a4
200121a0:	e0813003 	add	a4, a2, a4
200121a4:	e0833000 	add	a4, a4, a1
200121a8:	e5933000 	ldr	a4, [a4]
200121ac:	e3530000 	cmp	a4, #0
200121b0:	1affffd2 	bne	20012100 <vu_help+0x48>
200121b4:	e59f302c 	ldr	a4, [pc, #44]	; 200121e8 <vu_help+0x130>
200121b8:	e51b101c 	ldr	a2, [fp, #-28]
200121bc:	e0813003 	add	a4, a2, a4
200121c0:	e1a00003 	mov	a1, a4
200121c4:	ebffea52 	bl	2000cb14 <printk>
200121c8:	e3a03000 	mov	a4, #0
200121cc:	e1a00003 	mov	a1, a4
200121d0:	e24bd00c 	sub	sp, fp, #12
200121d4:	e89da800 	ldm	sp, {fp, sp, pc}
200121d8:	000016bc 			; <UNDEFINED> instruction: 0x000016bc
200121dc:	fffffd38 			; <UNDEFINED> instruction: 0xfffffd38
200121e0:	000000a0 	andeq	a1, a1, a1, lsr #1
200121e4:	fffffd70 			; <UNDEFINED> instruction: 0xfffffd70
200121e8:	fffffd7c 			; <UNDEFINED> instruction: 0xfffffd7c

200121ec <race_log>:
200121ec:	e1a0c00d 	mov	ip, sp
200121f0:	e92dd800 	push	{fp, ip, lr, pc}
200121f4:	e24cb004 	sub	fp, ip, #4
200121f8:	e24dd008 	sub	sp, sp, #8
200121fc:	e59f2028 	ldr	a3, [pc, #40]	; 2001222c <race_log+0x40>
20012200:	e08f2002 	add	a3, pc, a3
20012204:	e50b0010 	str	a1, [fp, #-16]
20012208:	e59f3020 	ldr	a4, [pc, #32]	; 20012230 <race_log+0x44>
2001220c:	e7923003 	ldr	a4, [a3, a4]
20012210:	e5931000 	ldr	a2, [a4]
20012214:	e59f3018 	ldr	a4, [pc, #24]	; 20012234 <race_log+0x48>
20012218:	e0823003 	add	a4, a3, a4
2001221c:	e1a00003 	mov	a1, a4
20012220:	ebffea3b 	bl	2000cb14 <printk>
20012224:	e24bd00c 	sub	sp, fp, #12
20012228:	e89da800 	ldm	sp, {fp, sp, pc}
2001222c:	00001590 	muleq	a1, a1, v2
20012230:	0000002c 	andeq	a1, a1, ip, lsr #32
20012234:	fffffdb0 			; <UNDEFINED> instruction: 0xfffffdb0

20012238 <race_ex_0>:
20012238:	e1a0c00d 	mov	ip, sp
2001223c:	e92dd800 	push	{fp, ip, lr, pc}
20012240:	e24cb004 	sub	fp, ip, #4
20012244:	e24dd010 	sub	sp, sp, #16
20012248:	e59f108c 	ldr	a2, [pc, #140]	; 200122dc <race_ex_0+0xa4>
2001224c:	e50b101c 	str	a2, [fp, #-28]
20012250:	e51b201c 	ldr	a3, [fp, #-28]
20012254:	e08f2002 	add	a3, pc, a3
20012258:	e50b201c 	str	a3, [fp, #-28]
2001225c:	e50b0018 	str	a1, [fp, #-24]
20012260:	e3a03000 	mov	a4, #0
20012264:	e50b3010 	str	a4, [fp, #-16]
20012268:	ea000013 	b	200122bc <race_ex_0+0x84>
2001226c:	e59f306c 	ldr	a4, [pc, #108]	; 200122e0 <race_ex_0+0xa8>
20012270:	e51b101c 	ldr	a2, [fp, #-28]
20012274:	e7913003 	ldr	a4, [a2, a4]
20012278:	e5933000 	ldr	a4, [a4]
2001227c:	e2832002 	add	a3, a4, #2
20012280:	e59f305c 	ldr	a4, [pc, #92]	; 200122e4 <race_ex_0+0xac>
20012284:	e51b101c 	ldr	a2, [fp, #-28]
20012288:	e7913003 	ldr	a4, [a2, a4]
2001228c:	e5832000 	str	a3, [a4]
20012290:	e59f304c 	ldr	a4, [pc, #76]	; 200122e4 <race_ex_0+0xac>
20012294:	e51b201c 	ldr	a3, [fp, #-28]
20012298:	e7923003 	ldr	a4, [a3, a4]
2001229c:	e5932000 	ldr	a3, [a4]
200122a0:	e59f3038 	ldr	a4, [pc, #56]	; 200122e0 <race_ex_0+0xa8>
200122a4:	e51b101c 	ldr	a2, [fp, #-28]
200122a8:	e7913003 	ldr	a4, [a2, a4]
200122ac:	e5832000 	str	a3, [a4]
200122b0:	e51b3010 	ldr	a4, [fp, #-16]
200122b4:	e2833001 	add	a4, a4, #1
200122b8:	e50b3010 	str	a4, [fp, #-16]
200122bc:	e51b2010 	ldr	a3, [fp, #-16]
200122c0:	e59f3020 	ldr	a4, [pc, #32]	; 200122e8 <race_ex_0+0xb0>
200122c4:	e1520003 	cmp	a3, a4
200122c8:	daffffe7 	ble	2001226c <race_ex_0+0x34>
200122cc:	e3a03000 	mov	a4, #0
200122d0:	e1a00003 	mov	a1, a4
200122d4:	e24bd00c 	sub	sp, fp, #12
200122d8:	e89da800 	ldm	sp, {fp, sp, pc}
200122dc:	0000153c 	andeq	a2, a1, ip, lsr v2
200122e0:	0000002c 	andeq	a1, a1, ip, lsr #32
200122e4:	00000058 	andeq	a1, a1, v5, asr a1
200122e8:	000493df 	ldrdeq	v6, [v1], -pc	; <UNPREDICTABLE>

200122ec <race_ex_1>:
200122ec:	e1a0c00d 	mov	ip, sp
200122f0:	e92dd800 	push	{fp, ip, lr, pc}
200122f4:	e24cb004 	sub	fp, ip, #4
200122f8:	e24dd010 	sub	sp, sp, #16
200122fc:	e59f108c 	ldr	a2, [pc, #140]	; 20012390 <race_ex_1+0xa4>
20012300:	e50b101c 	str	a2, [fp, #-28]
20012304:	e51b201c 	ldr	a3, [fp, #-28]
20012308:	e08f2002 	add	a3, pc, a3
2001230c:	e50b201c 	str	a3, [fp, #-28]
20012310:	e50b0018 	str	a1, [fp, #-24]
20012314:	e3a03000 	mov	a4, #0
20012318:	e50b3010 	str	a4, [fp, #-16]
2001231c:	ea000013 	b	20012370 <race_ex_1+0x84>
20012320:	e59f306c 	ldr	a4, [pc, #108]	; 20012394 <race_ex_1+0xa8>
20012324:	e51b101c 	ldr	a2, [fp, #-28]
20012328:	e7913003 	ldr	a4, [a2, a4]
2001232c:	e5933000 	ldr	a4, [a4]
20012330:	e2432001 	sub	a3, a4, #1
20012334:	e59f305c 	ldr	a4, [pc, #92]	; 20012398 <race_ex_1+0xac>
20012338:	e51b101c 	ldr	a2, [fp, #-28]
2001233c:	e7913003 	ldr	a4, [a2, a4]
20012340:	e5832000 	str	a3, [a4]
20012344:	e59f304c 	ldr	a4, [pc, #76]	; 20012398 <race_ex_1+0xac>
20012348:	e51b201c 	ldr	a3, [fp, #-28]
2001234c:	e7923003 	ldr	a4, [a3, a4]
20012350:	e5932000 	ldr	a3, [a4]
20012354:	e59f3038 	ldr	a4, [pc, #56]	; 20012394 <race_ex_1+0xa8>
20012358:	e51b101c 	ldr	a2, [fp, #-28]
2001235c:	e7913003 	ldr	a4, [a2, a4]
20012360:	e5832000 	str	a3, [a4]
20012364:	e51b3010 	ldr	a4, [fp, #-16]
20012368:	e2833001 	add	a4, a4, #1
2001236c:	e50b3010 	str	a4, [fp, #-16]
20012370:	e51b2010 	ldr	a3, [fp, #-16]
20012374:	e59f3020 	ldr	a4, [pc, #32]	; 2001239c <race_ex_1+0xb0>
20012378:	e1520003 	cmp	a3, a4
2001237c:	daffffe7 	ble	20012320 <race_ex_1+0x34>
20012380:	e3a03000 	mov	a4, #0
20012384:	e1a00003 	mov	a1, a4
20012388:	e24bd00c 	sub	sp, fp, #12
2001238c:	e89da800 	ldm	sp, {fp, sp, pc}
20012390:	00001488 	andeq	a2, a1, v5, lsl #9
20012394:	0000002c 	andeq	a1, a1, ip, lsr #32
20012398:	00000088 	andeq	a1, a1, v5, lsl #1
2001239c:	000493df 	ldrdeq	v6, [v1], -pc	; <UNPREDICTABLE>

200123a0 <race_ex_2>:
200123a0:	e1a0c00d 	mov	ip, sp
200123a4:	e92dd800 	push	{fp, ip, lr, pc}
200123a8:	e24cb004 	sub	fp, ip, #4
200123ac:	e24dd010 	sub	sp, sp, #16
200123b0:	e59f108c 	ldr	a2, [pc, #140]	; 20012444 <race_ex_2+0xa4>
200123b4:	e50b101c 	str	a2, [fp, #-28]
200123b8:	e51b201c 	ldr	a3, [fp, #-28]
200123bc:	e08f2002 	add	a3, pc, a3
200123c0:	e50b201c 	str	a3, [fp, #-28]
200123c4:	e50b0018 	str	a1, [fp, #-24]
200123c8:	e3a03000 	mov	a4, #0
200123cc:	e50b3010 	str	a4, [fp, #-16]
200123d0:	ea000013 	b	20012424 <race_ex_2+0x84>
200123d4:	e59f306c 	ldr	a4, [pc, #108]	; 20012448 <race_ex_2+0xa8>
200123d8:	e51b101c 	ldr	a2, [fp, #-28]
200123dc:	e7913003 	ldr	a4, [a2, a4]
200123e0:	e5933000 	ldr	a4, [a4]
200123e4:	e2832003 	add	a3, a4, #3
200123e8:	e59f305c 	ldr	a4, [pc, #92]	; 2001244c <race_ex_2+0xac>
200123ec:	e51b101c 	ldr	a2, [fp, #-28]
200123f0:	e7913003 	ldr	a4, [a2, a4]
200123f4:	e5832000 	str	a3, [a4]
200123f8:	e59f304c 	ldr	a4, [pc, #76]	; 2001244c <race_ex_2+0xac>
200123fc:	e51b201c 	ldr	a3, [fp, #-28]
20012400:	e7923003 	ldr	a4, [a3, a4]
20012404:	e5932000 	ldr	a3, [a4]
20012408:	e59f3038 	ldr	a4, [pc, #56]	; 20012448 <race_ex_2+0xa8>
2001240c:	e51b101c 	ldr	a2, [fp, #-28]
20012410:	e7913003 	ldr	a4, [a2, a4]
20012414:	e5832000 	str	a3, [a4]
20012418:	e51b3010 	ldr	a4, [fp, #-16]
2001241c:	e2833001 	add	a4, a4, #1
20012420:	e50b3010 	str	a4, [fp, #-16]
20012424:	e51b2010 	ldr	a3, [fp, #-16]
20012428:	e59f3020 	ldr	a4, [pc, #32]	; 20012450 <race_ex_2+0xb0>
2001242c:	e1520003 	cmp	a3, a4
20012430:	daffffe7 	ble	200123d4 <race_ex_2+0x34>
20012434:	e3a03000 	mov	a4, #0
20012438:	e1a00003 	mov	a1, a4
2001243c:	e24bd00c 	sub	sp, fp, #12
20012440:	e89da800 	ldm	sp, {fp, sp, pc}
20012444:	000013d4 	ldrdeq	a2, [a1], -v1
20012448:	0000002c 	andeq	a1, a1, ip, lsr #32
2001244c:	00000078 	andeq	a1, a1, v5, ror a1
20012450:	000493df 	ldrdeq	v6, [v1], -pc	; <UNPREDICTABLE>

20012454 <VPOS_SHELL>:
20012454:	e1a0c00d 	mov	ip, sp
20012458:	e92dd800 	push	{fp, ip, lr, pc}
2001245c:	e24cb004 	sub	fp, ip, #4
20012460:	e24dd0a8 	sub	sp, sp, #168	; 0xa8
20012464:	e59f11b4 	ldr	a2, [pc, #436]	; 20012620 <VPOS_SHELL+0x1cc>
20012468:	e50b10b4 	str	a2, [fp, #-180]	; 0xb4
2001246c:	e51b20b4 	ldr	a3, [fp, #-180]	; 0xb4
20012470:	e08f2002 	add	a3, pc, a3
20012474:	e50b20b4 	str	a3, [fp, #-180]	; 0xb4
20012478:	e50b00b0 	str	a1, [fp, #-176]	; 0xb0
2001247c:	e59f31a0 	ldr	a4, [pc, #416]	; 20012624 <VPOS_SHELL+0x1d0>
20012480:	e51bc0b4 	ldr	ip, [fp, #-180]	; 0xb4
20012484:	e79c3003 	ldr	a4, [ip, a4]
20012488:	e5932000 	ldr	a3, [a4]
2001248c:	e59f3194 	ldr	a4, [pc, #404]	; 20012628 <VPOS_SHELL+0x1d4>
20012490:	e51b00b4 	ldr	a1, [fp, #-180]	; 0xb4
20012494:	e0803003 	add	a4, a1, a4
20012498:	e1a00003 	mov	a1, a4
2001249c:	e1a01002 	mov	a2, a3
200124a0:	ebffe99b 	bl	2000cb14 <printk>
200124a4:	e3a03000 	mov	a4, #0
200124a8:	e50b3018 	str	a4, [fp, #-24]
200124ac:	e3a03000 	mov	a4, #0
200124b0:	e50b3010 	str	a4, [fp, #-16]
200124b4:	e59f3170 	ldr	a4, [pc, #368]	; 2001262c <VPOS_SHELL+0x1d8>
200124b8:	e51b10b4 	ldr	a2, [fp, #-180]	; 0xb4
200124bc:	e0813003 	add	a4, a2, a4
200124c0:	e1a00003 	mov	a1, a4
200124c4:	ebffe992 	bl	2000cb14 <printk>
200124c8:	e24b307c 	sub	a4, fp, #124	; 0x7c
200124cc:	e1a00003 	mov	a1, a4
200124d0:	ebfff6de 	bl	20010050 <get_cmd>
200124d4:	e24b307c 	sub	a4, fp, #124	; 0x7c
200124d8:	e24b20a4 	sub	a3, fp, #164	; 0xa4
200124dc:	e1a00003 	mov	a1, a4
200124e0:	e1a01002 	mov	a2, a3
200124e4:	ebffe4d6 	bl	2000b844 <parse_args>
200124e8:	e1a03000 	mov	a4, a1
200124ec:	e50b3018 	str	a4, [fp, #-24]
200124f0:	e51b3018 	ldr	a4, [fp, #-24]
200124f4:	e3530000 	cmp	a4, #0
200124f8:	0affffeb 	beq	200124ac <VPOS_SHELL+0x58>
200124fc:	e3a03000 	mov	a4, #0
20012500:	e50b3014 	str	a4, [fp, #-20]
20012504:	ea00002e 	b	200125c4 <VPOS_SHELL+0x170>
20012508:	e51b00a4 	ldr	a1, [fp, #-164]	; 0xa4
2001250c:	e51b2014 	ldr	a3, [fp, #-20]
20012510:	e59f3118 	ldr	a4, [pc, #280]	; 20012630 <VPOS_SHELL+0x1dc>
20012514:	e51bc0b4 	ldr	ip, [fp, #-180]	; 0xb4
20012518:	e79c1003 	ldr	a2, [ip, a4]
2001251c:	e1a03002 	mov	a4, a3
20012520:	e1a02103 	lsl	a3, a4, #2
20012524:	e1a03102 	lsl	a4, a3, #2
20012528:	e0623003 	rsb	a4, a3, a4
2001252c:	e0813003 	add	a4, a2, a4
20012530:	e5933000 	ldr	a4, [a4]
20012534:	e1a01003 	mov	a2, a4
20012538:	ebfff80a 	bl	20010568 <strcmp>
2001253c:	e1a03000 	mov	a4, a1
20012540:	e3530000 	cmp	a4, #0
20012544:	1a00001b 	bne	200125b8 <VPOS_SHELL+0x164>
20012548:	e51b2014 	ldr	a3, [fp, #-20]
2001254c:	e59f30dc 	ldr	a4, [pc, #220]	; 20012630 <VPOS_SHELL+0x1dc>
20012550:	e51b00b4 	ldr	a1, [fp, #-180]	; 0xb4
20012554:	e7901003 	ldr	a2, [a1, a4]
20012558:	e3a00008 	mov	a1, #8
2001255c:	e1a03002 	mov	a4, a3
20012560:	e1a02103 	lsl	a3, a4, #2
20012564:	e1a03102 	lsl	a4, a3, #2
20012568:	e0623003 	rsb	a4, a3, a4
2001256c:	e0813003 	add	a4, a2, a4
20012570:	e0833000 	add	a4, a4, a1
20012574:	e593c000 	ldr	ip, [a4]
20012578:	e24b20ac 	sub	a3, fp, #172	; 0xac
2001257c:	e24b30a4 	sub	a4, fp, #164	; 0xa4
20012580:	e2833004 	add	a4, a4, #4
20012584:	e1a00002 	mov	a1, a3
20012588:	e3a01000 	mov	a2, #0
2001258c:	e1a0200c 	mov	a3, ip
20012590:	ebfffa02 	bl	20010da0 <pthread_create>
20012594:	e59f3098 	ldr	a4, [pc, #152]	; 20012634 <VPOS_SHELL+0x1e0>
20012598:	e51b10b4 	ldr	a2, [fp, #-180]	; 0xb4
2001259c:	e0813003 	add	a4, a2, a4
200125a0:	e1a00003 	mov	a1, a4
200125a4:	ebffe95a 	bl	2000cb14 <printk>
200125a8:	ebffdc8b 	bl	200097dc <vk_swi_scheduler>
200125ac:	e3a03001 	mov	a4, #1
200125b0:	e50b3010 	str	a4, [fp, #-16]
200125b4:	ea00000e 	b	200125f4 <VPOS_SHELL+0x1a0>
200125b8:	e51b3014 	ldr	a4, [fp, #-20]
200125bc:	e2833001 	add	a4, a4, #1
200125c0:	e50b3014 	str	a4, [fp, #-20]
200125c4:	e51b2014 	ldr	a3, [fp, #-20]
200125c8:	e59f3060 	ldr	a4, [pc, #96]	; 20012630 <VPOS_SHELL+0x1dc>
200125cc:	e51bc0b4 	ldr	ip, [fp, #-180]	; 0xb4
200125d0:	e79c1003 	ldr	a2, [ip, a4]
200125d4:	e1a03002 	mov	a4, a3
200125d8:	e1a02103 	lsl	a3, a4, #2
200125dc:	e1a03102 	lsl	a4, a3, #2
200125e0:	e0623003 	rsb	a4, a3, a4
200125e4:	e0813003 	add	a4, a2, a4
200125e8:	e5933000 	ldr	a4, [a4]
200125ec:	e3530000 	cmp	a4, #0
200125f0:	1affffc4 	bne	20012508 <VPOS_SHELL+0xb4>
200125f4:	e51b3010 	ldr	a4, [fp, #-16]
200125f8:	e3530000 	cmp	a4, #0
200125fc:	1affffaa 	bne	200124ac <VPOS_SHELL+0x58>
20012600:	e51b30a4 	ldr	a4, [fp, #-164]	; 0xa4
20012604:	e59f202c 	ldr	a3, [pc, #44]	; 20012638 <VPOS_SHELL+0x1e4>
20012608:	e51b00b4 	ldr	a1, [fp, #-180]	; 0xb4
2001260c:	e0802002 	add	a3, a1, a3
20012610:	e1a00002 	mov	a1, a3
20012614:	e1a01003 	mov	a2, a4
20012618:	ebffe93d 	bl	2000cb14 <printk>
2001261c:	eaffffa2 	b	200124ac <VPOS_SHELL+0x58>
20012620:	00001320 	andeq	a2, a1, a1, lsr #6
20012624:	0000002c 	andeq	a1, a1, ip, lsr #32
20012628:	fffffdc0 			; <UNDEFINED> instruction: 0xfffffdc0
2001262c:	fffffddc 			; <UNDEFINED> instruction: 0xfffffddc
20012630:	000000a0 	andeq	a1, a1, a1, lsr #1
20012634:	fffffd18 			; <UNDEFINED> instruction: 0xfffffd18
20012638:	fffffde4 			; <UNDEFINED> instruction: 0xfffffde4

2001263c <__aeabi_uidiv>:
2001263c:	e2512001 	subs	a3, a2, #1
20012640:	012fff1e 	bxeq	lr
20012644:	3a000023 	bcc	200126d8 <__aeabi_uidiv+0x9c>
20012648:	e1500001 	cmp	a1, a2
2001264c:	9a00001a 	bls	200126bc <__aeabi_uidiv+0x80>
20012650:	e1110002 	tst	a2, a3
20012654:	0a00001b 	beq	200126c8 <__aeabi_uidiv+0x8c>
20012658:	e16f3f11 	clz	a4, a2
2001265c:	e16f2f10 	clz	a3, a1
20012660:	e0432002 	sub	a3, a4, a3
20012664:	e3a03001 	mov	a4, #1
20012668:	e1a01211 	lsl	a2, a2, a3
2001266c:	e1a03213 	lsl	a4, a4, a3
20012670:	e3a02000 	mov	a3, #0
20012674:	e1500001 	cmp	a1, a2
20012678:	20400001 	subcs	a1, a1, a2
2001267c:	21822003 	orrcs	a3, a3, a4
20012680:	e15000a1 	cmp	a1, a2, lsr #1
20012684:	204000a1 	subcs	a1, a1, a2, lsr #1
20012688:	218220a3 	orrcs	a3, a3, a4, lsr #1
2001268c:	e1500121 	cmp	a1, a2, lsr #2
20012690:	20400121 	subcs	a1, a1, a2, lsr #2
20012694:	21822123 	orrcs	a3, a3, a4, lsr #2
20012698:	e15001a1 	cmp	a1, a2, lsr #3
2001269c:	204001a1 	subcs	a1, a1, a2, lsr #3
200126a0:	218221a3 	orrcs	a3, a3, a4, lsr #3
200126a4:	e3500000 	cmp	a1, #0
200126a8:	11b03223 	lsrsne	a4, a4, #4
200126ac:	11a01221 	lsrne	a2, a2, #4
200126b0:	1affffef 	bne	20012674 <__aeabi_uidiv+0x38>
200126b4:	e1a00002 	mov	a1, a3
200126b8:	e12fff1e 	bx	lr
200126bc:	03a00001 	moveq	a1, #1
200126c0:	13a00000 	movne	a1, #0
200126c4:	e12fff1e 	bx	lr
200126c8:	e16f2f11 	clz	a3, a2
200126cc:	e262201f 	rsb	a3, a3, #31
200126d0:	e1a00230 	lsr	a1, a1, a3
200126d4:	e12fff1e 	bx	lr
200126d8:	e52de008 	str	lr, [sp, #-8]!
200126dc:	eb000007 	bl	20012700 <__div0>
200126e0:	e3a00000 	mov	a1, #0
200126e4:	e49df008 	ldr	pc, [sp], #8

200126e8 <__aeabi_uidivmod>:
200126e8:	e92d4003 	push	{a1, a2, lr}
200126ec:	ebffffd2 	bl	2001263c <__aeabi_uidiv>
200126f0:	e8bd4006 	pop	{a2, a3, lr}
200126f4:	e0030092 	mul	a4, a3, a1
200126f8:	e0411003 	sub	a2, a2, a4
200126fc:	e12fff1e 	bx	lr

20012700 <__div0>:
20012700:	e92d4002 	push	{a2, lr}
20012704:	e3a00008 	mov	a1, #8
20012708:	eb000000 	bl	20012710 <raise>
2001270c:	e8bd8002 	pop	{a2, pc}

20012710 <raise>:
20012710:	e92d40b0 	push	{v1, v2, v4, lr}
20012714:	e1a05000 	mov	v2, a1
20012718:	eb000128 	bl	20012bc0 <__aeabi_read_tp>
2001271c:	e1a03000 	mov	a4, a1
20012720:	e5104458 	ldr	v1, [a1, #-1112]	; 0x458
20012724:	e5100454 	ldr	a1, [a1, #-1108]	; 0x454
20012728:	e3540000 	cmp	v1, #0
2001272c:	1a000027 	bne	200127d0 <raise+0xc0>
20012730:	e3a070e0 	mov	v4, #224	; 0xe0
20012734:	ef000000 	svc	0x00000000
20012738:	e1a04000 	mov	v1, a1
2001273c:	e5030458 	str	a1, [a4, #-1112]	; 0x458
20012740:	e1a02005 	mov	a3, v2
20012744:	e1a01004 	mov	a2, v1
20012748:	e3a07f43 	mov	v4, #268	; 0x10c
2001274c:	ef000000 	svc	0x00000000
20012750:	e3700a01 	cmn	a1, #4096	; 0x1000
20012754:	e1a01000 	mov	a2, a1
20012758:	8a000003 	bhi	2001276c <raise+0x5c>
2001275c:	e3700001 	cmn	a1, #1
20012760:	0a000006 	beq	20012780 <raise+0x70>
20012764:	e1a00001 	mov	a1, a2
20012768:	e8bd80b0 	pop	{v1, v2, v4, pc}
2001276c:	e59f3078 	ldr	a4, [pc, #120]	; 200127ec <raise+0xdc>
20012770:	eb000112 	bl	20012bc0 <__aeabi_read_tp>
20012774:	e79f3003 	ldr	a4, [pc, a4]
20012778:	e2612000 	rsb	a3, a2, #0
2001277c:	e7802003 	str	a3, [a1, a4]
20012780:	e59f3068 	ldr	a4, [pc, #104]	; 200127f0 <raise+0xe0>
20012784:	eb00010d 	bl	20012bc0 <__aeabi_read_tp>
20012788:	e79f3003 	ldr	a4, [pc, a4]
2001278c:	e1a0c000 	mov	ip, a1
20012790:	e7902003 	ldr	a3, [a1, a4]
20012794:	e3520026 	cmp	a3, #38	; 0x26
20012798:	13e01000 	mvnne	a2, #0
2001279c:	1afffff0 	bne	20012764 <raise+0x54>
200127a0:	e1a01005 	mov	a2, v2
200127a4:	e1a00004 	mov	a1, v1
200127a8:	e3a070ee 	mov	v4, #238	; 0xee
200127ac:	ef000000 	svc	0x00000000
200127b0:	e3700a01 	cmn	a1, #4096	; 0x1000
200127b4:	82602000 	rsbhi	a3, a1, #0
200127b8:	859f3034 	ldrhi	a4, [pc, #52]	; 200127f4 <raise+0xe4>
200127bc:	91a01000 	movls	a2, a1
200127c0:	879f3003 	ldrhi	a4, [pc, a4]
200127c4:	83e01000 	mvnhi	a2, #0
200127c8:	878c2003 	strhi	a3, [ip, a4]
200127cc:	eaffffe4 	b	20012764 <raise+0x54>
200127d0:	e3500000 	cmp	a1, #0
200127d4:	caffffd9 	bgt	20012740 <raise+0x30>
200127d8:	e3c03102 	bic	a4, a1, #-2147483648	; 0x80000000
200127dc:	e3530000 	cmp	a4, #0
200127e0:	01a00004 	moveq	a1, v1
200127e4:	12600000 	rsbne	a1, a1, #0
200127e8:	eaffffd4 	b	20012740 <raise+0x30>
200127ec:	0000106c 	andeq	a2, a1, ip, rrx
200127f0:	00001058 	andeq	a2, a1, v5, asr a1
200127f4:	00001020 	andeq	a2, a1, a1, lsr #32
	...

20012800 <memset>:
20012800:	e1a03000 	mov	a4, a1
20012804:	e3520008 	cmp	a3, #8
20012808:	3a000014 	bcc	20012860 <memset+0x60>
2001280c:	e3130003 	tst	a4, #3
20012810:	14c31001 	strbne	a2, [a4], #1
20012814:	12422001 	subne	a3, a3, #1
20012818:	1afffffb 	bne	2001280c <memset+0xc>
2001281c:	e20110ff 	and	a2, a2, #255	; 0xff
20012820:	e1811401 	orr	a2, a2, a2, lsl #8
20012824:	e1811801 	orr	a2, a2, a2, lsl #16
20012828:	e2522008 	subs	a3, a3, #8
2001282c:	24831004 	strcs	a2, [a4], #4
20012830:	24831004 	strcs	a2, [a4], #4
20012834:	22522008 	subscs	a3, a3, #8
20012838:	24831004 	strcs	a2, [a4], #4
2001283c:	24831004 	strcs	a2, [a4], #4
20012840:	22522008 	subscs	a3, a3, #8
20012844:	24831004 	strcs	a2, [a4], #4
20012848:	24831004 	strcs	a2, [a4], #4
2001284c:	22522008 	subscs	a3, a3, #8
20012850:	24831004 	strcs	a2, [a4], #4
20012854:	24831004 	strcs	a2, [a4], #4
20012858:	2afffff2 	bcs	20012828 <memset+0x28>
2001285c:	e2022007 	and	a3, a3, #7
20012860:	e2522001 	subs	a3, a3, #1
20012864:	24c31001 	strbcs	a2, [a4], #1
20012868:	22522001 	subscs	a3, a3, #1
2001286c:	24c31001 	strbcs	a2, [a4], #1
20012870:	22522001 	subscs	a3, a3, #1
20012874:	24c31001 	strbcs	a2, [a4], #1
20012878:	22522001 	subscs	a3, a3, #1
2001287c:	24c31001 	strbcs	a2, [a4], #1
20012880:	2afffff6 	bcs	20012860 <memset+0x60>
20012884:	e12fff1e 	bx	lr
20012888:	e1a00000 	nop			; (mov r0, r0)
2001288c:	e1a00000 	nop			; (mov r0, r0)

20012890 <memcpy>:
20012890:	e92d4011 	push	{a1, v1, lr}
20012894:	e2522004 	subs	a3, a3, #4
20012898:	ba00002b 	blt	2001294c <memcpy+0xbc>
2001289c:	e210c003 	ands	ip, a1, #3
200128a0:	f5d1f000 	pld	[a2]
200128a4:	1a000030 	bne	2001296c <memcpy+0xdc>
200128a8:	e211c003 	ands	ip, a2, #3
200128ac:	1a00003a 	bne	2001299c <memcpy+0x10c>
200128b0:	e252201c 	subs	a3, a3, #28
200128b4:	e92d01e0 	push	{v2, v3, v4, v5}
200128b8:	ba00000c 	blt	200128f0 <memcpy+0x60>
200128bc:	f5d1f000 	pld	[a2]
200128c0:	e2522060 	subs	a3, a3, #96	; 0x60
200128c4:	f5d1f01c 	pld	[a2, #28]
200128c8:	ba000002 	blt	200128d8 <memcpy+0x48>
200128cc:	f5d1f03c 	pld	[a2, #60]	; 0x3c
200128d0:	f5d1f05c 	pld	[a2, #92]	; 0x5c
200128d4:	f5d1f07c 	pld	[a2, #124]	; 0x7c
200128d8:	e8b151f8 	ldm	a2!, {a4, v1, v2, v3, v4, v5, ip, lr}
200128dc:	e2522020 	subs	a3, a3, #32
200128e0:	e8a051f8 	stmia	a1!, {a4, v1, v2, v3, v4, v5, ip, lr}
200128e4:	aafffffa 	bge	200128d4 <memcpy+0x44>
200128e8:	e3720060 	cmn	a3, #96	; 0x60
200128ec:	aafffff9 	bge	200128d8 <memcpy+0x48>
200128f0:	e212c01c 	ands	ip, a3, #28
200128f4:	e26cc020 	rsb	ip, ip, #32
200128f8:	108ff00c 	addne	pc, pc, ip
200128fc:	ea000011 	b	20012948 <memcpy+0xb8>
20012900:	e1a00000 	nop			; (mov r0, r0)
20012904:	e4913004 	ldr	a4, [a2], #4
20012908:	e4914004 	ldr	v1, [a2], #4
2001290c:	e4915004 	ldr	v2, [a2], #4
20012910:	e4916004 	ldr	v3, [a2], #4
20012914:	e4917004 	ldr	v4, [a2], #4
20012918:	e4918004 	ldr	v5, [a2], #4
2001291c:	e491e004 	ldr	lr, [a2], #4
20012920:	e08ff00c 	add	pc, pc, ip
20012924:	e1a00000 	nop			; (mov r0, r0)
20012928:	e1a00000 	nop			; (mov r0, r0)
2001292c:	e4803004 	str	a4, [a1], #4
20012930:	e4804004 	str	v1, [a1], #4
20012934:	e4805004 	str	v2, [a1], #4
20012938:	e4806004 	str	v3, [a1], #4
2001293c:	e4807004 	str	v4, [a1], #4
20012940:	e4808004 	str	v5, [a1], #4
20012944:	e480e004 	str	lr, [a1], #4
20012948:	e8bd01e0 	pop	{v2, v3, v4, v5}
2001294c:	e1b02f82 	lsls	a3, a3, #31
20012950:	14d13001 	ldrbne	a4, [a2], #1
20012954:	24d14001 	ldrbcs	v1, [a2], #1
20012958:	25d1c000 	ldrbcs	ip, [a2]
2001295c:	14c03001 	strbne	a4, [a1], #1
20012960:	24c04001 	strbcs	v1, [a1], #1
20012964:	25c0c000 	strbcs	ip, [a1]
20012968:	e8bd8011 	pop	{a1, v1, pc}
2001296c:	e26cc004 	rsb	ip, ip, #4
20012970:	e35c0002 	cmp	ip, #2
20012974:	c4d13001 	ldrbgt	a4, [a2], #1
20012978:	a4d14001 	ldrbge	v1, [a2], #1
2001297c:	e4d1e001 	ldrb	lr, [a2], #1
20012980:	c4c03001 	strbgt	a4, [a1], #1
20012984:	a4c04001 	strbge	v1, [a1], #1
20012988:	e052200c 	subs	a3, a3, ip
2001298c:	e4c0e001 	strb	lr, [a1], #1
20012990:	baffffed 	blt	2001294c <memcpy+0xbc>
20012994:	e211c003 	ands	ip, a2, #3
20012998:	0affffc4 	beq	200128b0 <memcpy+0x20>
2001299c:	e3c11003 	bic	a2, a2, #3
200129a0:	e35c0002 	cmp	ip, #2
200129a4:	e491e004 	ldr	lr, [a2], #4
200129a8:	0a00002c 	beq	20012a60 <memcpy+0x1d0>
200129ac:	ca000057 	bgt	20012b10 <memcpy+0x280>
200129b0:	e252201c 	subs	a3, a3, #28
200129b4:	ba00001f 	blt	20012a38 <memcpy+0x1a8>
200129b8:	e92d03e0 	push	{v2, v3, v4, v5, v6}
200129bc:	f5d1f000 	pld	[a2]
200129c0:	e2522060 	subs	a3, a3, #96	; 0x60
200129c4:	f5d1f01c 	pld	[a2, #28]
200129c8:	ba000002 	blt	200129d8 <memcpy+0x148>
200129cc:	f5d1f03c 	pld	[a2, #60]	; 0x3c
200129d0:	f5d1f05c 	pld	[a2, #92]	; 0x5c
200129d4:	f5d1f07c 	pld	[a2, #124]	; 0x7c
200129d8:	e8b100f0 	ldm	a2!, {v1, v2, v3, v4}
200129dc:	e1a0342e 	lsr	a4, lr, #8
200129e0:	e2522020 	subs	a3, a3, #32
200129e4:	e8b15300 	ldm	a2!, {v5, v6, ip, lr}
200129e8:	e1833c04 	orr	a4, a4, v1, lsl #24
200129ec:	e1a04424 	lsr	v1, v1, #8
200129f0:	e1844c05 	orr	v1, v1, v2, lsl #24
200129f4:	e1a05425 	lsr	v2, v2, #8
200129f8:	e1855c06 	orr	v2, v2, v3, lsl #24
200129fc:	e1a06426 	lsr	v3, v3, #8
20012a00:	e1866c07 	orr	v3, v3, v4, lsl #24
20012a04:	e1a07427 	lsr	v4, v4, #8
20012a08:	e1877c08 	orr	v4, v4, v5, lsl #24
20012a0c:	e1a08428 	lsr	v5, v5, #8
20012a10:	e1888c09 	orr	v5, v5, v6, lsl #24
20012a14:	e1a09429 	lsr	v6, v6, #8
20012a18:	e1899c0c 	orr	v6, v6, ip, lsl #24
20012a1c:	e1a0c42c 	lsr	ip, ip, #8
20012a20:	e18ccc0e 	orr	ip, ip, lr, lsl #24
20012a24:	e8a013f8 	stmia	a1!, {a4, v1, v2, v3, v4, v5, v6, ip}
20012a28:	aaffffe9 	bge	200129d4 <memcpy+0x144>
20012a2c:	e3720060 	cmn	a3, #96	; 0x60
20012a30:	aaffffe8 	bge	200129d8 <memcpy+0x148>
20012a34:	e8bd03e0 	pop	{v2, v3, v4, v5, v6}
20012a38:	e212c01c 	ands	ip, a3, #28
20012a3c:	0a000005 	beq	20012a58 <memcpy+0x1c8>
20012a40:	e1a0342e 	lsr	a4, lr, #8
20012a44:	e491e004 	ldr	lr, [a2], #4
20012a48:	e25cc004 	subs	ip, ip, #4
20012a4c:	e1833c0e 	orr	a4, a4, lr, lsl #24
20012a50:	e4803004 	str	a4, [a1], #4
20012a54:	cafffff9 	bgt	20012a40 <memcpy+0x1b0>
20012a58:	e2411003 	sub	a2, a2, #3
20012a5c:	eaffffba 	b	2001294c <memcpy+0xbc>
20012a60:	e252201c 	subs	a3, a3, #28
20012a64:	ba00001f 	blt	20012ae8 <memcpy+0x258>
20012a68:	e92d03e0 	push	{v2, v3, v4, v5, v6}
20012a6c:	f5d1f000 	pld	[a2]
20012a70:	e2522060 	subs	a3, a3, #96	; 0x60
20012a74:	f5d1f01c 	pld	[a2, #28]
20012a78:	ba000002 	blt	20012a88 <memcpy+0x1f8>
20012a7c:	f5d1f03c 	pld	[a2, #60]	; 0x3c
20012a80:	f5d1f05c 	pld	[a2, #92]	; 0x5c
20012a84:	f5d1f07c 	pld	[a2, #124]	; 0x7c
20012a88:	e8b100f0 	ldm	a2!, {v1, v2, v3, v4}
20012a8c:	e1a0382e 	lsr	a4, lr, #16
20012a90:	e2522020 	subs	a3, a3, #32
20012a94:	e8b15300 	ldm	a2!, {v5, v6, ip, lr}
20012a98:	e1833804 	orr	a4, a4, v1, lsl #16
20012a9c:	e1a04824 	lsr	v1, v1, #16
20012aa0:	e1844805 	orr	v1, v1, v2, lsl #16
20012aa4:	e1a05825 	lsr	v2, v2, #16
20012aa8:	e1855806 	orr	v2, v2, v3, lsl #16
20012aac:	e1a06826 	lsr	v3, v3, #16
20012ab0:	e1866807 	orr	v3, v3, v4, lsl #16
20012ab4:	e1a07827 	lsr	v4, v4, #16
20012ab8:	e1877808 	orr	v4, v4, v5, lsl #16
20012abc:	e1a08828 	lsr	v5, v5, #16
20012ac0:	e1888809 	orr	v5, v5, v6, lsl #16
20012ac4:	e1a09829 	lsr	v6, v6, #16
20012ac8:	e189980c 	orr	v6, v6, ip, lsl #16
20012acc:	e1a0c82c 	lsr	ip, ip, #16
20012ad0:	e18cc80e 	orr	ip, ip, lr, lsl #16
20012ad4:	e8a013f8 	stmia	a1!, {a4, v1, v2, v3, v4, v5, v6, ip}
20012ad8:	aaffffe9 	bge	20012a84 <memcpy+0x1f4>
20012adc:	e3720060 	cmn	a3, #96	; 0x60
20012ae0:	aaffffe8 	bge	20012a88 <memcpy+0x1f8>
20012ae4:	e8bd03e0 	pop	{v2, v3, v4, v5, v6}
20012ae8:	e212c01c 	ands	ip, a3, #28
20012aec:	0a000005 	beq	20012b08 <memcpy+0x278>
20012af0:	e1a0382e 	lsr	a4, lr, #16
20012af4:	e491e004 	ldr	lr, [a2], #4
20012af8:	e25cc004 	subs	ip, ip, #4
20012afc:	e183380e 	orr	a4, a4, lr, lsl #16
20012b00:	e4803004 	str	a4, [a1], #4
20012b04:	cafffff9 	bgt	20012af0 <memcpy+0x260>
20012b08:	e2411002 	sub	a2, a2, #2
20012b0c:	eaffff8e 	b	2001294c <memcpy+0xbc>
20012b10:	e252201c 	subs	a3, a3, #28
20012b14:	ba00001f 	blt	20012b98 <memcpy+0x308>
20012b18:	e92d03e0 	push	{v2, v3, v4, v5, v6}
20012b1c:	f5d1f000 	pld	[a2]
20012b20:	e2522060 	subs	a3, a3, #96	; 0x60
20012b24:	f5d1f01c 	pld	[a2, #28]
20012b28:	ba000002 	blt	20012b38 <memcpy+0x2a8>
20012b2c:	f5d1f03c 	pld	[a2, #60]	; 0x3c
20012b30:	f5d1f05c 	pld	[a2, #92]	; 0x5c
20012b34:	f5d1f07c 	pld	[a2, #124]	; 0x7c
20012b38:	e8b100f0 	ldm	a2!, {v1, v2, v3, v4}
20012b3c:	e1a03c2e 	lsr	a4, lr, #24
20012b40:	e2522020 	subs	a3, a3, #32
20012b44:	e8b15300 	ldm	a2!, {v5, v6, ip, lr}
20012b48:	e1833404 	orr	a4, a4, v1, lsl #8
20012b4c:	e1a04c24 	lsr	v1, v1, #24
20012b50:	e1844405 	orr	v1, v1, v2, lsl #8
20012b54:	e1a05c25 	lsr	v2, v2, #24
20012b58:	e1855406 	orr	v2, v2, v3, lsl #8
20012b5c:	e1a06c26 	lsr	v3, v3, #24
20012b60:	e1866407 	orr	v3, v3, v4, lsl #8
20012b64:	e1a07c27 	lsr	v4, v4, #24
20012b68:	e1877408 	orr	v4, v4, v5, lsl #8
20012b6c:	e1a08c28 	lsr	v5, v5, #24
20012b70:	e1888409 	orr	v5, v5, v6, lsl #8
20012b74:	e1a09c29 	lsr	v6, v6, #24
20012b78:	e189940c 	orr	v6, v6, ip, lsl #8
20012b7c:	e1a0cc2c 	lsr	ip, ip, #24
20012b80:	e18cc40e 	orr	ip, ip, lr, lsl #8
20012b84:	e8a013f8 	stmia	a1!, {a4, v1, v2, v3, v4, v5, v6, ip}
20012b88:	aaffffe9 	bge	20012b34 <memcpy+0x2a4>
20012b8c:	e3720060 	cmn	a3, #96	; 0x60
20012b90:	aaffffe8 	bge	20012b38 <memcpy+0x2a8>
20012b94:	e8bd03e0 	pop	{v2, v3, v4, v5, v6}
20012b98:	e212c01c 	ands	ip, a3, #28
20012b9c:	0a000005 	beq	20012bb8 <memcpy+0x328>
20012ba0:	e1a03c2e 	lsr	a4, lr, #24
20012ba4:	e491e004 	ldr	lr, [a2], #4
20012ba8:	e25cc004 	subs	ip, ip, #4
20012bac:	e183340e 	orr	a4, a4, lr, lsl #8
20012bb0:	e4803004 	str	a4, [a1], #4
20012bb4:	cafffff9 	bgt	20012ba0 <memcpy+0x310>
20012bb8:	e2411001 	sub	a2, a2, #1
20012bbc:	eaffff62 	b	2001294c <memcpy+0xbc>

20012bc0 <__aeabi_read_tp>:
20012bc0:	e3e00a0f 	mvn	a1, #61440	; 0xf000
20012bc4:	e240f01f 	sub	pc, a1, #31
20012bc8:	e1a00000 	nop			; (mov r0, r0)
20012bcc:	e1a00000 	nop			; (mov r0, r0)
