
vpos_kernel-elf32:     file format elf32-littlearm


Disassembly of section .text:

20008000 <vh_VPOS_STARTUP>:
20008000:	e1a00000 	nop			(mov r0,r0)
20008004:	e1a00000 	nop			(mov r0,r0)
20008008:	e1a00000 	nop			(mov r0,r0)
2000800c:	e1a00000 	nop			(mov r0,r0)
20008010:	e1a00000 	nop			(mov r0,r0)
20008014:	e1a00000 	nop			(mov r0,r0)
20008018:	e1a00000 	nop			(mov r0,r0)
2000801c:	e1a00000 	nop			(mov r0,r0)
20008020:	ea00000e 	b	20008060 <vh_VPOS_reset>

20008024 <magicn>:
20008024:	016f2818 	.word	0x016f2818

20008028 <startn>:
20008028:	00000000 	.word	0x00000000

2000802c <endn>:
2000802c:	0000d8fc 	.word	0x0000d8fc
20008030:	e1a00000 	nop			(mov r0,r0)
20008034:	e1a00000 	nop			(mov r0,r0)
20008038:	e1a00000 	nop			(mov r0,r0)
2000803c:	e1a00000 	nop			(mov r0,r0)

20008040 <vh_vector_start>:
20008040:	ea000006 	b	20008060 <vh_VPOS_reset>
20008044:	ea000037 	b	20008128 <vk_undef>
20008048:	ea00003e 	b	20008148 <vh_entering_swi>
2000804c:	ea000074 	b	20008224 <vh_irq_VIC1>
20008050:	ea000036 	b	20008130 <vk_dabort>
20008054:	ea000559 	b	200095c0 <vk_not_used_handler>
20008058:	ea000050 	b	200081a0 <vh_irq>
2000805c:	ea00054b 	b	20009590 <vk_fiq_handler>

20008060 <vh_VPOS_reset>:
20008060:	e3a00000 	mov	r0, #0	; 0x0
20008064:	e58f02d8 	str	r0, [pc, #728]	; 20008344 <vk_save_swi_mode_stack_ptr>
20008068:	e58f02d8 	str	r0, [pc, #728]	; 20008348 <vk_save_swi_current_tcb_bottom>
2000806c:	e58f02d8 	str	r0, [pc, #728]	; 2000834c <vk_save_irq_mode_stack_ptr>
20008070:	e58f02d8 	str	r0, [pc, #728]	; 20008350 <vk_save_irq_current_tcb_bottom>
20008074:	e10f0000 	mrs	r0, CPSR
20008078:	e38000c0 	orr	r0, r0, #192	; 0xc0
2000807c:	e129f000 	msr	CPSR_fc, r0
20008080:	e3a00000 	mov	r0, #0	; 0x0
20008084:	ee070f15 	mcr	15, 0, r0, cr7, cr5, {0}
20008088:	ee110f10 	mrc	15, 0, r0, cr1, cr0, {0}
2000808c:	e3c00001 	bic	r0, r0, #1	; 0x1
20008090:	e3c00004 	bic	r0, r0, #4	; 0x4
20008094:	e3c00a01 	bic	r0, r0, #4096	; 0x1000
20008098:	e3c00a02 	bic	r0, r0, #8192	; 0x2000
2000809c:	e3800002 	orr	r0, r0, #2	; 0x2
200080a0:	e3800b02 	orr	r0, r0, #2048	; 0x800
200080a4:	ee010f10 	mcr	15, 0, r0, cr1, cr0, {0}
200080a8:	e59f02b0 	ldr	r0, [pc, #688]	; 20008360 <vk_error_addr+0x4>
200080ac:	ee0c0f10 	mcr	15, 0, r0, cr12, cr0, {0}
200080b0:	e10f0000 	mrs	r0, CPSR
200080b4:	e3c000df 	bic	r0, r0, #223	; 0xdf
200080b8:	e38010db 	orr	r1, r0, #219	; 0xdb
200080bc:	e12ff001 	msr	CPSR_fsxc, r1
200080c0:	e59fd29c 	ldr	sp, [pc, #668]	; 20008364 <vk_error_addr+0x8>
200080c4:	e3c000df 	bic	r0, r0, #223	; 0xdf
200080c8:	e38010d7 	orr	r1, r0, #215	; 0xd7
200080cc:	e12ff001 	msr	CPSR_fsxc, r1
200080d0:	e3a0d586 	mov	sp, #562036736	; 0x21800000
200080d4:	e3c000df 	bic	r0, r0, #223	; 0xdf
200080d8:	e38010d2 	orr	r1, r0, #210	; 0xd2
200080dc:	e12ff001 	msr	CPSR_fsxc, r1
200080e0:	e59fd280 	ldr	sp, [pc, #640]	; 20008368 <vk_error_addr+0xc>
200080e4:	e3c000df 	bic	r0, r0, #223	; 0xdf
200080e8:	e38010d1 	orr	r1, r0, #209	; 0xd1
200080ec:	e12ff001 	msr	CPSR_fsxc, r1
200080f0:	e3a0d587 	mov	sp, #566231040	; 0x21c00000
200080f4:	e3c000df 	bic	r0, r0, #223	; 0xdf
200080f8:	e38010d3 	orr	r1, r0, #211	; 0xd3
200080fc:	e12ff001 	msr	CPSR_fsxc, r1
20008100:	e3a0d585 	mov	sp, #557842432	; 0x21400000
20008104:	e3c000df 	bic	r0, r0, #223	; 0xdf
20008108:	e3801010 	orr	r1, r0, #16	; 0x10
2000810c:	e12ff001 	msr	CPSR_fsxc, r1
20008110:	e59fd254 	ldr	sp, [pc, #596]	; 2000836c <vk_error_addr+0x10>
20008114:	ea00063d 	b	20009a10 <VPOS_kernel_main>

20008118 <vt_read_sp>:
20008118:	e1a0000d 	mov	r0, sp
2000811c:	e1a0f00e 	mov	pc, lr

20008120 <vt_read>:
20008120:	e10f0000 	mrs	r0, CPSR
20008124:	e1a0f00e 	mov	pc, lr

20008128 <vk_undef>:
20008128:	e58fe22c 	str	lr, [pc, #556]	; 2000835c <vk_error_addr>
2000812c:	ea0004e5 	b	200094c8 <vk_undef_handler>

20008130 <vk_dabort>:
20008130:	e58fe224 	str	lr, [pc, #548]	; 2000835c <vk_error_addr>
20008134:	ea000505 	b	20009550 <vk_dabort_handler>

20008138 <vh_svc_int_enable>:
20008138:	e10f0000 	mrs	r0, CPSR
2000813c:	e3c00080 	bic	r0, r0, #128	; 0x80
20008140:	e129f000 	msr	CPSR_fc, r0
20008144:	e12fff1e 	bx	lr

20008148 <vh_entering_swi>:
20008148:	e58fd1f4 	str	sp, [pc, #500]	; 20008344 <vk_save_swi_mode_stack_ptr>
2000814c:	e94d4000 	stmdb	sp, {lr}^
20008150:	e24dd004 	sub	sp, sp, #4	; 0x4
20008154:	e94d2000 	stmdb	sp, {sp}^
20008158:	e24dd004 	sub	sp, sp, #4	; 0x4
2000815c:	e92d1fff 	push	{r0, r1, r2, r3, r4, r5, r6, r7, r8, r9, sl, fp, ip}
20008160:	e14f0000 	mrs	r0, SPSR
20008164:	e92d4001 	push	{r0, lr}
20008168:	e10f0000 	mrs	r0, CPSR
2000816c:	e3800080 	orr	r0, r0, #128	; 0x80
20008170:	e129f000 	msr	CPSR_fc, r0
20008174:	e58fd1cc 	str	sp, [pc, #460]	; 20008348 <vk_save_swi_current_tcb_bottom>
20008178:	e59d0008 	ldr	r0, [sp, #8]
2000817c:	eb000529 	bl	20009628 <vk_swi_classifier>

20008180 <vh_leaving_swi>:
20008180:	e8bd4001 	pop	{r0, lr}
20008184:	e169f000 	msr	SPSR_fc, r0
20008188:	e8bd1fff 	pop	{r0, r1, r2, r3, r4, r5, r6, r7, r8, r9, sl, fp, ip}
2000818c:	e8dd2000 	ldm	sp, {sp}^
20008190:	e28dd004 	add	sp, sp, #4	; 0x4
20008194:	e8dd4000 	ldm	sp, {lr}^
20008198:	e28dd004 	add	sp, sp, #4	; 0x4
2000819c:	e1b0f00e 	movs	pc, lr

200081a0 <vh_irq>:
200081a0:	e24ee004 	sub	lr, lr, #4	; 0x4
200081a4:	e58fd1a0 	str	sp, [pc, #416]	; 2000834c <vk_save_irq_mode_stack_ptr>
200081a8:	e94d4000 	stmdb	sp, {lr}^
200081ac:	e24dd004 	sub	sp, sp, #4	; 0x4
200081b0:	e94d2000 	stmdb	sp, {sp}^
200081b4:	e24dd004 	sub	sp, sp, #4	; 0x4
200081b8:	e92d1fff 	push	{r0, r1, r2, r3, r4, r5, r6, r7, r8, r9, sl, fp, ip}
200081bc:	e14f0000 	mrs	r0, SPSR
200081c0:	e92d4001 	push	{r0, lr}
200081c4:	e58fd184 	str	sp, [pc, #388]	; 20008350 <vk_save_irq_current_tcb_bottom>
200081c8:	e3a00339 	mov	r0, #-469762048	; 0xe4000000
200081cc:	e5901000 	ldr	r1, [r0]
200081d0:	e3510000 	cmp	r1, #0	; 0x0
200081d4:	1a000003 	bne	200081e8 <vh_irq_VIC0>
200081d8:	e3a00339 	mov	r0, #-469762048	; 0xe4000000
200081dc:	e5901000 	ldr	r1, [r0]
200081e0:	e3510000 	cmp	r1, #0	; 0x0
200081e4:	1a00000e 	bne	20008224 <vh_irq_VIC1>

200081e8 <vh_irq_VIC0>:
200081e8:	e59f0180 	ldr	r0, [pc, #384]	; 20008370 <vk_error_addr+0x14>
200081ec:	e5901000 	ldr	r1, [r0]
200081f0:	e1a0e00f 	mov	lr, pc
200081f4:	e1a0f001 	mov	pc, r1
200081f8:	e321f092 	msr	CPSR_c, #146	; 0x92
200081fc:	e59fe16c 	ldr	lr, [pc, #364]	; 20008370 <vk_error_addr+0x14>
20008200:	e58ee000 	str	lr, [lr]
20008204:	e8bd4001 	pop	{r0, lr}
20008208:	e16ff000 	msr	SPSR_fsxc, r0
2000820c:	e8bd1fff 	pop	{r0, r1, r2, r3, r4, r5, r6, r7, r8, r9, sl, fp, ip}
20008210:	e8dd2000 	ldm	sp, {sp}^
20008214:	e28dd004 	add	sp, sp, #4	; 0x4
20008218:	e8dd4000 	ldm	sp, {lr}^
2000821c:	e28dd004 	add	sp, sp, #4	; 0x4
20008220:	e1b0f00e 	movs	pc, lr

20008224 <vh_irq_VIC1>:
20008224:	e3a0d586 	mov	sp, #562036736	; 0x21800000
20008228:	e24ee004 	sub	lr, lr, #4	; 0x4
2000822c:	e58fd120 	str	sp, [pc, #288]	; 20008354 <vk_save_pabort_stack_ptr>
20008230:	e96d7fff 	stmdb	sp!, {r0, r1, r2, r3, r4, r5, r6, r7, r8, r9, sl, fp, ip, sp, lr}^
20008234:	e14f0000 	mrs	r0, SPSR
20008238:	e92d4001 	push	{r0, lr}
2000823c:	e58fd114 	str	sp, [pc, #276]	; 20008358 <vk_save_pabort_current_tcb_bottom>
20008240:	eb0004b0 	bl	20009508 <vk_pabort_handler>

20008244 <vh_leaving_pabort>:
20008244:	e8bd4001 	pop	{r0, lr}
20008248:	e169f000 	msr	SPSR_fc, r0
2000824c:	e8fd1fff 	ldm	sp!, {r0, r1, r2, r3, r4, r5, r6, r7, r8, r9, sl, fp, ip}^
20008250:	e8dd2000 	ldm	sp, {sp}^
20008254:	e28dd004 	add	sp, sp, #4	; 0x4
20008258:	e8fd4000 	ldm	sp!, {lr}^
2000825c:	e1b0f00e 	movs	pc, lr

20008260 <vh_restore_thread_ctx>:
20008260:	e1a0d000 	mov	sp, r0
20008264:	e8bd4001 	pop	{r0, lr}
20008268:	e169f000 	msr	SPSR_fc, r0
2000826c:	e8bd1fff 	pop	{r0, r1, r2, r3, r4, r5, r6, r7, r8, r9, sl, fp, ip}
20008270:	e8dd2000 	ldm	sp, {sp}^
20008274:	e28dd004 	add	sp, sp, #4	; 0x4
20008278:	e8fd4000 	ldm	sp!, {lr}^
2000827c:	e59fd0c0 	ldr	sp, [pc, #192]	; 20008344 <vk_save_swi_mode_stack_ptr>
20008280:	e1b0f00e 	movs	pc, lr

20008284 <vr_save_thread_ctx>:
20008284:	e59f20cc 	ldr	r2, [pc, #204]	; 20008358 <vk_save_pabort_current_tcb_bottom>
20008288:	ea00000a 	b	200082b8 <vh_save_ctx_bottom>

2000828c <vh_change_ctx>:
2000828c:	e1a02000 	mov	r2, r0
20008290:	e59f00b0 	ldr	r0, [pc, #176]	; 20008348 <vk_save_swi_current_tcb_bottom>
20008294:	ea000007 	b	200082b8 <vh_save_ctx_bottom>

20008298 <vh_save_thread_ctx>:
20008298:	e10f1000 	mrs	r1, CPSR
2000829c:	e201100f 	and	r1, r1, #15	; 0xf
200082a0:	e3a02002 	mov	r2, #2	; 0x2
200082a4:	e1510002 	cmp	r1, r2
200082a8:	059f20a0 	ldreq	r2, [pc, #160]	; 20008350 <vk_save_irq_current_tcb_bottom>
200082ac:	159f10c0 	ldrne	r1, [pc, #192]	; 20008374 <vk_error_addr+0x18>
200082b0:	15912000 	ldrne	r2, [r1]
200082b4:	eaffffff 	b	200082b8 <vh_save_ctx_bottom>

200082b8 <vh_save_ctx_bottom>:
200082b8:	e4921004 	ldr	r1, [r2], #4
200082bc:	e4801004 	str	r1, [r0], #4
200082c0:	e4921004 	ldr	r1, [r2], #4
200082c4:	e4801004 	str	r1, [r0], #4
200082c8:	e4921004 	ldr	r1, [r2], #4
200082cc:	e4801004 	str	r1, [r0], #4
200082d0:	e4921004 	ldr	r1, [r2], #4
200082d4:	e4801004 	str	r1, [r0], #4
200082d8:	e4921004 	ldr	r1, [r2], #4
200082dc:	e4801004 	str	r1, [r0], #4
200082e0:	e4921004 	ldr	r1, [r2], #4
200082e4:	e4801004 	str	r1, [r0], #4
200082e8:	e4921004 	ldr	r1, [r2], #4
200082ec:	e4801004 	str	r1, [r0], #4
200082f0:	e4921004 	ldr	r1, [r2], #4
200082f4:	e4801004 	str	r1, [r0], #4
200082f8:	e4921004 	ldr	r1, [r2], #4
200082fc:	e4801004 	str	r1, [r0], #4
20008300:	e4921004 	ldr	r1, [r2], #4
20008304:	e4801004 	str	r1, [r0], #4
20008308:	e4921004 	ldr	r1, [r2], #4
2000830c:	e4801004 	str	r1, [r0], #4
20008310:	e4921004 	ldr	r1, [r2], #4
20008314:	e4801004 	str	r1, [r0], #4
20008318:	e4921004 	ldr	r1, [r2], #4
2000831c:	e4801004 	str	r1, [r0], #4
20008320:	e4921004 	ldr	r1, [r2], #4
20008324:	e4801004 	str	r1, [r0], #4
20008328:	e4921004 	ldr	r1, [r2], #4
2000832c:	e4801004 	str	r1, [r0], #4
20008330:	e4921004 	ldr	r1, [r2], #4
20008334:	e4801004 	str	r1, [r0], #4
20008338:	e4921004 	ldr	r1, [r2], #4
2000833c:	e4801004 	str	r1, [r0], #4
20008340:	e1a0f00e 	mov	pc, lr

20008344 <vk_save_swi_mode_stack_ptr>:
20008344:	00000000 	.word	0x00000000

20008348 <vk_save_swi_current_tcb_bottom>:
20008348:	00000000 	.word	0x00000000

2000834c <vk_save_irq_mode_stack_ptr>:
2000834c:	00000000 	.word	0x00000000

20008350 <vk_save_irq_current_tcb_bottom>:
20008350:	00000000 	.word	0x00000000

20008354 <vk_save_pabort_stack_ptr>:
20008354:	00000000 	.word	0x00000000

20008358 <vk_save_pabort_current_tcb_bottom>:
20008358:	00000000 	.word	0x00000000

2000835c <vk_error_addr>:
2000835c:	00000000 	.word	0x00000000
20008360:	20008044 	.word	0x20008044
20008364:	21a00000 	.word	0x21a00000
20008368:	21600000 	.word	0x21600000
2000836c:	21200000 	.word	0x21200000
20008370:	e4100f00 	.word	0xe4100f00
20008374:	201080bc 	.word	0x201080bc

20008378 <pthread_barrier_init>:
20008378:	e1a0c00d 	mov	ip, sp
2000837c:	e92dd800 	push	{fp, ip, lr, pc}
20008380:	e24cb004 	sub	fp, ip, #4	; 0x4
20008384:	e24dd018 	sub	sp, sp, #24	; 0x18
20008388:	e50b0018 	str	r0, [fp, #-24]
2000838c:	e50b101c 	str	r1, [fp, #-28]
20008390:	e50b2020 	str	r2, [fp, #-32]
20008394:	e3a00020 	mov	r0, #32	; 0x20
20008398:	eb000726 	bl	2000a038 <malloc>
2000839c:	e1a03000 	mov	r3, r0
200083a0:	e50b3010 	str	r3, [fp, #-16]
200083a4:	e51b2018 	ldr	r2, [fp, #-24]
200083a8:	e51b3010 	ldr	r3, [fp, #-16]
200083ac:	e5823000 	str	r3, [r2]
200083b0:	e51b3018 	ldr	r3, [fp, #-24]
200083b4:	e5932000 	ldr	r2, [r3]
200083b8:	e51b3020 	ldr	r3, [fp, #-32]
200083bc:	e5823008 	str	r3, [r2, #8]
200083c0:	e51b3018 	ldr	r3, [fp, #-24]
200083c4:	e5932000 	ldr	r2, [r3]
200083c8:	e3a03000 	mov	r3, #0	; 0x0
200083cc:	e582300c 	str	r3, [r2, #12]
200083d0:	e51b3018 	ldr	r3, [fp, #-24]
200083d4:	e5932000 	ldr	r2, [r3]
200083d8:	e3a03000 	mov	r3, #0	; 0x0
200083dc:	e5823010 	str	r3, [r2, #16]
200083e0:	e51b3018 	ldr	r3, [fp, #-24]
200083e4:	e5932000 	ldr	r2, [r3]
200083e8:	e3a03000 	mov	r3, #0	; 0x0
200083ec:	e5823014 	str	r3, [r2, #20]
200083f0:	e51b3018 	ldr	r3, [fp, #-24]
200083f4:	e5932000 	ldr	r2, [r3]
200083f8:	e3a03000 	mov	r3, #0	; 0x0
200083fc:	e5823018 	str	r3, [r2, #24]
20008400:	e51b3018 	ldr	r3, [fp, #-24]
20008404:	e5932000 	ldr	r2, [r3]
20008408:	e3a03000 	mov	r3, #0	; 0x0
2000840c:	e582301c 	str	r3, [r2, #28]
20008410:	e3a03000 	mov	r3, #0	; 0x0
20008414:	e1a00003 	mov	r0, r3
20008418:	e24bd00c 	sub	sp, fp, #12	; 0xc
2000841c:	e89da800 	ldm	sp, {fp, sp, pc}

20008420 <pthread_barrier_destroy>:
20008420:	e1a0c00d 	mov	ip, sp
20008424:	e92dd800 	push	{fp, ip, lr, pc}
20008428:	e24cb004 	sub	fp, ip, #4	; 0x4
2000842c:	e24dd008 	sub	sp, sp, #8	; 0x8
20008430:	e50b0010 	str	r0, [fp, #-16]
20008434:	eb0016bb 	bl	2000df28 <vk_scheduler_lock>
20008438:	e51b3010 	ldr	r3, [fp, #-16]
2000843c:	e5932000 	ldr	r2, [r3]
20008440:	e3a03000 	mov	r3, #0	; 0x0
20008444:	e582300c 	str	r3, [r2, #12]
20008448:	e51b3010 	ldr	r3, [fp, #-16]
2000844c:	e5932000 	ldr	r2, [r3]
20008450:	e3a03000 	mov	r3, #0	; 0x0
20008454:	e5823010 	str	r3, [r2, #16]
20008458:	e51b3010 	ldr	r3, [fp, #-16]
2000845c:	e5932000 	ldr	r2, [r3]
20008460:	e3a03000 	mov	r3, #0	; 0x0
20008464:	e5823014 	str	r3, [r2, #20]
20008468:	e51b3010 	ldr	r3, [fp, #-16]
2000846c:	e5932000 	ldr	r2, [r3]
20008470:	e3a03000 	mov	r3, #0	; 0x0
20008474:	e5823018 	str	r3, [r2, #24]
20008478:	e51b3010 	ldr	r3, [fp, #-16]
2000847c:	e5932000 	ldr	r2, [r3]
20008480:	e3a03000 	mov	r3, #0	; 0x0
20008484:	e582301c 	str	r3, [r2, #28]
20008488:	e51b3010 	ldr	r3, [fp, #-16]
2000848c:	e5933000 	ldr	r3, [r3]
20008490:	e1a00003 	mov	r0, r3
20008494:	eb00064f 	bl	20009dd8 <vk_free>
20008498:	eb0016bc 	bl	2000df90 <vk_scheduler_unlock>
2000849c:	e3a03000 	mov	r3, #0	; 0x0
200084a0:	e1a00003 	mov	r0, r3
200084a4:	e24bd00c 	sub	sp, fp, #12	; 0xc
200084a8:	e89da800 	ldm	sp, {fp, sp, pc}

200084ac <pthread_barrier_wait>:
200084ac:	e1a0c00d 	mov	ip, sp
200084b0:	e92dd800 	push	{fp, ip, lr, pc}
200084b4:	e24cb004 	sub	fp, ip, #4	; 0x4
200084b8:	e24dd018 	sub	sp, sp, #24	; 0x18
200084bc:	e59f233c 	ldr	r2, [pc, #828]	; 20008800 <pthread_barrier_wait+0x354>
200084c0:	e50b2020 	str	r2, [fp, #-32]
200084c4:	e51b3020 	ldr	r3, [fp, #-32]
200084c8:	e08f3003 	add	r3, pc, r3
200084cc:	e50b3020 	str	r3, [fp, #-32]
200084d0:	e50b0018 	str	r0, [fp, #-24]
200084d4:	eb001693 	bl	2000df28 <vk_scheduler_lock>
200084d8:	e51b3018 	ldr	r3, [fp, #-24]
200084dc:	e5933000 	ldr	r3, [r3]
200084e0:	e50b3010 	str	r3, [fp, #-16]
200084e4:	e51b3010 	ldr	r3, [fp, #-16]
200084e8:	e5933008 	ldr	r3, [r3, #8]
200084ec:	e2432001 	sub	r2, r3, #1	; 0x1
200084f0:	e51b3010 	ldr	r3, [fp, #-16]
200084f4:	e5832008 	str	r2, [r3, #8]
200084f8:	e51b3010 	ldr	r3, [fp, #-16]
200084fc:	e5933008 	ldr	r3, [r3, #8]
20008500:	e3530000 	cmp	r3, #0	; 0x0
20008504:	0a000053 	beq	20008658 <pthread_barrier_wait+0x1ac>
20008508:	e51b3010 	ldr	r3, [fp, #-16]
2000850c:	e593300c 	ldr	r3, [r3, #12]
20008510:	e3530000 	cmp	r3, #0	; 0x0
20008514:	1a000006 	bne	20008534 <pthread_barrier_wait+0x88>
20008518:	e59f32e4 	ldr	r3, [pc, #740]	; 20008804 <pthread_barrier_wait+0x358>
2000851c:	e51b2020 	ldr	r2, [fp, #-32]
20008520:	e7923003 	ldr	r3, [r2, r3]
20008524:	e5932000 	ldr	r2, [r3]
20008528:	e51b3010 	ldr	r3, [fp, #-16]
2000852c:	e583200c 	str	r2, [r3, #12]
20008530:	ea000033 	b	20008604 <pthread_barrier_wait+0x158>
20008534:	e51b3010 	ldr	r3, [fp, #-16]
20008538:	e5933010 	ldr	r3, [r3, #16]
2000853c:	e3530000 	cmp	r3, #0	; 0x0
20008540:	1a000006 	bne	20008560 <pthread_barrier_wait+0xb4>
20008544:	e59f32b8 	ldr	r3, [pc, #696]	; 20008804 <pthread_barrier_wait+0x358>
20008548:	e51b2020 	ldr	r2, [fp, #-32]
2000854c:	e7923003 	ldr	r3, [r2, r3]
20008550:	e5932000 	ldr	r2, [r3]
20008554:	e51b3010 	ldr	r3, [fp, #-16]
20008558:	e5832010 	str	r2, [r3, #16]
2000855c:	ea000028 	b	20008604 <pthread_barrier_wait+0x158>
20008560:	e51b3010 	ldr	r3, [fp, #-16]
20008564:	e5933014 	ldr	r3, [r3, #20]
20008568:	e3530000 	cmp	r3, #0	; 0x0
2000856c:	1a000006 	bne	2000858c <pthread_barrier_wait+0xe0>
20008570:	e59f328c 	ldr	r3, [pc, #652]	; 20008804 <pthread_barrier_wait+0x358>
20008574:	e51b2020 	ldr	r2, [fp, #-32]
20008578:	e7923003 	ldr	r3, [r2, r3]
2000857c:	e5932000 	ldr	r2, [r3]
20008580:	e51b3010 	ldr	r3, [fp, #-16]
20008584:	e5832014 	str	r2, [r3, #20]
20008588:	ea00001d 	b	20008604 <pthread_barrier_wait+0x158>
2000858c:	e51b3010 	ldr	r3, [fp, #-16]
20008590:	e5933018 	ldr	r3, [r3, #24]
20008594:	e3530000 	cmp	r3, #0	; 0x0
20008598:	1a000006 	bne	200085b8 <pthread_barrier_wait+0x10c>
2000859c:	e59f3260 	ldr	r3, [pc, #608]	; 20008804 <pthread_barrier_wait+0x358>
200085a0:	e51b2020 	ldr	r2, [fp, #-32]
200085a4:	e7923003 	ldr	r3, [r2, r3]
200085a8:	e5932000 	ldr	r2, [r3]
200085ac:	e51b3010 	ldr	r3, [fp, #-16]
200085b0:	e5832018 	str	r2, [r3, #24]
200085b4:	ea000012 	b	20008604 <pthread_barrier_wait+0x158>
200085b8:	e51b3010 	ldr	r3, [fp, #-16]
200085bc:	e593301c 	ldr	r3, [r3, #28]
200085c0:	e3530000 	cmp	r3, #0	; 0x0
200085c4:	1a000006 	bne	200085e4 <pthread_barrier_wait+0x138>
200085c8:	e59f3234 	ldr	r3, [pc, #564]	; 20008804 <pthread_barrier_wait+0x358>
200085cc:	e51b2020 	ldr	r2, [fp, #-32]
200085d0:	e7923003 	ldr	r3, [r2, r3]
200085d4:	e5932000 	ldr	r2, [r3]
200085d8:	e51b3010 	ldr	r3, [fp, #-16]
200085dc:	e583201c 	str	r2, [r3, #28]
200085e0:	ea000007 	b	20008604 <pthread_barrier_wait+0x158>
200085e4:	e59f321c 	ldr	r3, [pc, #540]	; 20008808 <pthread_barrier_wait+0x35c>
200085e8:	e51b2020 	ldr	r2, [fp, #-32]
200085ec:	e0823003 	add	r3, r2, r3
200085f0:	e1a00003 	mov	r0, r3
200085f4:	eb001140 	bl	2000cafc <printk>
200085f8:	e3e03000 	mvn	r3, #0	; 0x0
200085fc:	e50b301c 	str	r3, [fp, #-28]
20008600:	ea00007a 	b	200087f0 <pthread_barrier_wait+0x344>
20008604:	e59f31f8 	ldr	r3, [pc, #504]	; 20008804 <pthread_barrier_wait+0x358>
20008608:	e51b2020 	ldr	r2, [fp, #-32]
2000860c:	e7923003 	ldr	r3, [r2, r3]
20008610:	e5932000 	ldr	r2, [r3]
20008614:	e3a03002 	mov	r3, #2	; 0x2
20008618:	e5823000 	str	r3, [r2]
2000861c:	e59f31e0 	ldr	r3, [pc, #480]	; 20008804 <pthread_barrier_wait+0x358>
20008620:	e51b2020 	ldr	r2, [fp, #-32]
20008624:	e7923003 	ldr	r3, [r2, r3]
20008628:	e5933000 	ldr	r3, [r3]
2000862c:	e1a00003 	mov	r0, r3
20008630:	e59f31d4 	ldr	r3, [pc, #468]	; 2000880c <pthread_barrier_wait+0x360>
20008634:	e51b2020 	ldr	r2, [fp, #-32]
20008638:	e7923003 	ldr	r3, [r2, r3]
2000863c:	e1a01003 	mov	r1, r3
20008640:	eb00131d 	bl	2000d2bc <vk_thread_dequeue>
20008644:	eb001651 	bl	2000df90 <vk_scheduler_unlock>
20008648:	eb00045d 	bl	200097c4 <vk_swi_scheduler>
2000864c:	e3a03000 	mov	r3, #0	; 0x0
20008650:	e50b301c 	str	r3, [fp, #-28]
20008654:	ea000065 	b	200087f0 <pthread_barrier_wait+0x344>
20008658:	e51b2010 	ldr	r2, [fp, #-16]
2000865c:	e3a03000 	mov	r3, #0	; 0x0
20008660:	e5823008 	str	r3, [r2, #8]
20008664:	e51b3010 	ldr	r3, [fp, #-16]
20008668:	e593300c 	ldr	r3, [r3, #12]
2000866c:	e3530000 	cmp	r3, #0	; 0x0
20008670:	0a00000e 	beq	200086b0 <pthread_barrier_wait+0x204>
20008674:	e51b3010 	ldr	r3, [fp, #-16]
20008678:	e593200c 	ldr	r2, [r3, #12]
2000867c:	e3a03001 	mov	r3, #1	; 0x1
20008680:	e5823000 	str	r3, [r2]
20008684:	e51b3010 	ldr	r3, [fp, #-16]
20008688:	e593300c 	ldr	r3, [r3, #12]
2000868c:	e1a00003 	mov	r0, r3
20008690:	e59f3174 	ldr	r3, [pc, #372]	; 2000880c <pthread_barrier_wait+0x360>
20008694:	e51b2020 	ldr	r2, [fp, #-32]
20008698:	e7923003 	ldr	r3, [r2, r3]
2000869c:	e1a01003 	mov	r1, r3
200086a0:	eb001297 	bl	2000d104 <vk_thread_enqueue>
200086a4:	e51b2010 	ldr	r2, [fp, #-16]
200086a8:	e3a03000 	mov	r3, #0	; 0x0
200086ac:	e582300c 	str	r3, [r2, #12]
200086b0:	e51b3010 	ldr	r3, [fp, #-16]
200086b4:	e5933010 	ldr	r3, [r3, #16]
200086b8:	e3530000 	cmp	r3, #0	; 0x0
200086bc:	0a00000e 	beq	200086fc <pthread_barrier_wait+0x250>
200086c0:	e51b3010 	ldr	r3, [fp, #-16]
200086c4:	e5932010 	ldr	r2, [r3, #16]
200086c8:	e3a03001 	mov	r3, #1	; 0x1
200086cc:	e5823000 	str	r3, [r2]
200086d0:	e51b3010 	ldr	r3, [fp, #-16]
200086d4:	e5933010 	ldr	r3, [r3, #16]
200086d8:	e1a00003 	mov	r0, r3
200086dc:	e59f3128 	ldr	r3, [pc, #296]	; 2000880c <pthread_barrier_wait+0x360>
200086e0:	e51b2020 	ldr	r2, [fp, #-32]
200086e4:	e7923003 	ldr	r3, [r2, r3]
200086e8:	e1a01003 	mov	r1, r3
200086ec:	eb001284 	bl	2000d104 <vk_thread_enqueue>
200086f0:	e51b2010 	ldr	r2, [fp, #-16]
200086f4:	e3a03000 	mov	r3, #0	; 0x0
200086f8:	e5823010 	str	r3, [r2, #16]
200086fc:	e51b3010 	ldr	r3, [fp, #-16]
20008700:	e5933014 	ldr	r3, [r3, #20]
20008704:	e3530000 	cmp	r3, #0	; 0x0
20008708:	0a00000e 	beq	20008748 <pthread_barrier_wait+0x29c>
2000870c:	e51b3010 	ldr	r3, [fp, #-16]
20008710:	e5932014 	ldr	r2, [r3, #20]
20008714:	e3a03001 	mov	r3, #1	; 0x1
20008718:	e5823000 	str	r3, [r2]
2000871c:	e51b3010 	ldr	r3, [fp, #-16]
20008720:	e5933014 	ldr	r3, [r3, #20]
20008724:	e1a00003 	mov	r0, r3
20008728:	e59f30dc 	ldr	r3, [pc, #220]	; 2000880c <pthread_barrier_wait+0x360>
2000872c:	e51b2020 	ldr	r2, [fp, #-32]
20008730:	e7923003 	ldr	r3, [r2, r3]
20008734:	e1a01003 	mov	r1, r3
20008738:	eb001271 	bl	2000d104 <vk_thread_enqueue>
2000873c:	e51b2010 	ldr	r2, [fp, #-16]
20008740:	e3a03000 	mov	r3, #0	; 0x0
20008744:	e5823014 	str	r3, [r2, #20]
20008748:	e51b3010 	ldr	r3, [fp, #-16]
2000874c:	e5933018 	ldr	r3, [r3, #24]
20008750:	e3530000 	cmp	r3, #0	; 0x0
20008754:	0a00000e 	beq	20008794 <pthread_barrier_wait+0x2e8>
20008758:	e51b3010 	ldr	r3, [fp, #-16]
2000875c:	e5932018 	ldr	r2, [r3, #24]
20008760:	e3a03001 	mov	r3, #1	; 0x1
20008764:	e5823000 	str	r3, [r2]
20008768:	e51b3010 	ldr	r3, [fp, #-16]
2000876c:	e5933018 	ldr	r3, [r3, #24]
20008770:	e1a00003 	mov	r0, r3
20008774:	e59f3090 	ldr	r3, [pc, #144]	; 2000880c <pthread_barrier_wait+0x360>
20008778:	e51b2020 	ldr	r2, [fp, #-32]
2000877c:	e7923003 	ldr	r3, [r2, r3]
20008780:	e1a01003 	mov	r1, r3
20008784:	eb00125e 	bl	2000d104 <vk_thread_enqueue>
20008788:	e51b2010 	ldr	r2, [fp, #-16]
2000878c:	e3a03000 	mov	r3, #0	; 0x0
20008790:	e5823018 	str	r3, [r2, #24]
20008794:	e51b3010 	ldr	r3, [fp, #-16]
20008798:	e593301c 	ldr	r3, [r3, #28]
2000879c:	e3530000 	cmp	r3, #0	; 0x0
200087a0:	0a00000e 	beq	200087e0 <pthread_barrier_wait+0x334>
200087a4:	e51b3010 	ldr	r3, [fp, #-16]
200087a8:	e593201c 	ldr	r2, [r3, #28]
200087ac:	e3a03001 	mov	r3, #1	; 0x1
200087b0:	e5823000 	str	r3, [r2]
200087b4:	e51b3010 	ldr	r3, [fp, #-16]
200087b8:	e593301c 	ldr	r3, [r3, #28]
200087bc:	e1a00003 	mov	r0, r3
200087c0:	e59f3044 	ldr	r3, [pc, #68]	; 2000880c <pthread_barrier_wait+0x360>
200087c4:	e51b2020 	ldr	r2, [fp, #-32]
200087c8:	e7923003 	ldr	r3, [r2, r3]
200087cc:	e1a01003 	mov	r1, r3
200087d0:	eb00124b 	bl	2000d104 <vk_thread_enqueue>
200087d4:	e51b2010 	ldr	r2, [fp, #-16]
200087d8:	e3a03000 	mov	r3, #0	; 0x0
200087dc:	e582301c 	str	r3, [r2, #28]
200087e0:	eb0015ea 	bl	2000df90 <vk_scheduler_unlock>
200087e4:	eb0003f6 	bl	200097c4 <vk_swi_scheduler>
200087e8:	e3a03000 	mov	r3, #0	; 0x0
200087ec:	e50b301c 	str	r3, [fp, #-28]
200087f0:	e51b301c 	ldr	r3, [fp, #-28]
200087f4:	e1a00003 	mov	r0, r3
200087f8:	e24bd00c 	sub	sp, fp, #12	; 0xc
200087fc:	e89da800 	ldm	sp, {fp, sp, pc}
20008800:	0000b0b8 	.word	0x0000b0b8
20008804:	000000ac 	.word	0x000000ac
20008808:	fffff458 	.word	0xfffff458
2000880c:	0000007c 	.word	0x0000007c

20008810 <pthread_cond_init>:
20008810:	e1a0c00d 	mov	ip, sp
20008814:	e92dd800 	push	{fp, ip, lr, pc}
20008818:	e24cb004 	sub	fp, ip, #4	; 0x4
2000881c:	e24dd010 	sub	sp, sp, #16	; 0x10
20008820:	e50b0018 	str	r0, [fp, #-24]
20008824:	e50b101c 	str	r1, [fp, #-28]
20008828:	e3a00018 	mov	r0, #24	; 0x18
2000882c:	eb000601 	bl	2000a038 <malloc>
20008830:	e1a03000 	mov	r3, r0
20008834:	e50b3010 	str	r3, [fp, #-16]
20008838:	e51b2010 	ldr	r2, [fp, #-16]
2000883c:	e3a03000 	mov	r3, #0	; 0x0
20008840:	e582300c 	str	r3, [r2, #12]
20008844:	e51b2010 	ldr	r2, [fp, #-16]
20008848:	e3a03000 	mov	r3, #0	; 0x0
2000884c:	e5823010 	str	r3, [r2, #16]
20008850:	e51b2010 	ldr	r2, [fp, #-16]
20008854:	e3a03000 	mov	r3, #0	; 0x0
20008858:	e5823014 	str	r3, [r2, #20]
2000885c:	e51b2018 	ldr	r2, [fp, #-24]
20008860:	e51b3010 	ldr	r3, [fp, #-16]
20008864:	e5823000 	str	r3, [r2]
20008868:	e3a03000 	mov	r3, #0	; 0x0
2000886c:	e1a00003 	mov	r0, r3
20008870:	e24bd00c 	sub	sp, fp, #12	; 0xc
20008874:	e89da800 	ldm	sp, {fp, sp, pc}

20008878 <pthread_cond_destroy>:
20008878:	e1a0c00d 	mov	ip, sp
2000887c:	e92dd800 	push	{fp, ip, lr, pc}
20008880:	e24cb004 	sub	fp, ip, #4	; 0x4
20008884:	e24dd018 	sub	sp, sp, #24	; 0x18
20008888:	e59f20b4 	ldr	r2, [pc, #180]	; 20008944 <pthread_cond_destroy+0xcc>
2000888c:	e50b2020 	str	r2, [fp, #-32]
20008890:	e51b3020 	ldr	r3, [fp, #-32]
20008894:	e08f3003 	add	r3, pc, r3
20008898:	e50b3020 	str	r3, [fp, #-32]
2000889c:	e50b0018 	str	r0, [fp, #-24]
200088a0:	eb0003b2 	bl	20009770 <vk_disable_interrupt>
200088a4:	e51b3018 	ldr	r3, [fp, #-24]
200088a8:	e5933000 	ldr	r3, [r3]
200088ac:	e50b3014 	str	r3, [fp, #-20]
200088b0:	e3a03000 	mov	r3, #0	; 0x0
200088b4:	e50b3010 	str	r3, [fp, #-16]
200088b8:	ea000015 	b	20008914 <pthread_cond_destroy+0x9c>
200088bc:	e51b3010 	ldr	r3, [fp, #-16]
200088c0:	e51b1014 	ldr	r1, [fp, #-20]
200088c4:	e2833002 	add	r3, r3, #2	; 0x2
200088c8:	e3a02004 	mov	r2, #4	; 0x4
200088cc:	e1a03103 	lsl	r3, r3, #2
200088d0:	e0813003 	add	r3, r1, r3
200088d4:	e0833002 	add	r3, r3, r2
200088d8:	e5933000 	ldr	r3, [r3]
200088dc:	e3530000 	cmp	r3, #0	; 0x0
200088e0:	0a000008 	beq	20008908 <pthread_cond_destroy+0x90>
200088e4:	e59f305c 	ldr	r3, [pc, #92]	; 20008948 <pthread_cond_destroy+0xd0>
200088e8:	e51b2020 	ldr	r2, [fp, #-32]
200088ec:	e0823003 	add	r3, r2, r3
200088f0:	e1a00003 	mov	r0, r3
200088f4:	eb001080 	bl	2000cafc <printk>
200088f8:	eb000387 	bl	2000971c <vk_enable_interrupt>
200088fc:	e3e03000 	mvn	r3, #0	; 0x0
20008900:	e50b301c 	str	r3, [fp, #-28]
20008904:	ea00000a 	b	20008934 <pthread_cond_destroy+0xbc>
20008908:	e51b3010 	ldr	r3, [fp, #-16]
2000890c:	e2833001 	add	r3, r3, #1	; 0x1
20008910:	e50b3010 	str	r3, [fp, #-16]
20008914:	e51b3010 	ldr	r3, [fp, #-16]
20008918:	e3530002 	cmp	r3, #2	; 0x2
2000891c:	9affffe6 	bls	200088bc <pthread_cond_destroy+0x44>
20008920:	e51b0014 	ldr	r0, [fp, #-20]
20008924:	eb00052b 	bl	20009dd8 <vk_free>
20008928:	eb00037b 	bl	2000971c <vk_enable_interrupt>
2000892c:	e3a02001 	mov	r2, #1	; 0x1
20008930:	e50b201c 	str	r2, [fp, #-28]
20008934:	e51b301c 	ldr	r3, [fp, #-28]
20008938:	e1a00003 	mov	r0, r3
2000893c:	e24bd00c 	sub	sp, fp, #12	; 0xc
20008940:	e89da800 	ldm	sp, {fp, sp, pc}
20008944:	0000acec 	.word	0x0000acec
20008948:	fffff494 	.word	0xfffff494

2000894c <pthread_cond_wait>:
2000894c:	e1a0c00d 	mov	ip, sp
20008950:	e92dd800 	push	{fp, ip, lr, pc}
20008954:	e24cb004 	sub	fp, ip, #4	; 0x4
20008958:	e24dd018 	sub	sp, sp, #24	; 0x18
2000895c:	e59f2138 	ldr	r2, [pc, #312]	; 20008a9c <pthread_cond_wait+0x150>
20008960:	e50b2024 	str	r2, [fp, #-36]
20008964:	e51b3024 	ldr	r3, [fp, #-36]
20008968:	e08f3003 	add	r3, pc, r3
2000896c:	e50b3024 	str	r3, [fp, #-36]
20008970:	e50b0018 	str	r0, [fp, #-24]
20008974:	e50b101c 	str	r1, [fp, #-28]
20008978:	eb00156a 	bl	2000df28 <vk_scheduler_lock>
2000897c:	e51b3018 	ldr	r3, [fp, #-24]
20008980:	e5933000 	ldr	r3, [r3]
20008984:	e50b3010 	str	r3, [fp, #-16]
20008988:	e51b3010 	ldr	r3, [fp, #-16]
2000898c:	e593300c 	ldr	r3, [r3, #12]
20008990:	e3530000 	cmp	r3, #0	; 0x0
20008994:	1a000006 	bne	200089b4 <pthread_cond_wait+0x68>
20008998:	e59f3100 	ldr	r3, [pc, #256]	; 20008aa0 <pthread_cond_wait+0x154>
2000899c:	e51b2024 	ldr	r2, [fp, #-36]
200089a0:	e7923003 	ldr	r3, [r2, r3]
200089a4:	e5932000 	ldr	r2, [r3]
200089a8:	e51b3010 	ldr	r3, [fp, #-16]
200089ac:	e583200c 	str	r2, [r3, #12]
200089b0:	ea00001d 	b	20008a2c <pthread_cond_wait+0xe0>
200089b4:	e51b3010 	ldr	r3, [fp, #-16]
200089b8:	e5933010 	ldr	r3, [r3, #16]
200089bc:	e3530000 	cmp	r3, #0	; 0x0
200089c0:	1a000006 	bne	200089e0 <pthread_cond_wait+0x94>
200089c4:	e59f30d4 	ldr	r3, [pc, #212]	; 20008aa0 <pthread_cond_wait+0x154>
200089c8:	e51b2024 	ldr	r2, [fp, #-36]
200089cc:	e7923003 	ldr	r3, [r2, r3]
200089d0:	e5932000 	ldr	r2, [r3]
200089d4:	e51b3010 	ldr	r3, [fp, #-16]
200089d8:	e5832010 	str	r2, [r3, #16]
200089dc:	ea000012 	b	20008a2c <pthread_cond_wait+0xe0>
200089e0:	e51b3010 	ldr	r3, [fp, #-16]
200089e4:	e5933014 	ldr	r3, [r3, #20]
200089e8:	e3530000 	cmp	r3, #0	; 0x0
200089ec:	1a000006 	bne	20008a0c <pthread_cond_wait+0xc0>
200089f0:	e59f30a8 	ldr	r3, [pc, #168]	; 20008aa0 <pthread_cond_wait+0x154>
200089f4:	e51b2024 	ldr	r2, [fp, #-36]
200089f8:	e7923003 	ldr	r3, [r2, r3]
200089fc:	e5932000 	ldr	r2, [r3]
20008a00:	e51b3010 	ldr	r3, [fp, #-16]
20008a04:	e5832014 	str	r2, [r3, #20]
20008a08:	ea000007 	b	20008a2c <pthread_cond_wait+0xe0>
20008a0c:	e59f3090 	ldr	r3, [pc, #144]	; 20008aa4 <pthread_cond_wait+0x158>
20008a10:	e51b2024 	ldr	r2, [fp, #-36]
20008a14:	e0823003 	add	r3, r2, r3
20008a18:	e1a00003 	mov	r0, r3
20008a1c:	eb001036 	bl	2000cafc <printk>
20008a20:	e3e03000 	mvn	r3, #0	; 0x0
20008a24:	e50b3020 	str	r3, [fp, #-32]
20008a28:	ea000017 	b	20008a8c <pthread_cond_wait+0x140>
20008a2c:	e59f306c 	ldr	r3, [pc, #108]	; 20008aa0 <pthread_cond_wait+0x154>
20008a30:	e51b2024 	ldr	r2, [fp, #-36]
20008a34:	e7923003 	ldr	r3, [r2, r3]
20008a38:	e5932000 	ldr	r2, [r3]
20008a3c:	e3a03002 	mov	r3, #2	; 0x2
20008a40:	e5823000 	str	r3, [r2]
20008a44:	e59f3054 	ldr	r3, [pc, #84]	; 20008aa0 <pthread_cond_wait+0x154>
20008a48:	e51b2024 	ldr	r2, [fp, #-36]
20008a4c:	e7923003 	ldr	r3, [r2, r3]
20008a50:	e5933000 	ldr	r3, [r3]
20008a54:	e1a00003 	mov	r0, r3
20008a58:	e59f3048 	ldr	r3, [pc, #72]	; 20008aa8 <pthread_cond_wait+0x15c>
20008a5c:	e51b2024 	ldr	r2, [fp, #-36]
20008a60:	e7923003 	ldr	r3, [r2, r3]
20008a64:	e1a01003 	mov	r1, r3
20008a68:	eb001213 	bl	2000d2bc <vk_thread_dequeue>
20008a6c:	eb001547 	bl	2000df90 <vk_scheduler_unlock>
20008a70:	e51b001c 	ldr	r0, [fp, #-28]
20008a74:	eb000aba 	bl	2000b564 <pthread_mutex_unlock>
20008a78:	eb000351 	bl	200097c4 <vk_swi_scheduler>
20008a7c:	e51b001c 	ldr	r0, [fp, #-28]
20008a80:	eb0009e5 	bl	2000b21c <pthread_mutex_lock>
20008a84:	e3a03000 	mov	r3, #0	; 0x0
20008a88:	e50b3020 	str	r3, [fp, #-32]
20008a8c:	e51b3020 	ldr	r3, [fp, #-32]
20008a90:	e1a00003 	mov	r0, r3
20008a94:	e24bd00c 	sub	sp, fp, #12	; 0xc
20008a98:	e89da800 	ldm	sp, {fp, sp, pc}
20008a9c:	0000ac18 	.word	0x0000ac18
20008aa0:	000000ac 	.word	0x000000ac
20008aa4:	fffff4fc 	.word	0xfffff4fc
20008aa8:	0000007c 	.word	0x0000007c

20008aac <pthread_cond_signal>:
20008aac:	e1a0c00d 	mov	ip, sp
20008ab0:	e92dd800 	push	{fp, ip, lr, pc}
20008ab4:	e24cb004 	sub	fp, ip, #4	; 0x4
20008ab8:	e24dd018 	sub	sp, sp, #24	; 0x18
20008abc:	e59f21c0 	ldr	r2, [pc, #448]	; 20008c84 <pthread_cond_signal+0x1d8>
20008ac0:	e50b2024 	str	r2, [fp, #-36]
20008ac4:	e51b3024 	ldr	r3, [fp, #-36]
20008ac8:	e08f3003 	add	r3, pc, r3
20008acc:	e50b3024 	str	r3, [fp, #-36]
20008ad0:	e50b0020 	str	r0, [fp, #-32]
20008ad4:	eb001513 	bl	2000df28 <vk_scheduler_lock>
20008ad8:	e3a03000 	mov	r3, #0	; 0x0
20008adc:	e50b3018 	str	r3, [fp, #-24]
20008ae0:	e51b3020 	ldr	r3, [fp, #-32]
20008ae4:	e5933000 	ldr	r3, [r3]
20008ae8:	e50b3010 	str	r3, [fp, #-16]
20008aec:	e3a03000 	mov	r3, #0	; 0x0
20008af0:	e50b3014 	str	r3, [fp, #-20]
20008af4:	e51b3010 	ldr	r3, [fp, #-16]
20008af8:	e593300c 	ldr	r3, [r3, #12]
20008afc:	e3530000 	cmp	r3, #0	; 0x0
20008b00:	0a000002 	beq	20008b10 <pthread_cond_signal+0x64>
20008b04:	e51b3010 	ldr	r3, [fp, #-16]
20008b08:	e593300c 	ldr	r3, [r3, #12]
20008b0c:	e50b3014 	str	r3, [fp, #-20]
20008b10:	e51b3010 	ldr	r3, [fp, #-16]
20008b14:	e5933010 	ldr	r3, [r3, #16]
20008b18:	e3530000 	cmp	r3, #0	; 0x0
20008b1c:	0a000010 	beq	20008b64 <pthread_cond_signal+0xb8>
20008b20:	e51b3014 	ldr	r3, [fp, #-20]
20008b24:	e3530000 	cmp	r3, #0	; 0x0
20008b28:	1a000003 	bne	20008b3c <pthread_cond_signal+0x90>
20008b2c:	e51b3010 	ldr	r3, [fp, #-16]
20008b30:	e5933010 	ldr	r3, [r3, #16]
20008b34:	e50b3014 	str	r3, [fp, #-20]
20008b38:	ea000009 	b	20008b64 <pthread_cond_signal+0xb8>
20008b3c:	e51b3014 	ldr	r3, [fp, #-20]
20008b40:	e5932008 	ldr	r2, [r3, #8]
20008b44:	e51b3010 	ldr	r3, [fp, #-16]
20008b48:	e5933010 	ldr	r3, [r3, #16]
20008b4c:	e5933008 	ldr	r3, [r3, #8]
20008b50:	e1520003 	cmp	r2, r3
20008b54:	2a000002 	bcs	20008b64 <pthread_cond_signal+0xb8>
20008b58:	e51b3010 	ldr	r3, [fp, #-16]
20008b5c:	e5933010 	ldr	r3, [r3, #16]
20008b60:	e50b3014 	str	r3, [fp, #-20]
20008b64:	e51b3010 	ldr	r3, [fp, #-16]
20008b68:	e5933014 	ldr	r3, [r3, #20]
20008b6c:	e3530000 	cmp	r3, #0	; 0x0
20008b70:	0a00003b 	beq	20008c64 <pthread_cond_signal+0x1b8>
20008b74:	e51b3014 	ldr	r3, [fp, #-20]
20008b78:	e3530000 	cmp	r3, #0	; 0x0
20008b7c:	1a000003 	bne	20008b90 <pthread_cond_signal+0xe4>
20008b80:	e51b3010 	ldr	r3, [fp, #-16]
20008b84:	e5933014 	ldr	r3, [r3, #20]
20008b88:	e50b3014 	str	r3, [fp, #-20]
20008b8c:	ea000034 	b	20008c64 <pthread_cond_signal+0x1b8>
20008b90:	e51b3014 	ldr	r3, [fp, #-20]
20008b94:	e5932008 	ldr	r2, [r3, #8]
20008b98:	e51b3010 	ldr	r3, [fp, #-16]
20008b9c:	e5933014 	ldr	r3, [r3, #20]
20008ba0:	e5933008 	ldr	r3, [r3, #8]
20008ba4:	e1520003 	cmp	r2, r3
20008ba8:	2a00002d 	bcs	20008c64 <pthread_cond_signal+0x1b8>
20008bac:	e51b3010 	ldr	r3, [fp, #-16]
20008bb0:	e5933014 	ldr	r3, [r3, #20]
20008bb4:	e50b3014 	str	r3, [fp, #-20]
20008bb8:	ea000029 	b	20008c64 <pthread_cond_signal+0x1b8>
20008bbc:	e51b3018 	ldr	r3, [fp, #-24]
20008bc0:	e51b1010 	ldr	r1, [fp, #-16]
20008bc4:	e2833002 	add	r3, r3, #2	; 0x2
20008bc8:	e3a02004 	mov	r2, #4	; 0x4
20008bcc:	e1a03103 	lsl	r3, r3, #2
20008bd0:	e0813003 	add	r3, r1, r3
20008bd4:	e0833002 	add	r3, r3, r2
20008bd8:	e5933000 	ldr	r3, [r3]
20008bdc:	e3530000 	cmp	r3, #0	; 0x0
20008be0:	0a00001c 	beq	20008c58 <pthread_cond_signal+0x1ac>
20008be4:	e51b3018 	ldr	r3, [fp, #-24]
20008be8:	e51b1010 	ldr	r1, [fp, #-16]
20008bec:	e2833002 	add	r3, r3, #2	; 0x2
20008bf0:	e3a02004 	mov	r2, #4	; 0x4
20008bf4:	e1a03103 	lsl	r3, r3, #2
20008bf8:	e0813003 	add	r3, r1, r3
20008bfc:	e0833002 	add	r3, r3, r2
20008c00:	e5932000 	ldr	r2, [r3]
20008c04:	e51b3014 	ldr	r3, [fp, #-20]
20008c08:	e1520003 	cmp	r2, r3
20008c0c:	1a000011 	bne	20008c58 <pthread_cond_signal+0x1ac>
20008c10:	e51b3018 	ldr	r3, [fp, #-24]
20008c14:	e51b1010 	ldr	r1, [fp, #-16]
20008c18:	e2833002 	add	r3, r3, #2	; 0x2
20008c1c:	e3a02004 	mov	r2, #4	; 0x4
20008c20:	e1a03103 	lsl	r3, r3, #2
20008c24:	e0813003 	add	r3, r1, r3
20008c28:	e0832002 	add	r2, r3, r2
20008c2c:	e3a03000 	mov	r3, #0	; 0x0
20008c30:	e5823000 	str	r3, [r2]
20008c34:	e51b2014 	ldr	r2, [fp, #-20]
20008c38:	e3a03001 	mov	r3, #1	; 0x1
20008c3c:	e5823000 	str	r3, [r2]
20008c40:	e51b0014 	ldr	r0, [fp, #-20]
20008c44:	e59f303c 	ldr	r3, [pc, #60]	; 20008c88 <pthread_cond_signal+0x1dc>
20008c48:	e51b2024 	ldr	r2, [fp, #-36]
20008c4c:	e7923003 	ldr	r3, [r2, r3]
20008c50:	e1a01003 	mov	r1, r3
20008c54:	eb00112a 	bl	2000d104 <vk_thread_enqueue>
20008c58:	e51b3018 	ldr	r3, [fp, #-24]
20008c5c:	e2833001 	add	r3, r3, #1	; 0x1
20008c60:	e50b3018 	str	r3, [fp, #-24]
20008c64:	e51b3018 	ldr	r3, [fp, #-24]
20008c68:	e3530002 	cmp	r3, #2	; 0x2
20008c6c:	9affffd2 	bls	20008bbc <pthread_cond_signal+0x110>
20008c70:	eb0014c6 	bl	2000df90 <vk_scheduler_unlock>
20008c74:	e3a03000 	mov	r3, #0	; 0x0
20008c78:	e1a00003 	mov	r0, r3
20008c7c:	e24bd00c 	sub	sp, fp, #12	; 0xc
20008c80:	e89da800 	ldm	sp, {fp, sp, pc}
20008c84:	0000aab8 	.word	0x0000aab8
20008c88:	0000007c 	.word	0x0000007c

20008c8c <pthread_cond_broadcast>:
20008c8c:	e1a0c00d 	mov	ip, sp
20008c90:	e92dd800 	push	{fp, ip, lr, pc}
20008c94:	e24cb004 	sub	fp, ip, #4	; 0x4
20008c98:	e24dd018 	sub	sp, sp, #24	; 0x18
20008c9c:	e59f20ec 	ldr	r2, [pc, #236]	; 20008d90 <pthread_cond_broadcast+0x104>
20008ca0:	e50b2024 	str	r2, [fp, #-36]
20008ca4:	e51b3024 	ldr	r3, [fp, #-36]
20008ca8:	e08f3003 	add	r3, pc, r3
20008cac:	e50b3024 	str	r3, [fp, #-36]
20008cb0:	e50b0020 	str	r0, [fp, #-32]
20008cb4:	eb00149b 	bl	2000df28 <vk_scheduler_lock>
20008cb8:	e51b3020 	ldr	r3, [fp, #-32]
20008cbc:	e5933000 	ldr	r3, [r3]
20008cc0:	e50b3014 	str	r3, [fp, #-20]
20008cc4:	e3a03000 	mov	r3, #0	; 0x0
20008cc8:	e50b3018 	str	r3, [fp, #-24]
20008ccc:	ea000027 	b	20008d70 <pthread_cond_broadcast+0xe4>
20008cd0:	e51b3018 	ldr	r3, [fp, #-24]
20008cd4:	e51b1014 	ldr	r1, [fp, #-20]
20008cd8:	e2833002 	add	r3, r3, #2	; 0x2
20008cdc:	e3a02004 	mov	r2, #4	; 0x4
20008ce0:	e1a03103 	lsl	r3, r3, #2
20008ce4:	e0813003 	add	r3, r1, r3
20008ce8:	e0833002 	add	r3, r3, r2
20008cec:	e5933000 	ldr	r3, [r3]
20008cf0:	e3530000 	cmp	r3, #0	; 0x0
20008cf4:	0a00001a 	beq	20008d64 <pthread_cond_broadcast+0xd8>
20008cf8:	e51b3018 	ldr	r3, [fp, #-24]
20008cfc:	e51b1014 	ldr	r1, [fp, #-20]
20008d00:	e2833002 	add	r3, r3, #2	; 0x2
20008d04:	e3a02004 	mov	r2, #4	; 0x4
20008d08:	e1a03103 	lsl	r3, r3, #2
20008d0c:	e0813003 	add	r3, r1, r3
20008d10:	e0832002 	add	r2, r3, r2
20008d14:	e3a03000 	mov	r3, #0	; 0x0
20008d18:	e5823000 	str	r3, [r2]
20008d1c:	e51b3018 	ldr	r3, [fp, #-24]
20008d20:	e51b1014 	ldr	r1, [fp, #-20]
20008d24:	e2833002 	add	r3, r3, #2	; 0x2
20008d28:	e3a02004 	mov	r2, #4	; 0x4
20008d2c:	e1a03103 	lsl	r3, r3, #2
20008d30:	e0813003 	add	r3, r1, r3
20008d34:	e0833002 	add	r3, r3, r2
20008d38:	e5933000 	ldr	r3, [r3]
20008d3c:	e50b3010 	str	r3, [fp, #-16]
20008d40:	e51b2010 	ldr	r2, [fp, #-16]
20008d44:	e3a03001 	mov	r3, #1	; 0x1
20008d48:	e5823000 	str	r3, [r2]
20008d4c:	e51b0010 	ldr	r0, [fp, #-16]
20008d50:	e59f303c 	ldr	r3, [pc, #60]	; 20008d94 <pthread_cond_broadcast+0x108>
20008d54:	e51b2024 	ldr	r2, [fp, #-36]
20008d58:	e7923003 	ldr	r3, [r2, r3]
20008d5c:	e1a01003 	mov	r1, r3
20008d60:	eb0010e7 	bl	2000d104 <vk_thread_enqueue>
20008d64:	e51b3018 	ldr	r3, [fp, #-24]
20008d68:	e2833001 	add	r3, r3, #1	; 0x1
20008d6c:	e50b3018 	str	r3, [fp, #-24]
20008d70:	e51b3018 	ldr	r3, [fp, #-24]
20008d74:	e3530002 	cmp	r3, #2	; 0x2
20008d78:	9affffd4 	bls	20008cd0 <pthread_cond_broadcast+0x44>
20008d7c:	eb001483 	bl	2000df90 <vk_scheduler_unlock>
20008d80:	e3a03000 	mov	r3, #0	; 0x0
20008d84:	e1a00003 	mov	r0, r3
20008d88:	e24bd00c 	sub	sp, fp, #12	; 0xc
20008d8c:	e89da800 	ldm	sp, {fp, sp, pc}
20008d90:	0000a8d8 	.word	0x0000a8d8
20008d94:	0000007c 	.word	0x0000007c

20008d98 <vk_init_dd_table>:
20008d98:	e1a0c00d 	mov	ip, sp
20008d9c:	e92dd800 	push	{fp, ip, lr, pc}
20008da0:	e24cb004 	sub	fp, ip, #4	; 0x4
20008da4:	e24dd010 	sub	sp, sp, #16	; 0x10
20008da8:	e59f0104 	ldr	r0, [pc, #260]	; 20008eb4 <vk_init_dd_table+0x11c>
20008dac:	e50b0018 	str	r0, [fp, #-24]
20008db0:	e51b1018 	ldr	r1, [fp, #-24]
20008db4:	e08f1001 	add	r1, pc, r1
20008db8:	e50b1018 	str	r1, [fp, #-24]
20008dbc:	e3a03000 	mov	r3, #0	; 0x0
20008dc0:	e54b300d 	strb	r3, [fp, #-13]
20008dc4:	ea000026 	b	20008e64 <vk_init_dd_table+0xcc>
20008dc8:	e55b100d 	ldrb	r1, [fp, #-13]
20008dcc:	e59f30e4 	ldr	r3, [pc, #228]	; 20008eb8 <vk_init_dd_table+0x120>
20008dd0:	e51b0018 	ldr	r0, [fp, #-24]
20008dd4:	e7902003 	ldr	r2, [r0, r3]
20008dd8:	e3a03000 	mov	r3, #0	; 0x0
20008ddc:	e7823201 	str	r3, [r2, r1, lsl #4]
20008de0:	e55b000d 	ldrb	r0, [fp, #-13]
20008de4:	e59f30cc 	ldr	r3, [pc, #204]	; 20008eb8 <vk_init_dd_table+0x120>
20008de8:	e51b1018 	ldr	r1, [fp, #-24]
20008dec:	e7912003 	ldr	r2, [r1, r3]
20008df0:	e3a01004 	mov	r1, #4	; 0x4
20008df4:	e1a03200 	lsl	r3, r0, #4
20008df8:	e0823003 	add	r3, r2, r3
20008dfc:	e0832001 	add	r2, r3, r1
20008e00:	e3a03000 	mov	r3, #0	; 0x0
20008e04:	e5823000 	str	r3, [r2]
20008e08:	e55b200d 	ldrb	r2, [fp, #-13]
20008e0c:	e59f30a4 	ldr	r3, [pc, #164]	; 20008eb8 <vk_init_dd_table+0x120>
20008e10:	e51b0018 	ldr	r0, [fp, #-24]
20008e14:	e7901003 	ldr	r1, [r0, r3]
20008e18:	e1a03082 	lsl	r3, r2, #1
20008e1c:	e2832001 	add	r2, r3, #1	; 0x1
20008e20:	e3e03000 	mvn	r3, #0	; 0x0
20008e24:	e7813182 	str	r3, [r1, r2, lsl #3]
20008e28:	e55b200d 	ldrb	r2, [fp, #-13]
20008e2c:	e59f3084 	ldr	r3, [pc, #132]	; 20008eb8 <vk_init_dd_table+0x120>
20008e30:	e51b0018 	ldr	r0, [fp, #-24]
20008e34:	e7901003 	ldr	r1, [r0, r3]
20008e38:	e1a03082 	lsl	r3, r2, #1
20008e3c:	e2833001 	add	r3, r3, #1	; 0x1
20008e40:	e3a02004 	mov	r2, #4	; 0x4
20008e44:	e1a03183 	lsl	r3, r3, #3
20008e48:	e0813003 	add	r3, r1, r3
20008e4c:	e0832002 	add	r2, r3, r2
20008e50:	e3a03000 	mov	r3, #0	; 0x0
20008e54:	e5823000 	str	r3, [r2]
20008e58:	e55b300d 	ldrb	r3, [fp, #-13]
20008e5c:	e2833001 	add	r3, r3, #1	; 0x1
20008e60:	e54b300d 	strb	r3, [fp, #-13]
20008e64:	e55b300d 	ldrb	r3, [fp, #-13]
20008e68:	e3530036 	cmp	r3, #54	; 0x36
20008e6c:	9affffd5 	bls	20008dc8 <vk_init_dd_table+0x30>
20008e70:	e3a03000 	mov	r3, #0	; 0x0
20008e74:	e54b300d 	strb	r3, [fp, #-13]
20008e78:	ea000008 	b	20008ea0 <vk_init_dd_table+0x108>
20008e7c:	e55b100d 	ldrb	r1, [fp, #-13]
20008e80:	e59f3034 	ldr	r3, [pc, #52]	; 20008ebc <vk_init_dd_table+0x124>
20008e84:	e51b0018 	ldr	r0, [fp, #-24]
20008e88:	e7902003 	ldr	r2, [r0, r3]
20008e8c:	e3e03000 	mvn	r3, #0	; 0x0
20008e90:	e7823101 	str	r3, [r2, r1, lsl #2]
20008e94:	e55b300d 	ldrb	r3, [fp, #-13]
20008e98:	e2833001 	add	r3, r3, #1	; 0x1
20008e9c:	e54b300d 	strb	r3, [fp, #-13]
20008ea0:	e55b300d 	ldrb	r3, [fp, #-13]
20008ea4:	e3530036 	cmp	r3, #54	; 0x36
20008ea8:	9afffff3 	bls	20008e7c <vk_init_dd_table+0xe4>
20008eac:	e24bd00c 	sub	sp, fp, #12	; 0xc
20008eb0:	e89da800 	ldm	sp, {fp, sp, pc}
20008eb4:	0000a7cc 	.word	0x0000a7cc
20008eb8:	000000d0 	.word	0x000000d0
20008ebc:	00000014 	.word	0x00000014

20008ec0 <vu_register_dev>:
20008ec0:	e1a0c00d 	mov	ip, sp
20008ec4:	e92dd800 	push	{fp, ip, lr, pc}
20008ec8:	e24cb004 	sub	fp, ip, #4	; 0x4
20008ecc:	e24dd020 	sub	sp, sp, #32	; 0x20
20008ed0:	e59fc154 	ldr	ip, [pc, #340]	; 2000902c <vu_register_dev+0x16c>
20008ed4:	e50bc02c 	str	ip, [fp, #-44]
20008ed8:	e51bc02c 	ldr	ip, [fp, #-44]
20008edc:	e08fc00c 	add	ip, pc, ip
20008ee0:	e50bc02c 	str	ip, [fp, #-44]
20008ee4:	e50b0018 	str	r0, [fp, #-24]
20008ee8:	e50b101c 	str	r1, [fp, #-28]
20008eec:	e50b2020 	str	r2, [fp, #-32]
20008ef0:	e50b3024 	str	r3, [fp, #-36]
20008ef4:	e51b3018 	ldr	r3, [fp, #-24]
20008ef8:	e50b3010 	str	r3, [fp, #-16]
20008efc:	e51b0010 	ldr	r0, [fp, #-16]
20008f00:	e59f3128 	ldr	r3, [pc, #296]	; 20009030 <vu_register_dev+0x170>
20008f04:	e51b102c 	ldr	r1, [fp, #-44]
20008f08:	e7912003 	ldr	r2, [r1, r3]
20008f0c:	e3a01004 	mov	r1, #4	; 0x4
20008f10:	e1a03200 	lsl	r3, r0, #4
20008f14:	e0823003 	add	r3, r2, r3
20008f18:	e0833001 	add	r3, r3, r1
20008f1c:	e5933000 	ldr	r3, [r3]
20008f20:	e3530001 	cmp	r3, #1	; 0x1
20008f24:	1a000008 	bne	20008f4c <vu_register_dev+0x8c>
20008f28:	e59f3104 	ldr	r3, [pc, #260]	; 20009034 <vu_register_dev+0x174>
20008f2c:	e51b202c 	ldr	r2, [fp, #-44]
20008f30:	e0823003 	add	r3, r2, r3
20008f34:	e1a00003 	mov	r0, r3
20008f38:	e51b101c 	ldr	r1, [fp, #-28]
20008f3c:	eb000eee 	bl	2000cafc <printk>
20008f40:	e3e03000 	mvn	r3, #0	; 0x0
20008f44:	e50b3028 	str	r3, [fp, #-40]
20008f48:	ea000033 	b	2000901c <vu_register_dev+0x15c>
20008f4c:	e51b0010 	ldr	r0, [fp, #-16]
20008f50:	e59f30d8 	ldr	r3, [pc, #216]	; 20009030 <vu_register_dev+0x170>
20008f54:	e51bc02c 	ldr	ip, [fp, #-44]
20008f58:	e79c2003 	ldr	r2, [ip, r3]
20008f5c:	e3a01004 	mov	r1, #4	; 0x4
20008f60:	e1a03200 	lsl	r3, r0, #4
20008f64:	e0823003 	add	r3, r2, r3
20008f68:	e0832001 	add	r2, r3, r1
20008f6c:	e3a03001 	mov	r3, #1	; 0x1
20008f70:	e5823000 	str	r3, [r2]
20008f74:	e51b1010 	ldr	r1, [fp, #-16]
20008f78:	e59f30b0 	ldr	r3, [pc, #176]	; 20009030 <vu_register_dev+0x170>
20008f7c:	e51b002c 	ldr	r0, [fp, #-44]
20008f80:	e7902003 	ldr	r2, [r0, r3]
20008f84:	e51b301c 	ldr	r3, [fp, #-28]
20008f88:	e7823201 	str	r3, [r2, r1, lsl #4]
20008f8c:	e51b2010 	ldr	r2, [fp, #-16]
20008f90:	e59f3098 	ldr	r3, [pc, #152]	; 20009030 <vu_register_dev+0x170>
20008f94:	e51bc02c 	ldr	ip, [fp, #-44]
20008f98:	e79c1003 	ldr	r1, [ip, r3]
20008f9c:	e1a03082 	lsl	r3, r2, #1
20008fa0:	e2832001 	add	r2, r3, #1	; 0x1
20008fa4:	e51b3024 	ldr	r3, [fp, #-36]
20008fa8:	e7813182 	str	r3, [r1, r2, lsl #3]
20008fac:	e51b2010 	ldr	r2, [fp, #-16]
20008fb0:	e59f3078 	ldr	r3, [pc, #120]	; 20009030 <vu_register_dev+0x170>
20008fb4:	e51b002c 	ldr	r0, [fp, #-44]
20008fb8:	e7901003 	ldr	r1, [r0, r3]
20008fbc:	e1a03082 	lsl	r3, r2, #1
20008fc0:	e2833001 	add	r3, r3, #1	; 0x1
20008fc4:	e3a02004 	mov	r2, #4	; 0x4
20008fc8:	e1a03183 	lsl	r3, r3, #3
20008fcc:	e0813003 	add	r3, r1, r3
20008fd0:	e0832002 	add	r2, r3, r2
20008fd4:	e51b3020 	ldr	r3, [fp, #-32]
20008fd8:	e5823000 	str	r3, [r2]
20008fdc:	e59f3054 	ldr	r3, [pc, #84]	; 20009038 <vu_register_dev+0x178>
20008fe0:	e51b102c 	ldr	r1, [fp, #-44]
20008fe4:	e0813003 	add	r3, r1, r3
20008fe8:	e1a00003 	mov	r0, r3
20008fec:	eb000ec2 	bl	2000cafc <printk>
20008ff0:	e51b3024 	ldr	r3, [fp, #-36]
20008ff4:	e3530000 	cmp	r3, #0	; 0x0
20008ff8:	ba000005 	blt	20009014 <vu_register_dev+0x154>
20008ffc:	e51b1024 	ldr	r1, [fp, #-36]
20009000:	e59f3034 	ldr	r3, [pc, #52]	; 2000903c <vu_register_dev+0x17c>
20009004:	e51bc02c 	ldr	ip, [fp, #-44]
20009008:	e79c2003 	ldr	r2, [ip, r3]
2000900c:	e51b3018 	ldr	r3, [fp, #-24]
20009010:	e7823101 	str	r3, [r2, r1, lsl #2]
20009014:	e3a00000 	mov	r0, #0	; 0x0
20009018:	e50b0028 	str	r0, [fp, #-40]
2000901c:	e51b3028 	ldr	r3, [fp, #-40]
20009020:	e1a00003 	mov	r0, r3
20009024:	e24bd00c 	sub	sp, fp, #12	; 0xc
20009028:	e89da800 	ldm	sp, {fp, sp, pc}
2000902c:	0000a6a4 	.word	0x0000a6a4
20009030:	000000d0 	.word	0x000000d0
20009034:	fffff53c 	.word	0xfffff53c
20009038:	fffff580 	.word	0xfffff580
2000903c:	00000014 	.word	0x00000014

20009040 <vu_unregister_dev>:
20009040:	e1a0c00d 	mov	ip, sp
20009044:	e92dd800 	push	{fp, ip, lr, pc}
20009048:	e24cb004 	sub	fp, ip, #4	; 0x4
2000904c:	e24dd018 	sub	sp, sp, #24	; 0x18
20009050:	e59f2120 	ldr	r2, [pc, #288]	; 20009178 <vu_unregister_dev+0x138>
20009054:	e50b2020 	str	r2, [fp, #-32]
20009058:	e51b3020 	ldr	r3, [fp, #-32]
2000905c:	e08f3003 	add	r3, pc, r3
20009060:	e50b3020 	str	r3, [fp, #-32]
20009064:	e50b0018 	str	r0, [fp, #-24]
20009068:	e50b101c 	str	r1, [fp, #-28]
2000906c:	e51b3018 	ldr	r3, [fp, #-24]
20009070:	e50b3010 	str	r3, [fp, #-16]
20009074:	e51b0010 	ldr	r0, [fp, #-16]
20009078:	e59f30fc 	ldr	r3, [pc, #252]	; 2000917c <vu_unregister_dev+0x13c>
2000907c:	e51b1020 	ldr	r1, [fp, #-32]
20009080:	e7912003 	ldr	r2, [r1, r3]
20009084:	e3a01004 	mov	r1, #4	; 0x4
20009088:	e1a03200 	lsl	r3, r0, #4
2000908c:	e0823003 	add	r3, r2, r3
20009090:	e0832001 	add	r2, r3, r1
20009094:	e3a03000 	mov	r3, #0	; 0x0
20009098:	e5823000 	str	r3, [r2]
2000909c:	e51b1010 	ldr	r1, [fp, #-16]
200090a0:	e59f30d4 	ldr	r3, [pc, #212]	; 2000917c <vu_unregister_dev+0x13c>
200090a4:	e51b0020 	ldr	r0, [fp, #-32]
200090a8:	e7902003 	ldr	r2, [r0, r3]
200090ac:	e3a03000 	mov	r3, #0	; 0x0
200090b0:	e7823201 	str	r3, [r2, r1, lsl #4]
200090b4:	e51b2010 	ldr	r2, [fp, #-16]
200090b8:	e59f30bc 	ldr	r3, [pc, #188]	; 2000917c <vu_unregister_dev+0x13c>
200090bc:	e51b0020 	ldr	r0, [fp, #-32]
200090c0:	e7901003 	ldr	r1, [r0, r3]
200090c4:	e1a03082 	lsl	r3, r2, #1
200090c8:	e2833001 	add	r3, r3, #1	; 0x1
200090cc:	e7913183 	ldr	r3, [r1, r3, lsl #3]
200090d0:	e3730001 	cmn	r3, #1	; 0x1
200090d4:	0a00000b 	beq	20009108 <vu_unregister_dev+0xc8>
200090d8:	e51b2010 	ldr	r2, [fp, #-16]
200090dc:	e59f3098 	ldr	r3, [pc, #152]	; 2000917c <vu_unregister_dev+0x13c>
200090e0:	e51b0020 	ldr	r0, [fp, #-32]
200090e4:	e7901003 	ldr	r1, [r0, r3]
200090e8:	e1a03082 	lsl	r3, r2, #1
200090ec:	e2833001 	add	r3, r3, #1	; 0x1
200090f0:	e7911183 	ldr	r1, [r1, r3, lsl #3]
200090f4:	e59f3084 	ldr	r3, [pc, #132]	; 20009180 <vu_unregister_dev+0x140>
200090f8:	e51b0020 	ldr	r0, [fp, #-32]
200090fc:	e7902003 	ldr	r2, [r0, r3]
20009100:	e3e03000 	mvn	r3, #0	; 0x0
20009104:	e7823101 	str	r3, [r2, r1, lsl #2]
20009108:	e51b2010 	ldr	r2, [fp, #-16]
2000910c:	e59f3068 	ldr	r3, [pc, #104]	; 2000917c <vu_unregister_dev+0x13c>
20009110:	e51b0020 	ldr	r0, [fp, #-32]
20009114:	e7901003 	ldr	r1, [r0, r3]
20009118:	e1a03082 	lsl	r3, r2, #1
2000911c:	e2832001 	add	r2, r3, #1	; 0x1
20009120:	e3e03000 	mvn	r3, #0	; 0x0
20009124:	e7813182 	str	r3, [r1, r2, lsl #3]
20009128:	e51b2010 	ldr	r2, [fp, #-16]
2000912c:	e59f3048 	ldr	r3, [pc, #72]	; 2000917c <vu_unregister_dev+0x13c>
20009130:	e51b0020 	ldr	r0, [fp, #-32]
20009134:	e7901003 	ldr	r1, [r0, r3]
20009138:	e1a03082 	lsl	r3, r2, #1
2000913c:	e2833001 	add	r3, r3, #1	; 0x1
20009140:	e3a02004 	mov	r2, #4	; 0x4
20009144:	e1a03183 	lsl	r3, r3, #3
20009148:	e0813003 	add	r3, r1, r3
2000914c:	e0832002 	add	r2, r3, r2
20009150:	e3a03000 	mov	r3, #0	; 0x0
20009154:	e5823000 	str	r3, [r2]
20009158:	e59f3024 	ldr	r3, [pc, #36]	; 20009184 <vu_unregister_dev+0x144>
2000915c:	e51b1020 	ldr	r1, [fp, #-32]
20009160:	e0813003 	add	r3, r1, r3
20009164:	e1a00003 	mov	r0, r3
20009168:	e51b101c 	ldr	r1, [fp, #-28]
2000916c:	eb000e62 	bl	2000cafc <printk>
20009170:	e24bd00c 	sub	sp, fp, #12	; 0xc
20009174:	e89da800 	ldm	sp, {fp, sp, pc}
20009178:	0000a524 	.word	0x0000a524
2000917c:	000000d0 	.word	0x000000d0
20009180:	00000014 	.word	0x00000014
20009184:	fffff598 	.word	0xfffff598

20009188 <open>:
20009188:	e1a0c00d 	mov	ip, sp
2000918c:	e92dd800 	push	{fp, ip, lr, pc}
20009190:	e24cb004 	sub	fp, ip, #4	; 0x4
20009194:	e24dd018 	sub	sp, sp, #24	; 0x18
20009198:	e59f10d4 	ldr	r1, [pc, #212]	; 20009274 <open+0xec>
2000919c:	e50b1020 	str	r1, [fp, #-32]
200091a0:	e51b2020 	ldr	r2, [fp, #-32]
200091a4:	e08f2002 	add	r2, pc, r2
200091a8:	e50b2020 	str	r2, [fp, #-32]
200091ac:	e50b0018 	str	r0, [fp, #-24]
200091b0:	e3a03000 	mov	r3, #0	; 0x0
200091b4:	e50b3010 	str	r3, [fp, #-16]
200091b8:	ea00001e 	b	20009238 <open+0xb0>
200091bc:	e51b2010 	ldr	r2, [fp, #-16]
200091c0:	e59f30b0 	ldr	r3, [pc, #176]	; 20009278 <open+0xf0>
200091c4:	e51b0020 	ldr	r0, [fp, #-32]
200091c8:	e7903003 	ldr	r3, [r0, r3]
200091cc:	e7933202 	ldr	r3, [r3, r2, lsl #4]
200091d0:	e1a00003 	mov	r0, r3
200091d4:	e51b1018 	ldr	r1, [fp, #-24]
200091d8:	eb001c6e 	bl	20010398 <strcmp>
200091dc:	e1a03000 	mov	r3, r0
200091e0:	e3530000 	cmp	r3, #0	; 0x0
200091e4:	1a000010 	bne	2000922c <open+0xa4>
200091e8:	e51b2010 	ldr	r2, [fp, #-16]
200091ec:	e59f3084 	ldr	r3, [pc, #132]	; 20009278 <open+0xf0>
200091f0:	e51b0020 	ldr	r0, [fp, #-32]
200091f4:	e7901003 	ldr	r1, [r0, r3]
200091f8:	e1a03082 	lsl	r3, r2, #1
200091fc:	e2833001 	add	r3, r3, #1	; 0x1
20009200:	e3a02004 	mov	r2, #4	; 0x4
20009204:	e1a03183 	lsl	r3, r3, #3
20009208:	e0813003 	add	r3, r1, r3
2000920c:	e0833002 	add	r3, r3, r2
20009210:	e5933000 	ldr	r3, [r3]
20009214:	e5933000 	ldr	r3, [r3]
20009218:	e51b0018 	ldr	r0, [fp, #-24]
2000921c:	e12fff33 	blx	r3
20009220:	e51b1010 	ldr	r1, [fp, #-16]
20009224:	e50b101c 	str	r1, [fp, #-28]
20009228:	ea00000d 	b	20009264 <open+0xdc>
2000922c:	e51b3010 	ldr	r3, [fp, #-16]
20009230:	e2833001 	add	r3, r3, #1	; 0x1
20009234:	e50b3010 	str	r3, [fp, #-16]
20009238:	e51b3010 	ldr	r3, [fp, #-16]
2000923c:	e353001d 	cmp	r3, #29	; 0x1d
20009240:	daffffdd 	ble	200091bc <open+0x34>
20009244:	e59f3030 	ldr	r3, [pc, #48]	; 2000927c <open+0xf4>
20009248:	e51b2020 	ldr	r2, [fp, #-32]
2000924c:	e0823003 	add	r3, r2, r3
20009250:	e1a00003 	mov	r0, r3
20009254:	e51b1018 	ldr	r1, [fp, #-24]
20009258:	eb000e27 	bl	2000cafc <printk>
2000925c:	e3a03001 	mov	r3, #1	; 0x1
20009260:	e50b301c 	str	r3, [fp, #-28]
20009264:	e51b301c 	ldr	r3, [fp, #-28]
20009268:	e1a00003 	mov	r0, r3
2000926c:	e24bd00c 	sub	sp, fp, #12	; 0xc
20009270:	e89da800 	ldm	sp, {fp, sp, pc}
20009274:	0000a3dc 	.word	0x0000a3dc
20009278:	000000d0 	.word	0x000000d0
2000927c:	fffff5bc 	.word	0xfffff5bc

20009280 <close>:
20009280:	e1a0c00d 	mov	ip, sp
20009284:	e92dd800 	push	{fp, ip, lr, pc}
20009288:	e24cb004 	sub	fp, ip, #4	; 0x4
2000928c:	e24dd008 	sub	sp, sp, #8	; 0x8
20009290:	e59f2048 	ldr	r2, [pc, #72]	; 200092e0 <close+0x60>
20009294:	e08f2002 	add	r2, pc, r2
20009298:	e50b0010 	str	r0, [fp, #-16]
2000929c:	e51b1010 	ldr	r1, [fp, #-16]
200092a0:	e59f303c 	ldr	r3, [pc, #60]	; 200092e4 <close+0x64>
200092a4:	e7920003 	ldr	r0, [r2, r3]
200092a8:	e1a03081 	lsl	r3, r1, #1
200092ac:	e2833001 	add	r3, r3, #1	; 0x1
200092b0:	e3a02004 	mov	r2, #4	; 0x4
200092b4:	e1a03183 	lsl	r3, r3, #3
200092b8:	e0803003 	add	r3, r0, r3
200092bc:	e0833002 	add	r3, r3, r2
200092c0:	e5933000 	ldr	r3, [r3]
200092c4:	e5933004 	ldr	r3, [r3, #4]
200092c8:	e51b0010 	ldr	r0, [fp, #-16]
200092cc:	e12fff33 	blx	r3
200092d0:	e3a03000 	mov	r3, #0	; 0x0
200092d4:	e1a00003 	mov	r0, r3
200092d8:	e24bd00c 	sub	sp, fp, #12	; 0xc
200092dc:	e89da800 	ldm	sp, {fp, sp, pc}
200092e0:	0000a2ec 	.word	0x0000a2ec
200092e4:	000000d0 	.word	0x000000d0

200092e8 <read>:
200092e8:	e1a0c00d 	mov	ip, sp
200092ec:	e92dd800 	push	{fp, ip, lr, pc}
200092f0:	e24cb004 	sub	fp, ip, #4	; 0x4
200092f4:	e24dd010 	sub	sp, sp, #16	; 0x10
200092f8:	e59fc058 	ldr	ip, [pc, #88]	; 20009358 <read+0x70>
200092fc:	e08fc00c 	add	ip, pc, ip
20009300:	e50b0010 	str	r0, [fp, #-16]
20009304:	e50b1014 	str	r1, [fp, #-20]
20009308:	e50b2018 	str	r2, [fp, #-24]
2000930c:	e51b2010 	ldr	r2, [fp, #-16]
20009310:	e59f3044 	ldr	r3, [pc, #68]	; 2000935c <read+0x74>
20009314:	e79c1003 	ldr	r1, [ip, r3]
20009318:	e1a03082 	lsl	r3, r2, #1
2000931c:	e2833001 	add	r3, r3, #1	; 0x1
20009320:	e3a02004 	mov	r2, #4	; 0x4
20009324:	e1a03183 	lsl	r3, r3, #3
20009328:	e0813003 	add	r3, r1, r3
2000932c:	e0833002 	add	r3, r3, r2
20009330:	e5933000 	ldr	r3, [r3]
20009334:	e5933008 	ldr	r3, [r3, #8]
20009338:	e51b0010 	ldr	r0, [fp, #-16]
2000933c:	e51b1014 	ldr	r1, [fp, #-20]
20009340:	e51b2018 	ldr	r2, [fp, #-24]
20009344:	e12fff33 	blx	r3
20009348:	e3a03000 	mov	r3, #0	; 0x0
2000934c:	e1a00003 	mov	r0, r3
20009350:	e24bd00c 	sub	sp, fp, #12	; 0xc
20009354:	e89da800 	ldm	sp, {fp, sp, pc}
20009358:	0000a284 	.word	0x0000a284
2000935c:	000000d0 	.word	0x000000d0

20009360 <write>:
20009360:	e1a0c00d 	mov	ip, sp
20009364:	e92dd800 	push	{fp, ip, lr, pc}
20009368:	e24cb004 	sub	fp, ip, #4	; 0x4
2000936c:	e24dd010 	sub	sp, sp, #16	; 0x10
20009370:	e59fc058 	ldr	ip, [pc, #88]	; 200093d0 <write+0x70>
20009374:	e08fc00c 	add	ip, pc, ip
20009378:	e50b0010 	str	r0, [fp, #-16]
2000937c:	e50b1014 	str	r1, [fp, #-20]
20009380:	e50b2018 	str	r2, [fp, #-24]
20009384:	e51b2010 	ldr	r2, [fp, #-16]
20009388:	e59f3044 	ldr	r3, [pc, #68]	; 200093d4 <write+0x74>
2000938c:	e79c1003 	ldr	r1, [ip, r3]
20009390:	e1a03082 	lsl	r3, r2, #1
20009394:	e2833001 	add	r3, r3, #1	; 0x1
20009398:	e3a02004 	mov	r2, #4	; 0x4
2000939c:	e1a03183 	lsl	r3, r3, #3
200093a0:	e0813003 	add	r3, r1, r3
200093a4:	e0833002 	add	r3, r3, r2
200093a8:	e5933000 	ldr	r3, [r3]
200093ac:	e593300c 	ldr	r3, [r3, #12]
200093b0:	e51b0010 	ldr	r0, [fp, #-16]
200093b4:	e51b1014 	ldr	r1, [fp, #-20]
200093b8:	e51b2018 	ldr	r2, [fp, #-24]
200093bc:	e12fff33 	blx	r3
200093c0:	e3a03000 	mov	r3, #0	; 0x0
200093c4:	e1a00003 	mov	r0, r3
200093c8:	e24bd00c 	sub	sp, fp, #12	; 0xc
200093cc:	e89da800 	ldm	sp, {fp, sp, pc}
200093d0:	0000a20c 	.word	0x0000a20c
200093d4:	000000d0 	.word	0x000000d0

200093d8 <ioctl>:
200093d8:	e1a0c00d 	mov	ip, sp
200093dc:	e92dd800 	push	{fp, ip, lr, pc}
200093e0:	e24cb004 	sub	fp, ip, #4	; 0x4
200093e4:	e24dd010 	sub	sp, sp, #16	; 0x10
200093e8:	e59fc058 	ldr	ip, [pc, #88]	; 20009448 <ioctl+0x70>
200093ec:	e08fc00c 	add	ip, pc, ip
200093f0:	e50b0010 	str	r0, [fp, #-16]
200093f4:	e50b1014 	str	r1, [fp, #-20]
200093f8:	e50b2018 	str	r2, [fp, #-24]
200093fc:	e51b2010 	ldr	r2, [fp, #-16]
20009400:	e59f3044 	ldr	r3, [pc, #68]	; 2000944c <ioctl+0x74>
20009404:	e79c1003 	ldr	r1, [ip, r3]
20009408:	e1a03082 	lsl	r3, r2, #1
2000940c:	e2833001 	add	r3, r3, #1	; 0x1
20009410:	e3a02004 	mov	r2, #4	; 0x4
20009414:	e1a03183 	lsl	r3, r3, #3
20009418:	e0813003 	add	r3, r1, r3
2000941c:	e0833002 	add	r3, r3, r2
20009420:	e5933000 	ldr	r3, [r3]
20009424:	e5933010 	ldr	r3, [r3, #16]
20009428:	e51b0010 	ldr	r0, [fp, #-16]
2000942c:	e51b1014 	ldr	r1, [fp, #-20]
20009430:	e51b2018 	ldr	r2, [fp, #-24]
20009434:	e12fff33 	blx	r3
20009438:	e3a03000 	mov	r3, #0	; 0x0
2000943c:	e1a00003 	mov	r0, r3
20009440:	e24bd00c 	sub	sp, fp, #12	; 0xc
20009444:	e89da800 	ldm	sp, {fp, sp, pc}
20009448:	0000a194 	.word	0x0000a194
2000944c:	000000d0 	.word	0x000000d0

20009450 <copy_from_user>:
20009450:	e1a0c00d 	mov	ip, sp
20009454:	e92dd800 	push	{fp, ip, lr, pc}
20009458:	e24cb004 	sub	fp, ip, #4	; 0x4
2000945c:	e24dd010 	sub	sp, sp, #16	; 0x10
20009460:	e50b0010 	str	r0, [fp, #-16]
20009464:	e50b1014 	str	r1, [fp, #-20]
20009468:	e50b2018 	str	r2, [fp, #-24]
2000946c:	e51b0010 	ldr	r0, [fp, #-16]
20009470:	e51b1014 	ldr	r1, [fp, #-20]
20009474:	e51b2018 	ldr	r2, [fp, #-24]
20009478:	eb002488 	bl	200126a0 <memcpy>
2000947c:	e51b3018 	ldr	r3, [fp, #-24]
20009480:	e1a00003 	mov	r0, r3
20009484:	e24bd00c 	sub	sp, fp, #12	; 0xc
20009488:	e89da800 	ldm	sp, {fp, sp, pc}

2000948c <copy_to_user>:
2000948c:	e1a0c00d 	mov	ip, sp
20009490:	e92dd800 	push	{fp, ip, lr, pc}
20009494:	e24cb004 	sub	fp, ip, #4	; 0x4
20009498:	e24dd010 	sub	sp, sp, #16	; 0x10
2000949c:	e50b0010 	str	r0, [fp, #-16]
200094a0:	e50b1014 	str	r1, [fp, #-20]
200094a4:	e50b2018 	str	r2, [fp, #-24]
200094a8:	e51b0010 	ldr	r0, [fp, #-16]
200094ac:	e51b1014 	ldr	r1, [fp, #-20]
200094b0:	e51b2018 	ldr	r2, [fp, #-24]
200094b4:	eb002479 	bl	200126a0 <memcpy>
200094b8:	e51b3018 	ldr	r3, [fp, #-24]
200094bc:	e1a00003 	mov	r0, r3
200094c0:	e24bd00c 	sub	sp, fp, #12	; 0xc
200094c4:	e89da800 	ldm	sp, {fp, sp, pc}

200094c8 <vk_undef_handler>:
200094c8:	e1a0c00d 	mov	ip, sp
200094cc:	e92dd800 	push	{fp, ip, lr, pc}
200094d0:	e24cb004 	sub	fp, ip, #4	; 0x4
200094d4:	e59f2020 	ldr	r2, [pc, #32]	; 200094fc <vk_undef_handler+0x34>
200094d8:	e08f2002 	add	r2, pc, r2
200094dc:	e59f301c 	ldr	r3, [pc, #28]	; 20009500 <vk_undef_handler+0x38>
200094e0:	e7923003 	ldr	r3, [r2, r3]
200094e4:	e5931000 	ldr	r1, [r3]
200094e8:	e59f3014 	ldr	r3, [pc, #20]	; 20009504 <vk_undef_handler+0x3c>
200094ec:	e0823003 	add	r3, r2, r3
200094f0:	e1a00003 	mov	r0, r3
200094f4:	eb000d80 	bl	2000cafc <printk>
200094f8:	eafffffe 	b	200094f8 <vk_undef_handler+0x30>
200094fc:	0000a0a8 	.word	0x0000a0a8
20009500:	00000070 	.word	0x00000070
20009504:	fffff5d0 	.word	0xfffff5d0

20009508 <vk_pabort_handler>:
20009508:	e1a0c00d 	mov	ip, sp
2000950c:	e92dd800 	push	{fp, ip, lr, pc}
20009510:	e24cb004 	sub	fp, ip, #4	; 0x4
20009514:	e59f2028 	ldr	r2, [pc, #40]	; 20009544 <vk_pabort_handler+0x3c>
20009518:	e08f2002 	add	r2, pc, r2
2000951c:	e59f3024 	ldr	r3, [pc, #36]	; 20009548 <vk_pabort_handler+0x40>
20009520:	e7923003 	ldr	r3, [r2, r3]
20009524:	e5933000 	ldr	r3, [r3]
20009528:	e2833004 	add	r3, r3, #4	; 0x4
2000952c:	e5931000 	ldr	r1, [r3]
20009530:	e59f3014 	ldr	r3, [pc, #20]	; 2000954c <vk_pabort_handler+0x44>
20009534:	e0823003 	add	r3, r2, r3
20009538:	e1a00003 	mov	r0, r3
2000953c:	eb000d6e 	bl	2000cafc <printk>
20009540:	eafffffe 	b	20009540 <vk_pabort_handler+0x38>
20009544:	0000a068 	.word	0x0000a068
20009548:	00000000 	.word	0x00000000
2000954c:	fffff604 	.word	0xfffff604

20009550 <vk_dabort_handler>:
20009550:	e1a0c00d 	mov	ip, sp
20009554:	e92dd800 	push	{fp, ip, lr, pc}
20009558:	e24cb004 	sub	fp, ip, #4	; 0x4
2000955c:	e59f2020 	ldr	r2, [pc, #32]	; 20009584 <vk_dabort_handler+0x34>
20009560:	e08f2002 	add	r2, pc, r2
20009564:	e59f301c 	ldr	r3, [pc, #28]	; 20009588 <vk_dabort_handler+0x38>
20009568:	e7923003 	ldr	r3, [r2, r3]
2000956c:	e5931000 	ldr	r1, [r3]
20009570:	e59f3014 	ldr	r3, [pc, #20]	; 2000958c <vk_dabort_handler+0x3c>
20009574:	e0823003 	add	r3, r2, r3
20009578:	e1a00003 	mov	r0, r3
2000957c:	eb000d5e 	bl	2000cafc <printk>
20009580:	eafffffe 	b	20009580 <vk_dabort_handler+0x30>
20009584:	0000a020 	.word	0x0000a020
20009588:	00000070 	.word	0x00000070
2000958c:	fffff630 	.word	0xfffff630

20009590 <vk_fiq_handler>:
20009590:	e1a0c00d 	mov	ip, sp
20009594:	e92dd800 	push	{fp, ip, lr, pc}
20009598:	e24cb004 	sub	fp, ip, #4	; 0x4
2000959c:	e59f3014 	ldr	r3, [pc, #20]	; 200095b8 <vk_fiq_handler+0x28>
200095a0:	e08f3003 	add	r3, pc, r3
200095a4:	e59f2010 	ldr	r2, [pc, #16]	; 200095bc <vk_fiq_handler+0x2c>
200095a8:	e0833002 	add	r3, r3, r2
200095ac:	e1a00003 	mov	r0, r3
200095b0:	eb000d51 	bl	2000cafc <printk>
200095b4:	eafffffe 	b	200095b4 <vk_fiq_handler+0x24>
200095b8:	00009fe0 	.word	0x00009fe0
200095bc:	fffff658 	.word	0xfffff658

200095c0 <vk_not_used_handler>:
200095c0:	e1a0c00d 	mov	ip, sp
200095c4:	e92dd800 	push	{fp, ip, lr, pc}
200095c8:	e24cb004 	sub	fp, ip, #4	; 0x4
200095cc:	e59f3014 	ldr	r3, [pc, #20]	; 200095e8 <vk_not_used_handler+0x28>
200095d0:	e08f3003 	add	r3, pc, r3
200095d4:	e59f2010 	ldr	r2, [pc, #16]	; 200095ec <vk_not_used_handler+0x2c>
200095d8:	e0833002 	add	r3, r3, r2
200095dc:	e1a00003 	mov	r0, r3
200095e0:	eb000d45 	bl	2000cafc <printk>
200095e4:	e89da800 	ldm	sp, {fp, sp, pc}
200095e8:	00009fb0 	.word	0x00009fb0
200095ec:	fffff670 	.word	0xfffff670

200095f0 <vh_interrupt_mask>:
200095f0:	e1a0c00d 	mov	ip, sp
200095f4:	e92dd800 	push	{fp, ip, lr, pc}
200095f8:	e24cb004 	sub	fp, ip, #4	; 0x4
200095fc:	e24dd008 	sub	sp, sp, #8	; 0x8
20009600:	e50b0010 	str	r0, [fp, #-16]
20009604:	e24bd00c 	sub	sp, fp, #12	; 0xc
20009608:	e89da800 	ldm	sp, {fp, sp, pc}

2000960c <vh_interrupt_unmask>:
2000960c:	e1a0c00d 	mov	ip, sp
20009610:	e92dd800 	push	{fp, ip, lr, pc}
20009614:	e24cb004 	sub	fp, ip, #4	; 0x4
20009618:	e24dd008 	sub	sp, sp, #8	; 0x8
2000961c:	e50b0010 	str	r0, [fp, #-16]
20009620:	e24bd00c 	sub	sp, fp, #12	; 0xc
20009624:	e89da800 	ldm	sp, {fp, sp, pc}

20009628 <vk_swi_classifier>:
20009628:	e1a0c00d 	mov	ip, sp
2000962c:	e92dd800 	push	{fp, ip, lr, pc}
20009630:	e24cb004 	sub	fp, ip, #4	; 0x4
20009634:	e24dd020 	sub	sp, sp, #32	; 0x20
20009638:	e59f20d0 	ldr	r2, [pc, #208]	; 20009710 <vk_swi_classifier+0xe8>
2000963c:	e08f2002 	add	r2, pc, r2
20009640:	e50b0028 	str	r0, [fp, #-40]
20009644:	e59f30c8 	ldr	r3, [pc, #200]	; 20009714 <vk_swi_classifier+0xec>
20009648:	e7923003 	ldr	r3, [r2, r3]
2000964c:	e5933000 	ldr	r3, [r3]
20009650:	e50b3014 	str	r3, [fp, #-20]
20009654:	e59f30bc 	ldr	r3, [pc, #188]	; 20009718 <vk_swi_classifier+0xf0>
20009658:	e7923003 	ldr	r3, [r2, r3]
2000965c:	e5933000 	ldr	r3, [r3]
20009660:	e50b3010 	str	r3, [fp, #-16]
20009664:	e51b3028 	ldr	r3, [fp, #-40]
20009668:	e50b3020 	str	r3, [fp, #-32]
2000966c:	e51b3020 	ldr	r3, [fp, #-32]
20009670:	e5933034 	ldr	r3, [r3, #52]
20009674:	e50b3024 	str	r3, [fp, #-36]
20009678:	e51b3024 	ldr	r3, [fp, #-36]
2000967c:	e2433028 	sub	r3, r3, #40	; 0x28
20009680:	e3530004 	cmp	r3, #4	; 0x4
20009684:	908ff103 	addls	pc, pc, r3, lsl #2
20009688:	ea00001e 	b	20009708 <vk_swi_classifier+0xe0>
2000968c:	ea000003 	b	200096a0 <vk_swi_classifier+0x78>
20009690:	ea000008 	b	200096b8 <vk_swi_classifier+0x90>
20009694:	ea00000d 	b	200096d0 <vk_swi_classifier+0xa8>
20009698:	ea000011 	b	200096e4 <vk_swi_classifier+0xbc>
2000969c:	ea000018 	b	20009704 <vk_swi_classifier+0xdc>
200096a0:	e51b2020 	ldr	r2, [fp, #-32]
200096a4:	e3a03000 	mov	r3, #0	; 0x0
200096a8:	e5823038 	str	r3, [r2, #56]
200096ac:	e51b0020 	ldr	r0, [fp, #-32]
200096b0:	eb00007c 	bl	200098a8 <vh_enable_interrupt>
200096b4:	ea000013 	b	20009708 <vk_swi_classifier+0xe0>
200096b8:	e51b2020 	ldr	r2, [fp, #-32]
200096bc:	e3a03001 	mov	r3, #1	; 0x1
200096c0:	e5823038 	str	r3, [r2, #56]
200096c4:	e51b0020 	ldr	r0, [fp, #-32]
200096c8:	eb000081 	bl	200098d4 <vh_disable_interrupt>
200096cc:	ea00000d 	b	20009708 <vk_swi_classifier+0xe0>
200096d0:	e51b3020 	ldr	r3, [fp, #-32]
200096d4:	e5933020 	ldr	r3, [r3, #32]
200096d8:	e1a00003 	mov	r0, r3
200096dc:	ebfffaed 	bl	20008298 <vh_save_thread_ctx>
200096e0:	ea000008 	b	20009708 <vk_swi_classifier+0xe0>
200096e4:	e51b3020 	ldr	r3, [fp, #-32]
200096e8:	e5933028 	ldr	r3, [r3, #40]
200096ec:	e50b301c 	str	r3, [fp, #-28]
200096f0:	e51b3020 	ldr	r3, [fp, #-32]
200096f4:	e5933020 	ldr	r3, [r3, #32]
200096f8:	e1a00003 	mov	r0, r3
200096fc:	ebfffad7 	bl	20008260 <vh_restore_thread_ctx>
20009700:	ea000000 	b	20009708 <vk_swi_classifier+0xe0>
20009704:	eb0010f8 	bl	2000daec <vk_scheduler>
20009708:	e24bd00c 	sub	sp, fp, #12	; 0xc
2000970c:	e89da800 	ldm	sp, {fp, sp, pc}
20009710:	00009f44 	.word	0x00009f44
20009714:	00000094 	.word	0x00000094
20009718:	000000cc 	.word	0x000000cc

2000971c <vk_enable_interrupt>:
2000971c:	e1a0c00d 	mov	ip, sp
20009720:	e92dd800 	push	{fp, ip, lr, pc}
20009724:	e24cb004 	sub	fp, ip, #4	; 0x4
20009728:	e24dd008 	sub	sp, sp, #8	; 0x8
2000972c:	e59f2034 	ldr	r2, [pc, #52]	; 20009768 <vk_enable_interrupt+0x4c>
20009730:	e08f2002 	add	r2, pc, r2
20009734:	e59f3030 	ldr	r3, [pc, #48]	; 2000976c <vk_enable_interrupt+0x50>
20009738:	e7923003 	ldr	r3, [r2, r3]
2000973c:	e5931000 	ldr	r1, [r3]
20009740:	e3a03028 	mov	r3, #40	; 0x28
20009744:	e5813034 	str	r3, [r1, #52]
20009748:	e59f301c 	ldr	r3, [pc, #28]	; 2000976c <vk_enable_interrupt+0x50>
2000974c:	e7923003 	ldr	r3, [r2, r3]
20009750:	e5933000 	ldr	r3, [r3]
20009754:	e50b3010 	str	r3, [fp, #-16]
20009758:	e51b0010 	ldr	r0, [fp, #-16]
2000975c:	eb000049 	bl	20009888 <vh_swi>
20009760:	e24bd00c 	sub	sp, fp, #12	; 0xc
20009764:	e89da800 	ldm	sp, {fp, sp, pc}
20009768:	00009e50 	.word	0x00009e50
2000976c:	000000ac 	.word	0x000000ac

20009770 <vk_disable_interrupt>:
20009770:	e1a0c00d 	mov	ip, sp
20009774:	e92dd800 	push	{fp, ip, lr, pc}
20009778:	e24cb004 	sub	fp, ip, #4	; 0x4
2000977c:	e24dd008 	sub	sp, sp, #8	; 0x8
20009780:	e59f2034 	ldr	r2, [pc, #52]	; 200097bc <vk_disable_interrupt+0x4c>
20009784:	e08f2002 	add	r2, pc, r2
20009788:	e59f3030 	ldr	r3, [pc, #48]	; 200097c0 <vk_disable_interrupt+0x50>
2000978c:	e7923003 	ldr	r3, [r2, r3]
20009790:	e5931000 	ldr	r1, [r3]
20009794:	e3a03029 	mov	r3, #41	; 0x29
20009798:	e5813034 	str	r3, [r1, #52]
2000979c:	e59f301c 	ldr	r3, [pc, #28]	; 200097c0 <vk_disable_interrupt+0x50>
200097a0:	e7923003 	ldr	r3, [r2, r3]
200097a4:	e5933000 	ldr	r3, [r3]
200097a8:	e50b3010 	str	r3, [fp, #-16]
200097ac:	e51b0010 	ldr	r0, [fp, #-16]
200097b0:	eb000034 	bl	20009888 <vh_swi>
200097b4:	e24bd00c 	sub	sp, fp, #12	; 0xc
200097b8:	e89da800 	ldm	sp, {fp, sp, pc}
200097bc:	00009dfc 	.word	0x00009dfc
200097c0:	000000ac 	.word	0x000000ac

200097c4 <vk_swi_scheduler>:
200097c4:	e1a0c00d 	mov	ip, sp
200097c8:	e92dd800 	push	{fp, ip, lr, pc}
200097cc:	e24cb004 	sub	fp, ip, #4	; 0x4
200097d0:	e24dd008 	sub	sp, sp, #8	; 0x8
200097d4:	e59f2034 	ldr	r2, [pc, #52]	; 20009810 <vk_swi_scheduler+0x4c>
200097d8:	e08f2002 	add	r2, pc, r2
200097dc:	e59f3030 	ldr	r3, [pc, #48]	; 20009814 <vk_swi_scheduler+0x50>
200097e0:	e7923003 	ldr	r3, [r2, r3]
200097e4:	e5931000 	ldr	r1, [r3]
200097e8:	e3a0302c 	mov	r3, #44	; 0x2c
200097ec:	e5813034 	str	r3, [r1, #52]
200097f0:	e59f301c 	ldr	r3, [pc, #28]	; 20009814 <vk_swi_scheduler+0x50>
200097f4:	e7923003 	ldr	r3, [r2, r3]
200097f8:	e5933000 	ldr	r3, [r3]
200097fc:	e50b3010 	str	r3, [fp, #-16]
20009800:	e51b0010 	ldr	r0, [fp, #-16]
20009804:	eb00001f 	bl	20009888 <vh_swi>
20009808:	e24bd00c 	sub	sp, fp, #12	; 0xc
2000980c:	e89da800 	ldm	sp, {fp, sp, pc}
20009810:	00009da8 	.word	0x00009da8
20009814:	000000ac 	.word	0x000000ac

20009818 <vk_save_thread_ctx>:
20009818:	e1a0c00d 	mov	ip, sp
2000981c:	e92dd800 	push	{fp, ip, lr, pc}
20009820:	e24cb004 	sub	fp, ip, #4	; 0x4
20009824:	e24dd010 	sub	sp, sp, #16	; 0x10
20009828:	e50b0018 	str	r0, [fp, #-24]
2000982c:	e51b3018 	ldr	r3, [fp, #-24]
20009830:	e3a0202a 	mov	r2, #42	; 0x2a
20009834:	e5832034 	str	r2, [r3, #52]
20009838:	e51b3018 	ldr	r3, [fp, #-24]
2000983c:	e50b3010 	str	r3, [fp, #-16]
20009840:	e51b0010 	ldr	r0, [fp, #-16]
20009844:	eb00000f 	bl	20009888 <vh_swi>
20009848:	e24bd00c 	sub	sp, fp, #12	; 0xc
2000984c:	e89da800 	ldm	sp, {fp, sp, pc}

20009850 <vk_restore_thread_ctx>:
20009850:	e1a0c00d 	mov	ip, sp
20009854:	e92dd800 	push	{fp, ip, lr, pc}
20009858:	e24cb004 	sub	fp, ip, #4	; 0x4
2000985c:	e24dd010 	sub	sp, sp, #16	; 0x10
20009860:	e50b0018 	str	r0, [fp, #-24]
20009864:	e51b3018 	ldr	r3, [fp, #-24]
20009868:	e3a0202b 	mov	r2, #43	; 0x2b
2000986c:	e5832034 	str	r2, [r3, #52]
20009870:	e51b3018 	ldr	r3, [fp, #-24]
20009874:	e50b3010 	str	r3, [fp, #-16]
20009878:	e51b0010 	ldr	r0, [fp, #-16]
2000987c:	eb000001 	bl	20009888 <vh_swi>
20009880:	e24bd00c 	sub	sp, fp, #12	; 0xc
20009884:	e89da800 	ldm	sp, {fp, sp, pc}

20009888 <vh_swi>:
20009888:	e1a0c00d 	mov	ip, sp
2000988c:	e92dd800 	push	{fp, ip, lr, pc}
20009890:	e24cb004 	sub	fp, ip, #4	; 0x4
20009894:	e24dd008 	sub	sp, sp, #8	; 0x8
20009898:	e50b0010 	str	r0, [fp, #-16]
2000989c:	ef000000 	svc	0x00000000
200098a0:	e24bd00c 	sub	sp, fp, #12	; 0xc
200098a4:	e89da800 	ldm	sp, {fp, sp, pc}

200098a8 <vh_enable_interrupt>:
200098a8:	e1a0c00d 	mov	ip, sp
200098ac:	e92dd800 	push	{fp, ip, lr, pc}
200098b0:	e24cb004 	sub	fp, ip, #4	; 0x4
200098b4:	e24dd010 	sub	sp, sp, #16	; 0x10
200098b8:	e50b0018 	str	r0, [fp, #-24]
200098bc:	e14f3000 	mrs	r3, SPSR
200098c0:	e3c330c0 	bic	r3, r3, #192	; 0xc0
200098c4:	e161f003 	msr	SPSR_c, r3
200098c8:	e50b3010 	str	r3, [fp, #-16]
200098cc:	e24bd00c 	sub	sp, fp, #12	; 0xc
200098d0:	e89da800 	ldm	sp, {fp, sp, pc}

200098d4 <vh_disable_interrupt>:
200098d4:	e1a0c00d 	mov	ip, sp
200098d8:	e92dd800 	push	{fp, ip, lr, pc}
200098dc:	e24cb004 	sub	fp, ip, #4	; 0x4
200098e0:	e24dd010 	sub	sp, sp, #16	; 0x10
200098e4:	e50b0018 	str	r0, [fp, #-24]
200098e8:	e14f3000 	mrs	r3, SPSR
200098ec:	e3833080 	orr	r3, r3, #128	; 0x80
200098f0:	e161f003 	msr	SPSR_c, r3
200098f4:	e50b3010 	str	r3, [fp, #-16]
200098f8:	e24bd00c 	sub	sp, fp, #12	; 0xc
200098fc:	e89da800 	ldm	sp, {fp, sp, pc}

20009900 <__aeabi_unwind_cpp_pr0>:
20009900:	e1a0c00d 	mov	ip, sp
20009904:	e92dd800 	push	{fp, ip, lr, pc}
20009908:	e24cb004 	sub	fp, ip, #4	; 0x4
2000990c:	e89da800 	ldm	sp, {fp, sp, pc}

20009910 <set_interrupt>:
20009910:	e1a0c00d 	mov	ip, sp
20009914:	e92dd800 	push	{fp, ip, lr, pc}
20009918:	e24cb004 	sub	fp, ip, #4	; 0x4
2000991c:	eb001512 	bl	2000ed6c <vh_serial_irq_enable>
20009920:	e89da800 	ldm	sp, {fp, sp, pc}

20009924 <TIMER_test>:
20009924:	e1a0c00d 	mov	ip, sp
20009928:	e92dd800 	push	{fp, ip, lr, pc}
2000992c:	e24cb004 	sub	fp, ip, #4	; 0x4
20009930:	e24dd038 	sub	sp, sp, #56	; 0x38
20009934:	e59f10c4 	ldr	r1, [pc, #196]	; 20009a00 <TIMER_test+0xdc>
20009938:	e50b1040 	str	r1, [fp, #-64]
2000993c:	e51b3040 	ldr	r3, [fp, #-64]
20009940:	e08f3003 	add	r3, pc, r3
20009944:	e50b3040 	str	r3, [fp, #-64]
20009948:	e59f20b4 	ldr	r2, [pc, #180]	; 20009a04 <TIMER_test+0xe0>
2000994c:	e59f30b0 	ldr	r3, [pc, #176]	; 20009a04 <TIMER_test+0xe0>
20009950:	e5933000 	ldr	r3, [r3]
20009954:	e3c33607 	bic	r3, r3, #7340032	; 0x700000
20009958:	e3833606 	orr	r3, r3, #6291456	; 0x600000
2000995c:	e5823000 	str	r3, [r2]
20009960:	e59f209c 	ldr	r2, [pc, #156]	; 20009a04 <TIMER_test+0xe0>
20009964:	e59f3098 	ldr	r3, [pc, #152]	; 20009a04 <TIMER_test+0xe0>
20009968:	e5933000 	ldr	r3, [r3]
2000996c:	e3c33607 	bic	r3, r3, #7340032	; 0x700000
20009970:	e3833605 	orr	r3, r3, #5242880	; 0x500000
20009974:	e5823000 	str	r3, [r2]
20009978:	e3a03000 	mov	r3, #0	; 0x0
2000997c:	e50b3010 	str	r3, [fp, #-16]
20009980:	ea000019 	b	200099ec <TIMER_test+0xc8>
20009984:	e51b1010 	ldr	r1, [fp, #-16]
20009988:	e59f3078 	ldr	r3, [pc, #120]	; 20009a08 <TIMER_test+0xe4>
2000998c:	e5933000 	ldr	r3, [r3]
20009990:	e1a00003 	mov	r0, r3
20009994:	e3e0202b 	mvn	r2, #43	; 0x2b
20009998:	e1a03101 	lsl	r3, r1, #2
2000999c:	e24b100c 	sub	r1, fp, #12	; 0xc
200099a0:	e0813003 	add	r3, r1, r3
200099a4:	e0833002 	add	r3, r3, r2
200099a8:	e5830000 	str	r0, [r3]
200099ac:	e51b3010 	ldr	r3, [fp, #-16]
200099b0:	e3e0202b 	mvn	r2, #43	; 0x2b
200099b4:	e1a03103 	lsl	r3, r3, #2
200099b8:	e24b100c 	sub	r1, fp, #12	; 0xc
200099bc:	e0813003 	add	r3, r1, r3
200099c0:	e0833002 	add	r3, r3, r2
200099c4:	e5932000 	ldr	r2, [r3]
200099c8:	e59f303c 	ldr	r3, [pc, #60]	; 20009a0c <TIMER_test+0xe8>
200099cc:	e51b1040 	ldr	r1, [fp, #-64]
200099d0:	e0813003 	add	r3, r1, r3
200099d4:	e1a00003 	mov	r0, r3
200099d8:	e51b1010 	ldr	r1, [fp, #-16]
200099dc:	eb000c46 	bl	2000cafc <printk>
200099e0:	e51b3010 	ldr	r3, [fp, #-16]
200099e4:	e2833001 	add	r3, r3, #1	; 0x1
200099e8:	e50b3010 	str	r3, [fp, #-16]
200099ec:	e51b3010 	ldr	r3, [fp, #-16]
200099f0:	e3530009 	cmp	r3, #9	; 0x9
200099f4:	daffffe2 	ble	20009984 <TIMER_test+0x60>
200099f8:	e24bd00c 	sub	sp, fp, #12	; 0xc
200099fc:	e89da800 	ldm	sp, {fp, sp, pc}
20009a00:	00009c40 	.word	0x00009c40
20009a04:	ea000008 	.word	0xea000008
20009a08:	ea000040 	.word	0xea000040
20009a0c:	fffff784 	.word	0xfffff784

20009a10 <VPOS_kernel_main>:
20009a10:	e1a0c00d 	mov	ip, sp
20009a14:	e92dd830 	push	{r4, r5, fp, ip, lr, pc}
20009a18:	e24cb004 	sub	fp, ip, #4	; 0x4
20009a1c:	e24dd020 	sub	sp, sp, #32	; 0x20
20009a20:	e59f40b4 	ldr	r4, [pc, #180]	; 20009adc <VPOS_kernel_main+0xcc>
20009a24:	e08f4004 	add	r4, pc, r4
20009a28:	eb001158 	bl	2000df90 <vk_scheduler_unlock>
20009a2c:	eb001c5b 	bl	20010ba0 <init_thread_id>
20009a30:	eb00101c 	bl	2000daa8 <init_thread_pointer>
20009a34:	e59f30a4 	ldr	r3, [pc, #164]	; 20009ae0 <VPOS_kernel_main+0xd0>
20009a38:	e7942003 	ldr	r2, [r4, r3]
20009a3c:	e3a03010 	mov	r3, #16	; 0x10
20009a40:	e5823000 	str	r3, [r2]
20009a44:	eb000c8a 	bl	2000cc74 <vk_init_kdata_struct>
20009a48:	eb000174 	bl	2000a020 <vk_machine_init>
20009a4c:	ebffffaf 	bl	20009910 <set_interrupt>
20009a50:	e59f308c 	ldr	r3, [pc, #140]	; 20009ae4 <VPOS_kernel_main+0xd4>
20009a54:	e7943003 	ldr	r3, [r4, r3]
20009a58:	e5932000 	ldr	r2, [r3]
20009a5c:	e59f3084 	ldr	r3, [pc, #132]	; 20009ae8 <VPOS_kernel_main+0xd8>
20009a60:	e7943003 	ldr	r3, [r4, r3]
20009a64:	e593c000 	ldr	ip, [r3]
20009a68:	e59f307c 	ldr	r3, [pc, #124]	; 20009aec <VPOS_kernel_main+0xdc>
20009a6c:	e7943003 	ldr	r3, [r4, r3]
20009a70:	e5935000 	ldr	r5, [r3]
20009a74:	e59f3074 	ldr	r3, [pc, #116]	; 20009af0 <VPOS_kernel_main+0xe0>
20009a78:	e0843003 	add	r3, r4, r3
20009a7c:	e1a00003 	mov	r0, r3
20009a80:	e1a01002 	mov	r1, r2
20009a84:	e1a0200c 	mov	r2, ip
20009a88:	e1a03005 	mov	r3, r5
20009a8c:	eb000c1a 	bl	2000cafc <printk>
20009a90:	ebffffa3 	bl	20009924 <TIMER_test>
20009a94:	e59f3058 	ldr	r3, [pc, #88]	; 20009af4 <VPOS_kernel_main+0xe4>
20009a98:	e7942003 	ldr	r2, [r4, r3]
20009a9c:	e3a03000 	mov	r3, #0	; 0x0
20009aa0:	e5823000 	str	r3, [r2]
20009aa4:	e24b301c 	sub	r3, fp, #28	; 0x1c
20009aa8:	e1a00003 	mov	r0, r3
20009aac:	e3a01000 	mov	r1, #0	; 0x0
20009ab0:	e59f3040 	ldr	r3, [pc, #64]	; 20009af8 <VPOS_kernel_main+0xe8>
20009ab4:	e7943003 	ldr	r3, [r4, r3]
20009ab8:	e1a02003 	mov	r2, r3
20009abc:	e3a03000 	mov	r3, #0	; 0x0
20009ac0:	eb001c42 	bl	20010bd0 <pthread_create>
20009ac4:	eb001112 	bl	2000df14 <VPOS_start>
20009ac8:	e59f302c 	ldr	r3, [pc, #44]	; 20009afc <VPOS_kernel_main+0xec>
20009acc:	e0843003 	add	r3, r4, r3
20009ad0:	e1a00003 	mov	r0, r3
20009ad4:	eb000c08 	bl	2000cafc <printk>
20009ad8:	eafffffe 	b	20009ad8 <VPOS_kernel_main+0xc8>
20009adc:	00009b5c 	.word	0x00009b5c
20009ae0:	000000a4 	.word	0x000000a4
20009ae4:	00000040 	.word	0x00000040
20009ae8:	00000020 	.word	0x00000020
20009aec:	00000034 	.word	0x00000034
20009af0:	fffff79c 	.word	0xfffff79c
20009af4:	0000002c 	.word	0x0000002c
20009af8:	00000068 	.word	0x00000068
20009afc:	fffff7a8 	.word	0xfffff7a8

20009b00 <vk_malloc>:
20009b00:	e1a0c00d 	mov	ip, sp
20009b04:	e92dd800 	push	{fp, ip, lr, pc}
20009b08:	e24cb004 	sub	fp, ip, #4	; 0x4
20009b0c:	e24dd020 	sub	sp, sp, #32	; 0x20
20009b10:	e59f11d8 	ldr	r1, [pc, #472]	; 20009cf0 <vk_malloc+0x1f0>
20009b14:	e50b1028 	str	r1, [fp, #-40]
20009b18:	e51b2028 	ldr	r2, [fp, #-40]
20009b1c:	e08f2002 	add	r2, pc, r2
20009b20:	e50b2028 	str	r2, [fp, #-40]
20009b24:	e50b0020 	str	r0, [fp, #-32]
20009b28:	e59f31c4 	ldr	r3, [pc, #452]	; 20009cf4 <vk_malloc+0x1f4>
20009b2c:	e51b1028 	ldr	r1, [fp, #-40]
20009b30:	e0813003 	add	r3, r1, r3
20009b34:	e5933000 	ldr	r3, [r3]
20009b38:	e3530001 	cmp	r3, #1	; 0x1
20009b3c:	1a000004 	bne	20009b54 <vk_malloc+0x54>
20009b40:	e59f31ac 	ldr	r3, [pc, #428]	; 20009cf4 <vk_malloc+0x1f4>
20009b44:	e51b1028 	ldr	r1, [fp, #-40]
20009b48:	e0812003 	add	r2, r1, r3
20009b4c:	e3a03000 	mov	r3, #0	; 0x0
20009b50:	e5823000 	str	r3, [r2]
20009b54:	e51b3020 	ldr	r3, [fp, #-32]
20009b58:	e2833007 	add	r3, r3, #7	; 0x7
20009b5c:	e1a031a3 	lsr	r3, r3, #3
20009b60:	e2833001 	add	r3, r3, #1	; 0x1
20009b64:	e50b3010 	str	r3, [fp, #-16]
20009b68:	e59f3184 	ldr	r3, [pc, #388]	; 20009cf4 <vk_malloc+0x1f4>
20009b6c:	e51b2028 	ldr	r2, [fp, #-40]
20009b70:	e0823003 	add	r3, r2, r3
20009b74:	e5933000 	ldr	r3, [r3]
20009b78:	e50b3014 	str	r3, [fp, #-20]
20009b7c:	e51b3014 	ldr	r3, [fp, #-20]
20009b80:	e3530000 	cmp	r3, #0	; 0x0
20009b84:	1a000015 	bne	20009be0 <vk_malloc+0xe0>
20009b88:	e59f3168 	ldr	r3, [pc, #360]	; 20009cf8 <vk_malloc+0x1f8>
20009b8c:	e51b1028 	ldr	r1, [fp, #-40]
20009b90:	e0813003 	add	r3, r1, r3
20009b94:	e50b3014 	str	r3, [fp, #-20]
20009b98:	e59f3154 	ldr	r3, [pc, #340]	; 20009cf4 <vk_malloc+0x1f4>
20009b9c:	e51b1028 	ldr	r1, [fp, #-40]
20009ba0:	e0812003 	add	r2, r1, r3
20009ba4:	e51b3014 	ldr	r3, [fp, #-20]
20009ba8:	e5823000 	str	r3, [r2]
20009bac:	e59f3140 	ldr	r3, [pc, #320]	; 20009cf4 <vk_malloc+0x1f4>
20009bb0:	e51b2028 	ldr	r2, [fp, #-40]
20009bb4:	e0823003 	add	r3, r2, r3
20009bb8:	e5932000 	ldr	r2, [r3]
20009bbc:	e59f3134 	ldr	r3, [pc, #308]	; 20009cf8 <vk_malloc+0x1f8>
20009bc0:	e51b1028 	ldr	r1, [fp, #-40]
20009bc4:	e0813003 	add	r3, r1, r3
20009bc8:	e5832000 	str	r2, [r3]
20009bcc:	e59f3124 	ldr	r3, [pc, #292]	; 20009cf8 <vk_malloc+0x1f8>
20009bd0:	e51b1028 	ldr	r1, [fp, #-40]
20009bd4:	e0812003 	add	r2, r1, r3
20009bd8:	e3a03000 	mov	r3, #0	; 0x0
20009bdc:	e5823004 	str	r3, [r2, #4]
20009be0:	e51b3014 	ldr	r3, [fp, #-20]
20009be4:	e5933000 	ldr	r3, [r3]
20009be8:	e50b3018 	str	r3, [fp, #-24]
20009bec:	e51b3018 	ldr	r3, [fp, #-24]
20009bf0:	e5932004 	ldr	r2, [r3, #4]
20009bf4:	e51b3010 	ldr	r3, [fp, #-16]
20009bf8:	e1520003 	cmp	r2, r3
20009bfc:	3a000021 	bcc	20009c88 <vk_malloc+0x188>
20009c00:	e51b3018 	ldr	r3, [fp, #-24]
20009c04:	e5932004 	ldr	r2, [r3, #4]
20009c08:	e51b3010 	ldr	r3, [fp, #-16]
20009c0c:	e1520003 	cmp	r2, r3
20009c10:	1a000004 	bne	20009c28 <vk_malloc+0x128>
20009c14:	e51b3018 	ldr	r3, [fp, #-24]
20009c18:	e5932000 	ldr	r2, [r3]
20009c1c:	e51b3014 	ldr	r3, [fp, #-20]
20009c20:	e5832000 	str	r2, [r3]
20009c24:	ea00000e 	b	20009c64 <vk_malloc+0x164>
20009c28:	e51b3018 	ldr	r3, [fp, #-24]
20009c2c:	e5932004 	ldr	r2, [r3, #4]
20009c30:	e51b3010 	ldr	r3, [fp, #-16]
20009c34:	e0632002 	rsb	r2, r3, r2
20009c38:	e51b3018 	ldr	r3, [fp, #-24]
20009c3c:	e5832004 	str	r2, [r3, #4]
20009c40:	e51b3018 	ldr	r3, [fp, #-24]
20009c44:	e5933004 	ldr	r3, [r3, #4]
20009c48:	e1a02183 	lsl	r2, r3, #3
20009c4c:	e51b3018 	ldr	r3, [fp, #-24]
20009c50:	e0833002 	add	r3, r3, r2
20009c54:	e50b3018 	str	r3, [fp, #-24]
20009c58:	e51b2018 	ldr	r2, [fp, #-24]
20009c5c:	e51b3010 	ldr	r3, [fp, #-16]
20009c60:	e5823004 	str	r3, [r2, #4]
20009c64:	e59f3088 	ldr	r3, [pc, #136]	; 20009cf4 <vk_malloc+0x1f4>
20009c68:	e51b1028 	ldr	r1, [fp, #-40]
20009c6c:	e0812003 	add	r2, r1, r3
20009c70:	e51b3014 	ldr	r3, [fp, #-20]
20009c74:	e5823000 	str	r3, [r2]
20009c78:	e51b3018 	ldr	r3, [fp, #-24]
20009c7c:	e2833008 	add	r3, r3, #8	; 0x8
20009c80:	e50b3024 	str	r3, [fp, #-36]
20009c84:	ea000015 	b	20009ce0 <vk_malloc+0x1e0>
20009c88:	e59f3064 	ldr	r3, [pc, #100]	; 20009cf4 <vk_malloc+0x1f4>
20009c8c:	e51b2028 	ldr	r2, [fp, #-40]
20009c90:	e0823003 	add	r3, r2, r3
20009c94:	e5932000 	ldr	r2, [r3]
20009c98:	e51b3018 	ldr	r3, [fp, #-24]
20009c9c:	e1530002 	cmp	r3, r2
20009ca0:	1a000008 	bne	20009cc8 <vk_malloc+0x1c8>
20009ca4:	eb000014 	bl	20009cfc <heap_memory_alloc>
20009ca8:	e1a03000 	mov	r3, r0
20009cac:	e50b3018 	str	r3, [fp, #-24]
20009cb0:	e51b3018 	ldr	r3, [fp, #-24]
20009cb4:	e3530000 	cmp	r3, #0	; 0x0
20009cb8:	1a000002 	bne	20009cc8 <vk_malloc+0x1c8>
20009cbc:	e3a03000 	mov	r3, #0	; 0x0
20009cc0:	e50b3024 	str	r3, [fp, #-36]
20009cc4:	ea000005 	b	20009ce0 <vk_malloc+0x1e0>
20009cc8:	e51b3018 	ldr	r3, [fp, #-24]
20009ccc:	e50b3014 	str	r3, [fp, #-20]
20009cd0:	e51b3018 	ldr	r3, [fp, #-24]
20009cd4:	e5933000 	ldr	r3, [r3]
20009cd8:	e50b3018 	str	r3, [fp, #-24]
20009cdc:	eaffffc2 	b	20009bec <vk_malloc+0xec>
20009ce0:	e51b3024 	ldr	r3, [fp, #-36]
20009ce4:	e1a00003 	mov	r0, r3
20009ce8:	e24bd00c 	sub	sp, fp, #12	; 0xc
20009cec:	e89da800 	ldm	sp, {fp, sp, pc}
20009cf0:	00009a64 	.word	0x00009a64
20009cf4:	fffffefc 	.word	0xfffffefc
20009cf8:	000f4324 	.word	0x000f4324

20009cfc <heap_memory_alloc>:
20009cfc:	e1a0c00d 	mov	ip, sp
20009d00:	e92dd800 	push	{fp, ip, lr, pc}
20009d04:	e24cb004 	sub	fp, ip, #4	; 0x4
20009d08:	e24dd010 	sub	sp, sp, #16	; 0x10
20009d0c:	e59f10b0 	ldr	r1, [pc, #176]	; 20009dc4 <heap_memory_alloc+0xc8>
20009d10:	e50b101c 	str	r1, [fp, #-28]
20009d14:	e51b201c 	ldr	r2, [fp, #-28]
20009d18:	e08f2002 	add	r2, pc, r2
20009d1c:	e50b201c 	str	r2, [fp, #-28]
20009d20:	e59f30a0 	ldr	r3, [pc, #160]	; 20009dc8 <heap_memory_alloc+0xcc>
20009d24:	e51b101c 	ldr	r1, [fp, #-28]
20009d28:	e0812003 	add	r2, r1, r3
20009d2c:	e3a03000 	mov	r3, #0	; 0x0
20009d30:	e5823000 	str	r3, [r2]
20009d34:	e59f308c 	ldr	r3, [pc, #140]	; 20009dc8 <heap_memory_alloc+0xcc>
20009d38:	e51b201c 	ldr	r2, [fp, #-28]
20009d3c:	e0823003 	add	r3, r2, r3
20009d40:	e5933000 	ldr	r3, [r3]
20009d44:	e3530000 	cmp	r3, #0	; 0x0
20009d48:	1a000017 	bne	20009dac <heap_memory_alloc+0xb0>
20009d4c:	e59f3074 	ldr	r3, [pc, #116]	; 20009dc8 <heap_memory_alloc+0xcc>
20009d50:	e51b101c 	ldr	r1, [fp, #-28]
20009d54:	e0812003 	add	r2, r1, r3
20009d58:	e3a03001 	mov	r3, #1	; 0x1
20009d5c:	e5823000 	str	r3, [r2]
20009d60:	e59f3064 	ldr	r3, [pc, #100]	; 20009dcc <heap_memory_alloc+0xd0>
20009d64:	e51b201c 	ldr	r2, [fp, #-28]
20009d68:	e0823003 	add	r3, r2, r3
20009d6c:	e50b3014 	str	r3, [fp, #-20]
20009d70:	e51b3014 	ldr	r3, [fp, #-20]
20009d74:	e50b3010 	str	r3, [fp, #-16]
20009d78:	e51b2010 	ldr	r2, [fp, #-16]
20009d7c:	e59f304c 	ldr	r3, [pc, #76]	; 20009dd0 <heap_memory_alloc+0xd4>
20009d80:	e5823004 	str	r3, [r2, #4]
20009d84:	e51b3010 	ldr	r3, [fp, #-16]
20009d88:	e2833008 	add	r3, r3, #8	; 0x8
20009d8c:	e1a00003 	mov	r0, r3
20009d90:	eb000010 	bl	20009dd8 <vk_free>
20009d94:	e59f3038 	ldr	r3, [pc, #56]	; 20009dd4 <heap_memory_alloc+0xd8>
20009d98:	e51b101c 	ldr	r1, [fp, #-28]
20009d9c:	e0813003 	add	r3, r1, r3
20009da0:	e5933000 	ldr	r3, [r3]
20009da4:	e50b3018 	str	r3, [fp, #-24]
20009da8:	ea000001 	b	20009db4 <heap_memory_alloc+0xb8>
20009dac:	e3a02000 	mov	r2, #0	; 0x0
20009db0:	e50b2018 	str	r2, [fp, #-24]
20009db4:	e51b3018 	ldr	r3, [fp, #-24]
20009db8:	e1a00003 	mov	r0, r3
20009dbc:	e24bd00c 	sub	sp, fp, #12	; 0xc
20009dc0:	e89da800 	ldm	sp, {fp, sp, pc}
20009dc4:	00009868 	.word	0x00009868
20009dc8:	000f4320 	.word	0x000f4320
20009dcc:	000000e0 	.word	0x000000e0
20009dd0:	0001e848 	.word	0x0001e848
20009dd4:	fffffefc 	.word	0xfffffefc

20009dd8 <vk_free>:
20009dd8:	e1a0c00d 	mov	ip, sp
20009ddc:	e92dd800 	push	{fp, ip, lr, pc}
20009de0:	e24cb004 	sub	fp, ip, #4	; 0x4
20009de4:	e24dd010 	sub	sp, sp, #16	; 0x10
20009de8:	e59f1188 	ldr	r1, [pc, #392]	; 20009f78 <vk_free+0x1a0>
20009dec:	e50b101c 	str	r1, [fp, #-28]
20009df0:	e51b201c 	ldr	r2, [fp, #-28]
20009df4:	e08f2002 	add	r2, pc, r2
20009df8:	e50b201c 	str	r2, [fp, #-28]
20009dfc:	e50b0018 	str	r0, [fp, #-24]
20009e00:	e51b3018 	ldr	r3, [fp, #-24]
20009e04:	e2433008 	sub	r3, r3, #8	; 0x8
20009e08:	e50b3014 	str	r3, [fp, #-20]
20009e0c:	e59f3168 	ldr	r3, [pc, #360]	; 20009f7c <vk_free+0x1a4>
20009e10:	e51b101c 	ldr	r1, [fp, #-28]
20009e14:	e0813003 	add	r3, r1, r3
20009e18:	e5933000 	ldr	r3, [r3]
20009e1c:	e50b3010 	str	r3, [fp, #-16]
20009e20:	ea000010 	b	20009e68 <vk_free+0x90>
20009e24:	e51b3010 	ldr	r3, [fp, #-16]
20009e28:	e5932000 	ldr	r2, [r3]
20009e2c:	e51b3010 	ldr	r3, [fp, #-16]
20009e30:	e1520003 	cmp	r2, r3
20009e34:	8a000008 	bhi	20009e5c <vk_free+0x84>
20009e38:	e51b2014 	ldr	r2, [fp, #-20]
20009e3c:	e51b3010 	ldr	r3, [fp, #-16]
20009e40:	e1520003 	cmp	r2, r3
20009e44:	8a000010 	bhi	20009e8c <vk_free+0xb4>
20009e48:	e51b3010 	ldr	r3, [fp, #-16]
20009e4c:	e5932000 	ldr	r2, [r3]
20009e50:	e51b3014 	ldr	r3, [fp, #-20]
20009e54:	e1520003 	cmp	r2, r3
20009e58:	8a00000b 	bhi	20009e8c <vk_free+0xb4>
20009e5c:	e51b3010 	ldr	r3, [fp, #-16]
20009e60:	e5933000 	ldr	r3, [r3]
20009e64:	e50b3010 	str	r3, [fp, #-16]
20009e68:	e51b2014 	ldr	r2, [fp, #-20]
20009e6c:	e51b3010 	ldr	r3, [fp, #-16]
20009e70:	e1520003 	cmp	r2, r3
20009e74:	9affffea 	bls	20009e24 <vk_free+0x4c>
20009e78:	e51b3010 	ldr	r3, [fp, #-16]
20009e7c:	e5932000 	ldr	r2, [r3]
20009e80:	e51b3014 	ldr	r3, [fp, #-20]
20009e84:	e1520003 	cmp	r2, r3
20009e88:	9affffe5 	bls	20009e24 <vk_free+0x4c>
20009e8c:	e51b3014 	ldr	r3, [fp, #-20]
20009e90:	e5933004 	ldr	r3, [r3, #4]
20009e94:	e1a02183 	lsl	r2, r3, #3
20009e98:	e51b3014 	ldr	r3, [fp, #-20]
20009e9c:	e0832002 	add	r2, r3, r2
20009ea0:	e51b3010 	ldr	r3, [fp, #-16]
20009ea4:	e5933000 	ldr	r3, [r3]
20009ea8:	e1520003 	cmp	r2, r3
20009eac:	1a00000d 	bne	20009ee8 <vk_free+0x110>
20009eb0:	e51b3014 	ldr	r3, [fp, #-20]
20009eb4:	e5932004 	ldr	r2, [r3, #4]
20009eb8:	e51b3010 	ldr	r3, [fp, #-16]
20009ebc:	e5933000 	ldr	r3, [r3]
20009ec0:	e5933004 	ldr	r3, [r3, #4]
20009ec4:	e0822003 	add	r2, r2, r3
20009ec8:	e51b3014 	ldr	r3, [fp, #-20]
20009ecc:	e5832004 	str	r2, [r3, #4]
20009ed0:	e51b3010 	ldr	r3, [fp, #-16]
20009ed4:	e5933000 	ldr	r3, [r3]
20009ed8:	e5932000 	ldr	r2, [r3]
20009edc:	e51b3014 	ldr	r3, [fp, #-20]
20009ee0:	e5832000 	str	r2, [r3]
20009ee4:	ea000003 	b	20009ef8 <vk_free+0x120>
20009ee8:	e51b3010 	ldr	r3, [fp, #-16]
20009eec:	e5932000 	ldr	r2, [r3]
20009ef0:	e51b3014 	ldr	r3, [fp, #-20]
20009ef4:	e5832000 	str	r2, [r3]
20009ef8:	e51b3010 	ldr	r3, [fp, #-16]
20009efc:	e5933004 	ldr	r3, [r3, #4]
20009f00:	e1a02183 	lsl	r2, r3, #3
20009f04:	e51b3010 	ldr	r3, [fp, #-16]
20009f08:	e0832002 	add	r2, r3, r2
20009f0c:	e51b3014 	ldr	r3, [fp, #-20]
20009f10:	e1520003 	cmp	r2, r3
20009f14:	1a00000b 	bne	20009f48 <vk_free+0x170>
20009f18:	e51b3010 	ldr	r3, [fp, #-16]
20009f1c:	e5932004 	ldr	r2, [r3, #4]
20009f20:	e51b3014 	ldr	r3, [fp, #-20]
20009f24:	e5933004 	ldr	r3, [r3, #4]
20009f28:	e0822003 	add	r2, r2, r3
20009f2c:	e51b3010 	ldr	r3, [fp, #-16]
20009f30:	e5832004 	str	r2, [r3, #4]
20009f34:	e51b3014 	ldr	r3, [fp, #-20]
20009f38:	e5932000 	ldr	r2, [r3]
20009f3c:	e51b3010 	ldr	r3, [fp, #-16]
20009f40:	e5832000 	str	r2, [r3]
20009f44:	ea000002 	b	20009f54 <vk_free+0x17c>
20009f48:	e51b2010 	ldr	r2, [fp, #-16]
20009f4c:	e51b3014 	ldr	r3, [fp, #-20]
20009f50:	e5823000 	str	r3, [r2]
20009f54:	e59f3020 	ldr	r3, [pc, #32]	; 20009f7c <vk_free+0x1a4>
20009f58:	e51b101c 	ldr	r1, [fp, #-28]
20009f5c:	e0812003 	add	r2, r1, r3
20009f60:	e51b3010 	ldr	r3, [fp, #-16]
20009f64:	e5823000 	str	r3, [r2]
20009f68:	e3a03000 	mov	r3, #0	; 0x0
20009f6c:	e50b3018 	str	r3, [fp, #-24]
20009f70:	e24bd00c 	sub	sp, fp, #12	; 0xc
20009f74:	e89da800 	ldm	sp, {fp, sp, pc}
20009f78:	0000978c 	.word	0x0000978c
20009f7c:	fffffefc 	.word	0xfffffefc

20009f80 <vh_LedInit>:
20009f80:	e1a0c00d 	mov	ip, sp
20009f84:	e92dd800 	push	{fp, ip, lr, pc}
20009f88:	e24cb004 	sub	fp, ip, #4	; 0x4
20009f8c:	e59f2020 	ldr	r2, [pc, #32]	; 20009fb4 <vh_LedInit+0x34>
20009f90:	e59f3020 	ldr	r3, [pc, #32]	; 20009fb8 <vh_LedInit+0x38>
20009f94:	e5823000 	str	r3, [r2]
20009f98:	e59f201c 	ldr	r2, [pc, #28]	; 20009fbc <vh_LedInit+0x3c>
20009f9c:	e3a0300f 	mov	r3, #15	; 0xf
20009fa0:	e5823000 	str	r3, [r2]
20009fa4:	e59f2010 	ldr	r2, [pc, #16]	; 20009fbc <vh_LedInit+0x3c>
20009fa8:	e3a03000 	mov	r3, #0	; 0x0
20009fac:	e5823000 	str	r3, [r2]
20009fb0:	e89da800 	ldm	sp, {fp, sp, pc}
20009fb4:	e0300240 	.word	0xe0300240
20009fb8:	00001111 	.word	0x00001111
20009fbc:	e0300244 	.word	0xe0300244

20009fc0 <vh_LedSet>:
20009fc0:	e1a0c00d 	mov	ip, sp
20009fc4:	e92dd800 	push	{fp, ip, lr, pc}
20009fc8:	e24cb004 	sub	fp, ip, #4	; 0x4
20009fcc:	e24dd008 	sub	sp, sp, #8	; 0x8
20009fd0:	e1a03000 	mov	r3, r0
20009fd4:	e54b300d 	strb	r3, [fp, #-13]
20009fd8:	e24bd00c 	sub	sp, fp, #12	; 0xc
20009fdc:	e89da800 	ldm	sp, {fp, sp, pc}

20009fe0 <vh_LedOn>:
20009fe0:	e1a0c00d 	mov	ip, sp
20009fe4:	e92dd800 	push	{fp, ip, lr, pc}
20009fe8:	e24cb004 	sub	fp, ip, #4	; 0x4
20009fec:	e24dd008 	sub	sp, sp, #8	; 0x8
20009ff0:	e1a03000 	mov	r3, r0
20009ff4:	e54b300d 	strb	r3, [fp, #-13]
20009ff8:	e24bd00c 	sub	sp, fp, #12	; 0xc
20009ffc:	e89da800 	ldm	sp, {fp, sp, pc}

2000a000 <vh_LedOff>:
2000a000:	e1a0c00d 	mov	ip, sp
2000a004:	e92dd800 	push	{fp, ip, lr, pc}
2000a008:	e24cb004 	sub	fp, ip, #4	; 0x4
2000a00c:	e24dd008 	sub	sp, sp, #8	; 0x8
2000a010:	e1a03000 	mov	r3, r0
2000a014:	e54b300d 	strb	r3, [fp, #-13]
2000a018:	e24bd00c 	sub	sp, fp, #12	; 0xc
2000a01c:	e89da800 	ldm	sp, {fp, sp, pc}

2000a020 <vk_machine_init>:
2000a020:	e1a0c00d 	mov	ip, sp
2000a024:	e92dd800 	push	{fp, ip, lr, pc}
2000a028:	e24cb004 	sub	fp, ip, #4	; 0x4
2000a02c:	eb001305 	bl	2000ec48 <vh_serial_init>
2000a030:	eb001ddb 	bl	200117a4 <vh_timer_init>
2000a034:	e89da800 	ldm	sp, {fp, sp, pc}

2000a038 <malloc>:
2000a038:	e1a0c00d 	mov	ip, sp
2000a03c:	e92dd800 	push	{fp, ip, lr, pc}
2000a040:	e24cb004 	sub	fp, ip, #4	; 0x4
2000a044:	e24dd010 	sub	sp, sp, #16	; 0x10
2000a048:	e59f3058 	ldr	r3, [pc, #88]	; 2000a0a8 <malloc+0x70>
2000a04c:	e08f3003 	add	r3, pc, r3
2000a050:	e50b0018 	str	r0, [fp, #-24]
2000a054:	e59f2050 	ldr	r2, [pc, #80]	; 2000a0ac <malloc+0x74>
2000a058:	e7933002 	ldr	r3, [r3, r2]
2000a05c:	e5933000 	ldr	r3, [r3]
2000a060:	e5933038 	ldr	r3, [r3, #56]
2000a064:	e50b3010 	str	r3, [fp, #-16]
2000a068:	e51b3010 	ldr	r3, [fp, #-16]
2000a06c:	e3530000 	cmp	r3, #0	; 0x0
2000a070:	1a000000 	bne	2000a078 <malloc+0x40>
2000a074:	ebfffdbd 	bl	20009770 <vk_disable_interrupt>
2000a078:	e51b0018 	ldr	r0, [fp, #-24]
2000a07c:	ebfffe9f 	bl	20009b00 <vk_malloc>
2000a080:	e1a03000 	mov	r3, r0
2000a084:	e50b3014 	str	r3, [fp, #-20]
2000a088:	e51b3010 	ldr	r3, [fp, #-16]
2000a08c:	e3530000 	cmp	r3, #0	; 0x0
2000a090:	1a000000 	bne	2000a098 <malloc+0x60>
2000a094:	ebfffda0 	bl	2000971c <vk_enable_interrupt>
2000a098:	e51b3014 	ldr	r3, [fp, #-20]
2000a09c:	e1a00003 	mov	r0, r3
2000a0a0:	e24bd00c 	sub	sp, fp, #12	; 0xc
2000a0a4:	e89da800 	ldm	sp, {fp, sp, pc}
2000a0a8:	00009534 	.word	0x00009534
2000a0ac:	000000ac 	.word	0x000000ac

2000a0b0 <free>:
2000a0b0:	e1a0c00d 	mov	ip, sp
2000a0b4:	e92dd800 	push	{fp, ip, lr, pc}
2000a0b8:	e24cb004 	sub	fp, ip, #4	; 0x4
2000a0bc:	e24dd010 	sub	sp, sp, #16	; 0x10
2000a0c0:	e59f3048 	ldr	r3, [pc, #72]	; 2000a110 <free+0x60>
2000a0c4:	e08f3003 	add	r3, pc, r3
2000a0c8:	e50b0018 	str	r0, [fp, #-24]
2000a0cc:	e59f2040 	ldr	r2, [pc, #64]	; 2000a114 <free+0x64>
2000a0d0:	e7933002 	ldr	r3, [r3, r2]
2000a0d4:	e5933000 	ldr	r3, [r3]
2000a0d8:	e5933038 	ldr	r3, [r3, #56]
2000a0dc:	e50b3010 	str	r3, [fp, #-16]
2000a0e0:	e51b3010 	ldr	r3, [fp, #-16]
2000a0e4:	e3530000 	cmp	r3, #0	; 0x0
2000a0e8:	1a000000 	bne	2000a0f0 <free+0x40>
2000a0ec:	ebfffd9f 	bl	20009770 <vk_disable_interrupt>
2000a0f0:	e51b0018 	ldr	r0, [fp, #-24]
2000a0f4:	ebffff37 	bl	20009dd8 <vk_free>
2000a0f8:	e51b3010 	ldr	r3, [fp, #-16]
2000a0fc:	e3530000 	cmp	r3, #0	; 0x0
2000a100:	1a000000 	bne	2000a108 <free+0x58>
2000a104:	ebfffd84 	bl	2000971c <vk_enable_interrupt>
2000a108:	e24bd00c 	sub	sp, fp, #12	; 0xc
2000a10c:	e89da800 	ldm	sp, {fp, sp, pc}
2000a110:	000094bc 	.word	0x000094bc
2000a114:	000000ac 	.word	0x000000ac

2000a118 <mq_open>:
2000a118:	e1a0c00d 	mov	ip, sp
2000a11c:	e92dd800 	push	{fp, ip, lr, pc}
2000a120:	e24cb004 	sub	fp, ip, #4	; 0x4
2000a124:	e24dd018 	sub	sp, sp, #24	; 0x18
2000a128:	e59f22d8 	ldr	r2, [pc, #728]	; 2000a408 <mq_open+0x2f0>
2000a12c:	e50b2024 	str	r2, [fp, #-36]
2000a130:	e51b3024 	ldr	r3, [fp, #-36]
2000a134:	e08f3003 	add	r3, pc, r3
2000a138:	e50b3024 	str	r3, [fp, #-36]
2000a13c:	e50b0018 	str	r0, [fp, #-24]
2000a140:	e50b101c 	str	r1, [fp, #-28]
2000a144:	e59f32c0 	ldr	r3, [pc, #704]	; 2000a40c <mq_open+0x2f4>
2000a148:	e51bc024 	ldr	ip, [fp, #-36]
2000a14c:	e79c3003 	ldr	r3, [ip, r3]
2000a150:	e5933000 	ldr	r3, [r3]
2000a154:	e3530003 	cmp	r3, #3	; 0x3
2000a158:	1a000007 	bne	2000a17c <mq_open+0x64>
2000a15c:	e59f32ac 	ldr	r3, [pc, #684]	; 2000a410 <mq_open+0x2f8>
2000a160:	e51b0024 	ldr	r0, [fp, #-36]
2000a164:	e0803003 	add	r3, r0, r3
2000a168:	e1a00003 	mov	r0, r3
2000a16c:	eb000a62 	bl	2000cafc <printk>
2000a170:	e3e01000 	mvn	r1, #0	; 0x0
2000a174:	e50b1020 	str	r1, [fp, #-32]
2000a178:	ea00009e 	b	2000a3f8 <mq_open+0x2e0>
2000a17c:	e59f3288 	ldr	r3, [pc, #648]	; 2000a40c <mq_open+0x2f4>
2000a180:	e51b2024 	ldr	r2, [fp, #-36]
2000a184:	e7923003 	ldr	r3, [r2, r3]
2000a188:	e5933000 	ldr	r3, [r3]
2000a18c:	e1a02103 	lsl	r2, r3, #2
2000a190:	e59f327c 	ldr	r3, [pc, #636]	; 2000a414 <mq_open+0x2fc>
2000a194:	e51bc024 	ldr	ip, [fp, #-36]
2000a198:	e79c3003 	ldr	r3, [ip, r3]
2000a19c:	e0823003 	add	r3, r2, r3
2000a1a0:	e1a00003 	mov	r0, r3
2000a1a4:	e3a01000 	mov	r1, #0	; 0x0
2000a1a8:	e3a02000 	mov	r2, #0	; 0x0
2000a1ac:	eb001038 	bl	2000e294 <sem_init>
2000a1b0:	e59f3254 	ldr	r3, [pc, #596]	; 2000a40c <mq_open+0x2f4>
2000a1b4:	e51b0024 	ldr	r0, [fp, #-36]
2000a1b8:	e7903003 	ldr	r3, [r0, r3]
2000a1bc:	e5932000 	ldr	r2, [r3]
2000a1c0:	e59f3250 	ldr	r3, [pc, #592]	; 2000a418 <mq_open+0x300>
2000a1c4:	e51bc024 	ldr	ip, [fp, #-36]
2000a1c8:	e79c1003 	ldr	r1, [ip, r3]
2000a1cc:	e3a00004 	mov	r0, #4	; 0x4
2000a1d0:	e1a03002 	mov	r3, r2
2000a1d4:	e1a02103 	lsl	r2, r3, #2
2000a1d8:	e1a03182 	lsl	r3, r2, #3
2000a1dc:	e0623003 	rsb	r3, r2, r3
2000a1e0:	e0813003 	add	r3, r1, r3
2000a1e4:	e0832000 	add	r2, r3, r0
2000a1e8:	e3a03000 	mov	r3, #0	; 0x0
2000a1ec:	e5823000 	str	r3, [r2]
2000a1f0:	e59f3214 	ldr	r3, [pc, #532]	; 2000a40c <mq_open+0x2f4>
2000a1f4:	e51b0024 	ldr	r0, [fp, #-36]
2000a1f8:	e7903003 	ldr	r3, [r0, r3]
2000a1fc:	e5932000 	ldr	r2, [r3]
2000a200:	e59f3210 	ldr	r3, [pc, #528]	; 2000a418 <mq_open+0x300>
2000a204:	e51bc024 	ldr	ip, [fp, #-36]
2000a208:	e79c1003 	ldr	r1, [ip, r3]
2000a20c:	e3a00008 	mov	r0, #8	; 0x8
2000a210:	e1a03002 	mov	r3, r2
2000a214:	e1a02103 	lsl	r2, r3, #2
2000a218:	e1a03182 	lsl	r3, r2, #3
2000a21c:	e0623003 	rsb	r3, r2, r3
2000a220:	e0813003 	add	r3, r1, r3
2000a224:	e0832000 	add	r2, r3, r0
2000a228:	e3a03000 	mov	r3, #0	; 0x0
2000a22c:	e5823000 	str	r3, [r2]
2000a230:	e59f31d4 	ldr	r3, [pc, #468]	; 2000a40c <mq_open+0x2f4>
2000a234:	e51b0024 	ldr	r0, [fp, #-36]
2000a238:	e7903003 	ldr	r3, [r0, r3]
2000a23c:	e5932000 	ldr	r2, [r3]
2000a240:	e59f31d0 	ldr	r3, [pc, #464]	; 2000a418 <mq_open+0x300>
2000a244:	e51bc024 	ldr	ip, [fp, #-36]
2000a248:	e79c1003 	ldr	r1, [ip, r3]
2000a24c:	e3a0000c 	mov	r0, #12	; 0xc
2000a250:	e1a03002 	mov	r3, r2
2000a254:	e1a02103 	lsl	r2, r3, #2
2000a258:	e1a03182 	lsl	r3, r2, #3
2000a25c:	e0623003 	rsb	r3, r2, r3
2000a260:	e0813003 	add	r3, r1, r3
2000a264:	e0832000 	add	r2, r3, r0
2000a268:	e3a03007 	mov	r3, #7	; 0x7
2000a26c:	e5823000 	str	r3, [r2]
2000a270:	e59f3194 	ldr	r3, [pc, #404]	; 2000a40c <mq_open+0x2f4>
2000a274:	e51b0024 	ldr	r0, [fp, #-36]
2000a278:	e7903003 	ldr	r3, [r0, r3]
2000a27c:	e5932000 	ldr	r2, [r3]
2000a280:	e59f3190 	ldr	r3, [pc, #400]	; 2000a418 <mq_open+0x300>
2000a284:	e51bc024 	ldr	ip, [fp, #-36]
2000a288:	e79c1003 	ldr	r1, [ip, r3]
2000a28c:	e3a00010 	mov	r0, #16	; 0x10
2000a290:	e1a03002 	mov	r3, r2
2000a294:	e1a02103 	lsl	r2, r3, #2
2000a298:	e1a03182 	lsl	r3, r2, #3
2000a29c:	e0623003 	rsb	r3, r2, r3
2000a2a0:	e0813003 	add	r3, r1, r3
2000a2a4:	e0832000 	add	r2, r3, r0
2000a2a8:	e3a03000 	mov	r3, #0	; 0x0
2000a2ac:	e5823000 	str	r3, [r2]
2000a2b0:	e59f3154 	ldr	r3, [pc, #340]	; 2000a40c <mq_open+0x2f4>
2000a2b4:	e51b0024 	ldr	r0, [fp, #-36]
2000a2b8:	e7903003 	ldr	r3, [r0, r3]
2000a2bc:	e5932000 	ldr	r2, [r3]
2000a2c0:	e59f3150 	ldr	r3, [pc, #336]	; 2000a418 <mq_open+0x300>
2000a2c4:	e51bc024 	ldr	ip, [fp, #-36]
2000a2c8:	e79c1003 	ldr	r1, [ip, r3]
2000a2cc:	e3a00014 	mov	r0, #20	; 0x14
2000a2d0:	e1a03002 	mov	r3, r2
2000a2d4:	e1a02103 	lsl	r2, r3, #2
2000a2d8:	e1a03182 	lsl	r3, r2, #3
2000a2dc:	e0623003 	rsb	r3, r2, r3
2000a2e0:	e0813003 	add	r3, r1, r3
2000a2e4:	e0832000 	add	r2, r3, r0
2000a2e8:	e3a03014 	mov	r3, #20	; 0x14
2000a2ec:	e5823000 	str	r3, [r2]
2000a2f0:	e59f3114 	ldr	r3, [pc, #276]	; 2000a40c <mq_open+0x2f4>
2000a2f4:	e51b0024 	ldr	r0, [fp, #-36]
2000a2f8:	e7903003 	ldr	r3, [r0, r3]
2000a2fc:	e5932000 	ldr	r2, [r3]
2000a300:	e59f3114 	ldr	r3, [pc, #276]	; 2000a41c <mq_open+0x304>
2000a304:	e51bc024 	ldr	ip, [fp, #-36]
2000a308:	e79c1003 	ldr	r1, [ip, r3]
2000a30c:	e1a03002 	mov	r3, r2
2000a310:	e1a02103 	lsl	r2, r3, #2
2000a314:	e1a03102 	lsl	r3, r2, #2
2000a318:	e0623003 	rsb	r3, r2, r3
2000a31c:	e0812003 	add	r2, r1, r3
2000a320:	e3a03003 	mov	r3, #3	; 0x3
2000a324:	e5823000 	str	r3, [r2]
2000a328:	e59f30dc 	ldr	r3, [pc, #220]	; 2000a40c <mq_open+0x2f4>
2000a32c:	e51b0024 	ldr	r0, [fp, #-36]
2000a330:	e7903003 	ldr	r3, [r0, r3]
2000a334:	e5932000 	ldr	r2, [r3]
2000a338:	e59f30dc 	ldr	r3, [pc, #220]	; 2000a41c <mq_open+0x304>
2000a33c:	e51bc024 	ldr	ip, [fp, #-36]
2000a340:	e79c1003 	ldr	r1, [ip, r3]
2000a344:	e3a00004 	mov	r0, #4	; 0x4
2000a348:	e1a03002 	mov	r3, r2
2000a34c:	e1a02103 	lsl	r2, r3, #2
2000a350:	e1a03102 	lsl	r3, r2, #2
2000a354:	e0623003 	rsb	r3, r2, r3
2000a358:	e0813003 	add	r3, r1, r3
2000a35c:	e0832000 	add	r2, r3, r0
2000a360:	e3a03014 	mov	r3, #20	; 0x14
2000a364:	e5823000 	str	r3, [r2]
2000a368:	e59f309c 	ldr	r3, [pc, #156]	; 2000a40c <mq_open+0x2f4>
2000a36c:	e51b0024 	ldr	r0, [fp, #-36]
2000a370:	e7903003 	ldr	r3, [r0, r3]
2000a374:	e5932000 	ldr	r2, [r3]
2000a378:	e59f308c 	ldr	r3, [pc, #140]	; 2000a40c <mq_open+0x2f4>
2000a37c:	e51b1024 	ldr	r1, [fp, #-36]
2000a380:	e7913003 	ldr	r3, [r1, r3]
2000a384:	e5931000 	ldr	r1, [r3]
2000a388:	e59f308c 	ldr	r3, [pc, #140]	; 2000a41c <mq_open+0x304>
2000a38c:	e51bc024 	ldr	ip, [fp, #-36]
2000a390:	e79c0003 	ldr	r0, [ip, r3]
2000a394:	e3a0c008 	mov	ip, #8	; 0x8
2000a398:	e1a03002 	mov	r3, r2
2000a39c:	e1a02103 	lsl	r2, r3, #2
2000a3a0:	e1a03102 	lsl	r3, r2, #2
2000a3a4:	e0623003 	rsb	r3, r2, r3
2000a3a8:	e0803003 	add	r3, r0, r3
2000a3ac:	e083300c 	add	r3, r3, ip
2000a3b0:	e5831000 	str	r1, [r3]
2000a3b4:	e59f3050 	ldr	r3, [pc, #80]	; 2000a40c <mq_open+0x2f4>
2000a3b8:	e51b0024 	ldr	r0, [fp, #-36]
2000a3bc:	e7903003 	ldr	r3, [r0, r3]
2000a3c0:	e5933000 	ldr	r3, [r3]
2000a3c4:	e50b3010 	str	r3, [fp, #-16]
2000a3c8:	e59f303c 	ldr	r3, [pc, #60]	; 2000a40c <mq_open+0x2f4>
2000a3cc:	e51b1024 	ldr	r1, [fp, #-36]
2000a3d0:	e7913003 	ldr	r3, [r1, r3]
2000a3d4:	e5933000 	ldr	r3, [r3]
2000a3d8:	e2832001 	add	r2, r3, #1	; 0x1
2000a3dc:	e59f3028 	ldr	r3, [pc, #40]	; 2000a40c <mq_open+0x2f4>
2000a3e0:	e51bc024 	ldr	ip, [fp, #-36]
2000a3e4:	e79c3003 	ldr	r3, [ip, r3]
2000a3e8:	e5832000 	str	r2, [r3]
2000a3ec:	eb000ee7 	bl	2000df90 <vk_scheduler_unlock>
2000a3f0:	e51b0010 	ldr	r0, [fp, #-16]
2000a3f4:	e50b0020 	str	r0, [fp, #-32]
2000a3f8:	e51b3020 	ldr	r3, [fp, #-32]
2000a3fc:	e1a00003 	mov	r0, r3
2000a400:	e24bd00c 	sub	sp, fp, #12	; 0xc
2000a404:	e89da800 	ldm	sp, {fp, sp, pc}
2000a408:	0000944c 	.word	0x0000944c
2000a40c:	00000060 	.word	0x00000060
2000a410:	fffff7cc 	.word	0xfffff7cc
2000a414:	000000dc 	.word	0x000000dc
2000a418:	000000d8 	.word	0x000000d8
2000a41c:	000000d4 	.word	0x000000d4

2000a420 <mq_send>:
2000a420:	e1a0c00d 	mov	ip, sp
2000a424:	e92dd830 	push	{r4, r5, fp, ip, lr, pc}
2000a428:	e24cb004 	sub	fp, ip, #4	; 0x4
2000a42c:	e24dd020 	sub	sp, sp, #32	; 0x20
2000a430:	e59fc4f0 	ldr	ip, [pc, #1264]	; 2000a928 <mq_send+0x508>
2000a434:	e50bc034 	str	ip, [fp, #-52]
2000a438:	e51bc034 	ldr	ip, [fp, #-52]
2000a43c:	e08fc00c 	add	ip, pc, ip
2000a440:	e50bc034 	str	ip, [fp, #-52]
2000a444:	e50b0020 	str	r0, [fp, #-32]
2000a448:	e50b1024 	str	r1, [fp, #-36]
2000a44c:	e50b2028 	str	r2, [fp, #-40]
2000a450:	e50b302c 	str	r3, [fp, #-44]
2000a454:	e51b3020 	ldr	r3, [fp, #-32]
2000a458:	e3530000 	cmp	r3, #0	; 0x0
2000a45c:	aa000007 	bge	2000a480 <mq_send+0x60>
2000a460:	e59f34c4 	ldr	r3, [pc, #1220]	; 2000a92c <mq_send+0x50c>
2000a464:	e51b0034 	ldr	r0, [fp, #-52]
2000a468:	e0803003 	add	r3, r0, r3
2000a46c:	e1a00003 	mov	r0, r3
2000a470:	eb0009a1 	bl	2000cafc <printk>
2000a474:	e3e01000 	mvn	r1, #0	; 0x0
2000a478:	e50b1030 	str	r1, [fp, #-48]
2000a47c:	ea000125 	b	2000a918 <mq_send+0x4f8>
2000a480:	e59f34a8 	ldr	r3, [pc, #1192]	; 2000a930 <mq_send+0x510>
2000a484:	e51b2034 	ldr	r2, [fp, #-52]
2000a488:	e0823003 	add	r3, r2, r3
2000a48c:	e1a00003 	mov	r0, r3
2000a490:	e59f349c 	ldr	r3, [pc, #1180]	; 2000a934 <mq_send+0x514>
2000a494:	e51bc034 	ldr	ip, [fp, #-52]
2000a498:	e08c3003 	add	r3, ip, r3
2000a49c:	e1a01003 	mov	r1, r3
2000a4a0:	e51b2020 	ldr	r2, [fp, #-32]
2000a4a4:	eb000994 	bl	2000cafc <printk>
2000a4a8:	e51b2020 	ldr	r2, [fp, #-32]
2000a4ac:	e59f3484 	ldr	r3, [pc, #1156]	; 2000a938 <mq_send+0x518>
2000a4b0:	e51b0034 	ldr	r0, [fp, #-52]
2000a4b4:	e7901003 	ldr	r1, [r0, r3]
2000a4b8:	e3a00010 	mov	r0, #16	; 0x10
2000a4bc:	e1a03002 	mov	r3, r2
2000a4c0:	e1a02103 	lsl	r2, r3, #2
2000a4c4:	e1a03182 	lsl	r3, r2, #3
2000a4c8:	e0623003 	rsb	r3, r2, r3
2000a4cc:	e0813003 	add	r3, r1, r3
2000a4d0:	e0833000 	add	r3, r3, r0
2000a4d4:	e5933000 	ldr	r3, [r3]
2000a4d8:	e3530006 	cmp	r3, #6	; 0x6
2000a4dc:	da00000c 	ble	2000a514 <mq_send+0xf4>
2000a4e0:	e59f3454 	ldr	r3, [pc, #1108]	; 2000a93c <mq_send+0x51c>
2000a4e4:	e51b1034 	ldr	r1, [fp, #-52]
2000a4e8:	e0813003 	add	r3, r1, r3
2000a4ec:	e1a00003 	mov	r0, r3
2000a4f0:	e59f343c 	ldr	r3, [pc, #1084]	; 2000a934 <mq_send+0x514>
2000a4f4:	e51b2034 	ldr	r2, [fp, #-52]
2000a4f8:	e0823003 	add	r3, r2, r3
2000a4fc:	e1a01003 	mov	r1, r3
2000a500:	e3a0203d 	mov	r2, #61	; 0x3d
2000a504:	eb00097c 	bl	2000cafc <printk>
2000a508:	e3a03001 	mov	r3, #1	; 0x1
2000a50c:	e50b3030 	str	r3, [fp, #-48]
2000a510:	ea000100 	b	2000a918 <mq_send+0x4f8>
2000a514:	e51b2020 	ldr	r2, [fp, #-32]
2000a518:	e59f3418 	ldr	r3, [pc, #1048]	; 2000a938 <mq_send+0x518>
2000a51c:	e51bc034 	ldr	ip, [fp, #-52]
2000a520:	e79c1003 	ldr	r1, [ip, r3]
2000a524:	e3a00014 	mov	r0, #20	; 0x14
2000a528:	e1a03002 	mov	r3, r2
2000a52c:	e1a02103 	lsl	r2, r3, #2
2000a530:	e1a03182 	lsl	r3, r2, #3
2000a534:	e0623003 	rsb	r3, r2, r3
2000a538:	e0813003 	add	r3, r1, r3
2000a53c:	e0833000 	add	r3, r3, r0
2000a540:	e5933000 	ldr	r3, [r3]
2000a544:	e1a02003 	mov	r2, r3
2000a548:	e51b3028 	ldr	r3, [fp, #-40]
2000a54c:	e1520003 	cmp	r2, r3
2000a550:	3a0000e9 	bcc	2000a8fc <mq_send+0x4dc>
2000a554:	e59f33e4 	ldr	r3, [pc, #996]	; 2000a940 <mq_send+0x520>
2000a558:	e51b0034 	ldr	r0, [fp, #-52]
2000a55c:	e0803003 	add	r3, r0, r3
2000a560:	e1a00003 	mov	r0, r3
2000a564:	e59f33c8 	ldr	r3, [pc, #968]	; 2000a934 <mq_send+0x514>
2000a568:	e51b1034 	ldr	r1, [fp, #-52]
2000a56c:	e0813003 	add	r3, r1, r3
2000a570:	e1a01003 	mov	r1, r3
2000a574:	eb000960 	bl	2000cafc <printk>
2000a578:	e3a03000 	mov	r3, #0	; 0x0
2000a57c:	e50b3018 	str	r3, [fp, #-24]
2000a580:	ea000050 	b	2000a6c8 <mq_send+0x2a8>
2000a584:	e51bc020 	ldr	ip, [fp, #-32]
2000a588:	e51b2020 	ldr	r2, [fp, #-32]
2000a58c:	e59f33a4 	ldr	r3, [pc, #932]	; 2000a938 <mq_send+0x518>
2000a590:	e51b0034 	ldr	r0, [fp, #-52]
2000a594:	e7901003 	ldr	r1, [r0, r3]
2000a598:	e3a00004 	mov	r0, #4	; 0x4
2000a59c:	e1a03002 	mov	r3, r2
2000a5a0:	e1a02103 	lsl	r2, r3, #2
2000a5a4:	e1a03182 	lsl	r3, r2, #3
2000a5a8:	e0623003 	rsb	r3, r2, r3
2000a5ac:	e0813003 	add	r3, r1, r3
2000a5b0:	e0833000 	add	r3, r3, r0
2000a5b4:	e5931000 	ldr	r1, [r3]
2000a5b8:	e51b0018 	ldr	r0, [fp, #-24]
2000a5bc:	e51b2018 	ldr	r2, [fp, #-24]
2000a5c0:	e51b3024 	ldr	r3, [fp, #-36]
2000a5c4:	e0833002 	add	r3, r3, r2
2000a5c8:	e5d3e000 	ldrb	lr, [r3]
2000a5cc:	e59f3370 	ldr	r3, [pc, #880]	; 2000a944 <mq_send+0x524>
2000a5d0:	e51b2034 	ldr	r2, [fp, #-52]
2000a5d4:	e7924003 	ldr	r4, [r2, r3]
2000a5d8:	e3a05010 	mov	r5, #16	; 0x10
2000a5dc:	e1a03001 	mov	r3, r1
2000a5e0:	e1a01183 	lsl	r1, r3, #3
2000a5e4:	e1a03101 	lsl	r3, r1, #2
2000a5e8:	e0811003 	add	r1, r1, r3
2000a5ec:	e1a0300c 	mov	r3, ip
2000a5f0:	e1a02183 	lsl	r2, r3, #3
2000a5f4:	e1a03102 	lsl	r3, r2, #2
2000a5f8:	e0822003 	add	r2, r2, r3
2000a5fc:	e1a03182 	lsl	r3, r2, #3
2000a600:	e0623003 	rsb	r3, r2, r3
2000a604:	e0813003 	add	r3, r1, r3
2000a608:	e0843003 	add	r3, r4, r3
2000a60c:	e0833000 	add	r3, r3, r0
2000a610:	e0832005 	add	r2, r3, r5
2000a614:	e1a0300e 	mov	r3, lr
2000a618:	e5c23002 	strb	r3, [r2, #2]
2000a61c:	e51bc020 	ldr	ip, [fp, #-32]
2000a620:	e51b2020 	ldr	r2, [fp, #-32]
2000a624:	e59f330c 	ldr	r3, [pc, #780]	; 2000a938 <mq_send+0x518>
2000a628:	e51b0034 	ldr	r0, [fp, #-52]
2000a62c:	e7901003 	ldr	r1, [r0, r3]
2000a630:	e3a00004 	mov	r0, #4	; 0x4
2000a634:	e1a03002 	mov	r3, r2
2000a638:	e1a02103 	lsl	r2, r3, #2
2000a63c:	e1a03182 	lsl	r3, r2, #3
2000a640:	e0623003 	rsb	r3, r2, r3
2000a644:	e0813003 	add	r3, r1, r3
2000a648:	e0833000 	add	r3, r3, r0
2000a64c:	e5932000 	ldr	r2, [r3]
2000a650:	e51b0018 	ldr	r0, [fp, #-24]
2000a654:	e59f32e8 	ldr	r3, [pc, #744]	; 2000a944 <mq_send+0x524>
2000a658:	e51b1034 	ldr	r1, [fp, #-52]
2000a65c:	e791e003 	ldr	lr, [r1, r3]
2000a660:	e3a04010 	mov	r4, #16	; 0x10
2000a664:	e1a03002 	mov	r3, r2
2000a668:	e1a01183 	lsl	r1, r3, #3
2000a66c:	e1a03101 	lsl	r3, r1, #2
2000a670:	e0811003 	add	r1, r1, r3
2000a674:	e1a0300c 	mov	r3, ip
2000a678:	e1a02183 	lsl	r2, r3, #3
2000a67c:	e1a03102 	lsl	r3, r2, #2
2000a680:	e0822003 	add	r2, r2, r3
2000a684:	e1a03182 	lsl	r3, r2, #3
2000a688:	e0623003 	rsb	r3, r2, r3
2000a68c:	e0813003 	add	r3, r1, r3
2000a690:	e08e3003 	add	r3, lr, r3
2000a694:	e0833000 	add	r3, r3, r0
2000a698:	e0833004 	add	r3, r3, r4
2000a69c:	e5d33002 	ldrb	r3, [r3, #2]
2000a6a0:	e1a02003 	mov	r2, r3
2000a6a4:	e59f329c 	ldr	r3, [pc, #668]	; 2000a948 <mq_send+0x528>
2000a6a8:	e51bc034 	ldr	ip, [fp, #-52]
2000a6ac:	e08c3003 	add	r3, ip, r3
2000a6b0:	e1a00003 	mov	r0, r3
2000a6b4:	e1a01002 	mov	r1, r2
2000a6b8:	eb00090f 	bl	2000cafc <printk>
2000a6bc:	e51b3018 	ldr	r3, [fp, #-24]
2000a6c0:	e2833001 	add	r3, r3, #1	; 0x1
2000a6c4:	e50b3018 	str	r3, [fp, #-24]
2000a6c8:	e51b2018 	ldr	r2, [fp, #-24]
2000a6cc:	e51b3028 	ldr	r3, [fp, #-40]
2000a6d0:	e1520003 	cmp	r2, r3
2000a6d4:	3affffaa 	bcc	2000a584 <mq_send+0x164>
2000a6d8:	e59f326c 	ldr	r3, [pc, #620]	; 2000a94c <mq_send+0x52c>
2000a6dc:	e51b0034 	ldr	r0, [fp, #-52]
2000a6e0:	e0803003 	add	r3, r0, r3
2000a6e4:	e1a00003 	mov	r0, r3
2000a6e8:	eb000903 	bl	2000cafc <printk>
2000a6ec:	e51bc020 	ldr	ip, [fp, #-32]
2000a6f0:	e51b2020 	ldr	r2, [fp, #-32]
2000a6f4:	e59f323c 	ldr	r3, [pc, #572]	; 2000a938 <mq_send+0x518>
2000a6f8:	e51b0034 	ldr	r0, [fp, #-52]
2000a6fc:	e7901003 	ldr	r1, [r0, r3]
2000a700:	e3a00004 	mov	r0, #4	; 0x4
2000a704:	e1a03002 	mov	r3, r2
2000a708:	e1a02103 	lsl	r2, r3, #2
2000a70c:	e1a03182 	lsl	r3, r2, #3
2000a710:	e0623003 	rsb	r3, r2, r3
2000a714:	e0813003 	add	r3, r1, r3
2000a718:	e0833000 	add	r3, r3, r0
2000a71c:	e5932000 	ldr	r2, [r3]
2000a720:	e51b0018 	ldr	r0, [fp, #-24]
2000a724:	e59f3218 	ldr	r3, [pc, #536]	; 2000a944 <mq_send+0x524>
2000a728:	e51b1034 	ldr	r1, [fp, #-52]
2000a72c:	e7914003 	ldr	r4, [r1, r3]
2000a730:	e3a05010 	mov	r5, #16	; 0x10
2000a734:	e1a03002 	mov	r3, r2
2000a738:	e1a01183 	lsl	r1, r3, #3
2000a73c:	e1a03101 	lsl	r3, r1, #2
2000a740:	e0811003 	add	r1, r1, r3
2000a744:	e1a0300c 	mov	r3, ip
2000a748:	e1a02183 	lsl	r2, r3, #3
2000a74c:	e1a03102 	lsl	r3, r2, #2
2000a750:	e0822003 	add	r2, r2, r3
2000a754:	e1a03182 	lsl	r3, r2, #3
2000a758:	e0623003 	rsb	r3, r2, r3
2000a75c:	e0813003 	add	r3, r1, r3
2000a760:	e0843003 	add	r3, r4, r3
2000a764:	e0833000 	add	r3, r3, r0
2000a768:	e0832005 	add	r2, r3, r5
2000a76c:	e3a03000 	mov	r3, #0	; 0x0
2000a770:	e5c23002 	strb	r3, [r2, #2]
2000a774:	e51b1020 	ldr	r1, [fp, #-32]
2000a778:	e59f31b8 	ldr	r3, [pc, #440]	; 2000a938 <mq_send+0x518>
2000a77c:	e51b2034 	ldr	r2, [fp, #-52]
2000a780:	e7920003 	ldr	r0, [r2, r3]
2000a784:	e3a0c004 	mov	ip, #4	; 0x4
2000a788:	e1a03001 	mov	r3, r1
2000a78c:	e1a02103 	lsl	r2, r3, #2
2000a790:	e1a03182 	lsl	r3, r2, #3
2000a794:	e0623003 	rsb	r3, r2, r3
2000a798:	e0803003 	add	r3, r0, r3
2000a79c:	e083300c 	add	r3, r3, ip
2000a7a0:	e5933000 	ldr	r3, [r3]
2000a7a4:	e2830001 	add	r0, r3, #1	; 0x1
2000a7a8:	e59f3188 	ldr	r3, [pc, #392]	; 2000a938 <mq_send+0x518>
2000a7ac:	e51b2034 	ldr	r2, [fp, #-52]
2000a7b0:	e792c003 	ldr	ip, [r2, r3]
2000a7b4:	e3a04004 	mov	r4, #4	; 0x4
2000a7b8:	e1a03001 	mov	r3, r1
2000a7bc:	e1a02103 	lsl	r2, r3, #2
2000a7c0:	e1a03182 	lsl	r3, r2, #3
2000a7c4:	e0623003 	rsb	r3, r2, r3
2000a7c8:	e08c3003 	add	r3, ip, r3
2000a7cc:	e0833004 	add	r3, r3, r4
2000a7d0:	e5830000 	str	r0, [r3]
2000a7d4:	e51b2020 	ldr	r2, [fp, #-32]
2000a7d8:	e59f3158 	ldr	r3, [pc, #344]	; 2000a938 <mq_send+0x518>
2000a7dc:	e51bc034 	ldr	ip, [fp, #-52]
2000a7e0:	e79c1003 	ldr	r1, [ip, r3]
2000a7e4:	e3a00004 	mov	r0, #4	; 0x4
2000a7e8:	e1a03002 	mov	r3, r2
2000a7ec:	e1a02103 	lsl	r2, r3, #2
2000a7f0:	e1a03182 	lsl	r3, r2, #3
2000a7f4:	e0623003 	rsb	r3, r2, r3
2000a7f8:	e0813003 	add	r3, r1, r3
2000a7fc:	e0833000 	add	r3, r3, r0
2000a800:	e593c000 	ldr	ip, [r3]
2000a804:	e51b2020 	ldr	r2, [fp, #-32]
2000a808:	e59f3128 	ldr	r3, [pc, #296]	; 2000a938 <mq_send+0x518>
2000a80c:	e51b0034 	ldr	r0, [fp, #-52]
2000a810:	e7901003 	ldr	r1, [r0, r3]
2000a814:	e3a0000c 	mov	r0, #12	; 0xc
2000a818:	e1a03002 	mov	r3, r2
2000a81c:	e1a02103 	lsl	r2, r3, #2
2000a820:	e1a03182 	lsl	r3, r2, #3
2000a824:	e0623003 	rsb	r3, r2, r3
2000a828:	e0813003 	add	r3, r1, r3
2000a82c:	e0833000 	add	r3, r3, r0
2000a830:	e5933000 	ldr	r3, [r3]
2000a834:	e15c0003 	cmp	ip, r3
2000a838:	1a00000c 	bne	2000a870 <mq_send+0x450>
2000a83c:	e51b2020 	ldr	r2, [fp, #-32]
2000a840:	e59f30f0 	ldr	r3, [pc, #240]	; 2000a938 <mq_send+0x518>
2000a844:	e51bc034 	ldr	ip, [fp, #-52]
2000a848:	e79c1003 	ldr	r1, [ip, r3]
2000a84c:	e3a00004 	mov	r0, #4	; 0x4
2000a850:	e1a03002 	mov	r3, r2
2000a854:	e1a02103 	lsl	r2, r3, #2
2000a858:	e1a03182 	lsl	r3, r2, #3
2000a85c:	e0623003 	rsb	r3, r2, r3
2000a860:	e0813003 	add	r3, r1, r3
2000a864:	e0832000 	add	r2, r3, r0
2000a868:	e3a03000 	mov	r3, #0	; 0x0
2000a86c:	e5823000 	str	r3, [r2]
2000a870:	e51b1020 	ldr	r1, [fp, #-32]
2000a874:	e59f30bc 	ldr	r3, [pc, #188]	; 2000a938 <mq_send+0x518>
2000a878:	e51b2034 	ldr	r2, [fp, #-52]
2000a87c:	e7920003 	ldr	r0, [r2, r3]
2000a880:	e3a0c010 	mov	ip, #16	; 0x10
2000a884:	e1a03001 	mov	r3, r1
2000a888:	e1a02103 	lsl	r2, r3, #2
2000a88c:	e1a03182 	lsl	r3, r2, #3
2000a890:	e0623003 	rsb	r3, r2, r3
2000a894:	e0803003 	add	r3, r0, r3
2000a898:	e083300c 	add	r3, r3, ip
2000a89c:	e5933000 	ldr	r3, [r3]
2000a8a0:	e2830001 	add	r0, r3, #1	; 0x1
2000a8a4:	e59f308c 	ldr	r3, [pc, #140]	; 2000a938 <mq_send+0x518>
2000a8a8:	e51b2034 	ldr	r2, [fp, #-52]
2000a8ac:	e792c003 	ldr	ip, [r2, r3]
2000a8b0:	e3a0e010 	mov	lr, #16	; 0x10
2000a8b4:	e1a03001 	mov	r3, r1
2000a8b8:	e1a02103 	lsl	r2, r3, #2
2000a8bc:	e1a03182 	lsl	r3, r2, #3
2000a8c0:	e0623003 	rsb	r3, r2, r3
2000a8c4:	e08c3003 	add	r3, ip, r3
2000a8c8:	e083300e 	add	r3, r3, lr
2000a8cc:	e5830000 	str	r0, [r3]
2000a8d0:	e51b3020 	ldr	r3, [fp, #-32]
2000a8d4:	e1a02103 	lsl	r2, r3, #2
2000a8d8:	e59f3070 	ldr	r3, [pc, #112]	; 2000a950 <mq_send+0x530>
2000a8dc:	e51bc034 	ldr	ip, [fp, #-52]
2000a8e0:	e79c3003 	ldr	r3, [ip, r3]
2000a8e4:	e0823003 	add	r3, r2, r3
2000a8e8:	e1a00003 	mov	r0, r3
2000a8ec:	eb000fd2 	bl	2000e83c <sem_post>
2000a8f0:	e3a00000 	mov	r0, #0	; 0x0
2000a8f4:	e50b0030 	str	r0, [fp, #-48]
2000a8f8:	ea000006 	b	2000a918 <mq_send+0x4f8>
2000a8fc:	e59f3050 	ldr	r3, [pc, #80]	; 2000a954 <mq_send+0x534>
2000a900:	e51b1034 	ldr	r1, [fp, #-52]
2000a904:	e0813003 	add	r3, r1, r3
2000a908:	e1a00003 	mov	r0, r3
2000a90c:	eb00087a 	bl	2000cafc <printk>
2000a910:	e3e02000 	mvn	r2, #0	; 0x0
2000a914:	e50b2030 	str	r2, [fp, #-48]
2000a918:	e51b3030 	ldr	r3, [fp, #-48]
2000a91c:	e1a00003 	mov	r0, r3
2000a920:	e24bd014 	sub	sp, fp, #20	; 0x14
2000a924:	e89da830 	ldm	sp, {r4, r5, fp, sp, pc}
2000a928:	00009144 	.word	0x00009144
2000a92c:	fffff7ec 	.word	0xfffff7ec
2000a930:	fffff804 	.word	0xfffff804
2000a934:	fffff7e4 	.word	0xfffff7e4
2000a938:	000000d8 	.word	0x000000d8
2000a93c:	fffff81c 	.word	0xfffff81c
2000a940:	fffff840 	.word	0xfffff840
2000a944:	00000088 	.word	0x00000088
2000a948:	fffff860 	.word	0xfffff860
2000a94c:	fffff864 	.word	0xfffff864
2000a950:	000000dc 	.word	0x000000dc
2000a954:	fffff868 	.word	0xfffff868

2000a958 <mq_receive>:
2000a958:	e1a0c00d 	mov	ip, sp
2000a95c:	e92dd830 	push	{r4, r5, fp, ip, lr, pc}
2000a960:	e24cb004 	sub	fp, ip, #4	; 0x4
2000a964:	e24dd020 	sub	sp, sp, #32	; 0x20
2000a968:	e59fc40c 	ldr	ip, [pc, #1036]	; 2000ad7c <mq_receive+0x424>
2000a96c:	e50bc034 	str	ip, [fp, #-52]
2000a970:	e51bc034 	ldr	ip, [fp, #-52]
2000a974:	e08fc00c 	add	ip, pc, ip
2000a978:	e50bc034 	str	ip, [fp, #-52]
2000a97c:	e50b0020 	str	r0, [fp, #-32]
2000a980:	e50b1024 	str	r1, [fp, #-36]
2000a984:	e50b2028 	str	r2, [fp, #-40]
2000a988:	e50b302c 	str	r3, [fp, #-44]
2000a98c:	e3a03000 	mov	r3, #0	; 0x0
2000a990:	e50b3018 	str	r3, [fp, #-24]
2000a994:	e51b3020 	ldr	r3, [fp, #-32]
2000a998:	e3530000 	cmp	r3, #0	; 0x0
2000a99c:	aa000007 	bge	2000a9c0 <mq_receive+0x68>
2000a9a0:	e59f33d8 	ldr	r3, [pc, #984]	; 2000ad80 <mq_receive+0x428>
2000a9a4:	e51b0034 	ldr	r0, [fp, #-52]
2000a9a8:	e0803003 	add	r3, r0, r3
2000a9ac:	e1a00003 	mov	r0, r3
2000a9b0:	eb000851 	bl	2000cafc <printk>
2000a9b4:	e3e01000 	mvn	r1, #0	; 0x0
2000a9b8:	e50b1030 	str	r1, [fp, #-48]
2000a9bc:	ea0000ea 	b	2000ad6c <mq_receive+0x414>
2000a9c0:	e51b3020 	ldr	r3, [fp, #-32]
2000a9c4:	e1a02103 	lsl	r2, r3, #2
2000a9c8:	e59f33b4 	ldr	r3, [pc, #948]	; 2000ad84 <mq_receive+0x42c>
2000a9cc:	e51bc034 	ldr	ip, [fp, #-52]
2000a9d0:	e79c3003 	ldr	r3, [ip, r3]
2000a9d4:	e0823003 	add	r3, r2, r3
2000a9d8:	e1a00003 	mov	r0, r3
2000a9dc:	eb000ebe 	bl	2000e4dc <sem_wait>
2000a9e0:	e51b2020 	ldr	r2, [fp, #-32]
2000a9e4:	e59f339c 	ldr	r3, [pc, #924]	; 2000ad88 <mq_receive+0x430>
2000a9e8:	e51b0034 	ldr	r0, [fp, #-52]
2000a9ec:	e7901003 	ldr	r1, [r0, r3]
2000a9f0:	e3a00010 	mov	r0, #16	; 0x10
2000a9f4:	e1a03002 	mov	r3, r2
2000a9f8:	e1a02103 	lsl	r2, r3, #2
2000a9fc:	e1a03182 	lsl	r3, r2, #3
2000aa00:	e0623003 	rsb	r3, r2, r3
2000aa04:	e0813003 	add	r3, r1, r3
2000aa08:	e0833000 	add	r3, r3, r0
2000aa0c:	e5933000 	ldr	r3, [r3]
2000aa10:	e3530000 	cmp	r3, #0	; 0x0
2000aa14:	da0000cd 	ble	2000ad50 <mq_receive+0x3f8>
2000aa18:	e51b2020 	ldr	r2, [fp, #-32]
2000aa1c:	e59f3364 	ldr	r3, [pc, #868]	; 2000ad88 <mq_receive+0x430>
2000aa20:	e51bc034 	ldr	ip, [fp, #-52]
2000aa24:	e79c1003 	ldr	r1, [ip, r3]
2000aa28:	e3a00014 	mov	r0, #20	; 0x14
2000aa2c:	e1a03002 	mov	r3, r2
2000aa30:	e1a02103 	lsl	r2, r3, #2
2000aa34:	e1a03182 	lsl	r3, r2, #3
2000aa38:	e0623003 	rsb	r3, r2, r3
2000aa3c:	e0813003 	add	r3, r1, r3
2000aa40:	e0833000 	add	r3, r3, r0
2000aa44:	e5933000 	ldr	r3, [r3]
2000aa48:	e1a02003 	mov	r2, r3
2000aa4c:	e51b3028 	ldr	r3, [fp, #-40]
2000aa50:	e1520003 	cmp	r2, r3
2000aa54:	8a0000b5 	bhi	2000ad30 <mq_receive+0x3d8>
2000aa58:	e3a03000 	mov	r3, #0	; 0x0
2000aa5c:	e50b301c 	str	r3, [fp, #-28]
2000aa60:	ea000035 	b	2000ab3c <mq_receive+0x1e4>
2000aa64:	e51b201c 	ldr	r2, [fp, #-28]
2000aa68:	e51b3024 	ldr	r3, [fp, #-36]
2000aa6c:	e083c002 	add	ip, r3, r2
2000aa70:	e51be020 	ldr	lr, [fp, #-32]
2000aa74:	e51b2020 	ldr	r2, [fp, #-32]
2000aa78:	e59f3308 	ldr	r3, [pc, #776]	; 2000ad88 <mq_receive+0x430>
2000aa7c:	e51b0034 	ldr	r0, [fp, #-52]
2000aa80:	e7901003 	ldr	r1, [r0, r3]
2000aa84:	e3a00008 	mov	r0, #8	; 0x8
2000aa88:	e1a03002 	mov	r3, r2
2000aa8c:	e1a02103 	lsl	r2, r3, #2
2000aa90:	e1a03182 	lsl	r3, r2, #3
2000aa94:	e0623003 	rsb	r3, r2, r3
2000aa98:	e0813003 	add	r3, r1, r3
2000aa9c:	e0833000 	add	r3, r3, r0
2000aaa0:	e5932000 	ldr	r2, [r3]
2000aaa4:	e51b001c 	ldr	r0, [fp, #-28]
2000aaa8:	e59f32dc 	ldr	r3, [pc, #732]	; 2000ad8c <mq_receive+0x434>
2000aaac:	e51b1034 	ldr	r1, [fp, #-52]
2000aab0:	e7914003 	ldr	r4, [r1, r3]
2000aab4:	e3a05010 	mov	r5, #16	; 0x10
2000aab8:	e1a03002 	mov	r3, r2
2000aabc:	e1a01183 	lsl	r1, r3, #3
2000aac0:	e1a03101 	lsl	r3, r1, #2
2000aac4:	e0811003 	add	r1, r1, r3
2000aac8:	e1a0300e 	mov	r3, lr
2000aacc:	e1a02183 	lsl	r2, r3, #3
2000aad0:	e1a03102 	lsl	r3, r2, #2
2000aad4:	e0822003 	add	r2, r2, r3
2000aad8:	e1a03182 	lsl	r3, r2, #3
2000aadc:	e0623003 	rsb	r3, r2, r3
2000aae0:	e0813003 	add	r3, r1, r3
2000aae4:	e0843003 	add	r3, r4, r3
2000aae8:	e0833000 	add	r3, r3, r0
2000aaec:	e0833005 	add	r3, r3, r5
2000aaf0:	e5d33002 	ldrb	r3, [r3, #2]
2000aaf4:	e5cc3000 	strb	r3, [ip]
2000aaf8:	e51b201c 	ldr	r2, [fp, #-28]
2000aafc:	e51b3024 	ldr	r3, [fp, #-36]
2000ab00:	e0833002 	add	r3, r3, r2
2000ab04:	e5d33000 	ldrb	r3, [r3]
2000ab08:	e1a02003 	mov	r2, r3
2000ab0c:	e59f327c 	ldr	r3, [pc, #636]	; 2000ad90 <mq_receive+0x438>
2000ab10:	e51bc034 	ldr	ip, [fp, #-52]
2000ab14:	e08c3003 	add	r3, ip, r3
2000ab18:	e1a00003 	mov	r0, r3
2000ab1c:	e1a01002 	mov	r1, r2
2000ab20:	eb0007f5 	bl	2000cafc <printk>
2000ab24:	e51b3018 	ldr	r3, [fp, #-24]
2000ab28:	e2833001 	add	r3, r3, #1	; 0x1
2000ab2c:	e50b3018 	str	r3, [fp, #-24]
2000ab30:	e51b301c 	ldr	r3, [fp, #-28]
2000ab34:	e2833001 	add	r3, r3, #1	; 0x1
2000ab38:	e50b301c 	str	r3, [fp, #-28]
2000ab3c:	e51bc020 	ldr	ip, [fp, #-32]
2000ab40:	e51b2020 	ldr	r2, [fp, #-32]
2000ab44:	e59f323c 	ldr	r3, [pc, #572]	; 2000ad88 <mq_receive+0x430>
2000ab48:	e51b0034 	ldr	r0, [fp, #-52]
2000ab4c:	e7901003 	ldr	r1, [r0, r3]
2000ab50:	e3a00008 	mov	r0, #8	; 0x8
2000ab54:	e1a03002 	mov	r3, r2
2000ab58:	e1a02103 	lsl	r2, r3, #2
2000ab5c:	e1a03182 	lsl	r3, r2, #3
2000ab60:	e0623003 	rsb	r3, r2, r3
2000ab64:	e0813003 	add	r3, r1, r3
2000ab68:	e0833000 	add	r3, r3, r0
2000ab6c:	e5932000 	ldr	r2, [r3]
2000ab70:	e51b001c 	ldr	r0, [fp, #-28]
2000ab74:	e59f3210 	ldr	r3, [pc, #528]	; 2000ad8c <mq_receive+0x434>
2000ab78:	e51b1034 	ldr	r1, [fp, #-52]
2000ab7c:	e7914003 	ldr	r4, [r1, r3]
2000ab80:	e3a05010 	mov	r5, #16	; 0x10
2000ab84:	e1a03002 	mov	r3, r2
2000ab88:	e1a01183 	lsl	r1, r3, #3
2000ab8c:	e1a03101 	lsl	r3, r1, #2
2000ab90:	e0811003 	add	r1, r1, r3
2000ab94:	e1a0300c 	mov	r3, ip
2000ab98:	e1a02183 	lsl	r2, r3, #3
2000ab9c:	e1a03102 	lsl	r3, r2, #2
2000aba0:	e0822003 	add	r2, r2, r3
2000aba4:	e1a03182 	lsl	r3, r2, #3
2000aba8:	e0623003 	rsb	r3, r2, r3
2000abac:	e0813003 	add	r3, r1, r3
2000abb0:	e0843003 	add	r3, r4, r3
2000abb4:	e0833000 	add	r3, r3, r0
2000abb8:	e0833005 	add	r3, r3, r5
2000abbc:	e5d33002 	ldrb	r3, [r3, #2]
2000abc0:	e3530000 	cmp	r3, #0	; 0x0
2000abc4:	1affffa6 	bne	2000aa64 <mq_receive+0x10c>
2000abc8:	e51b1020 	ldr	r1, [fp, #-32]
2000abcc:	e59f31b4 	ldr	r3, [pc, #436]	; 2000ad88 <mq_receive+0x430>
2000abd0:	e51b2034 	ldr	r2, [fp, #-52]
2000abd4:	e7920003 	ldr	r0, [r2, r3]
2000abd8:	e3a0c008 	mov	ip, #8	; 0x8
2000abdc:	e1a03001 	mov	r3, r1
2000abe0:	e1a02103 	lsl	r2, r3, #2
2000abe4:	e1a03182 	lsl	r3, r2, #3
2000abe8:	e0623003 	rsb	r3, r2, r3
2000abec:	e0803003 	add	r3, r0, r3
2000abf0:	e083300c 	add	r3, r3, ip
2000abf4:	e5933000 	ldr	r3, [r3]
2000abf8:	e2830001 	add	r0, r3, #1	; 0x1
2000abfc:	e59f3184 	ldr	r3, [pc, #388]	; 2000ad88 <mq_receive+0x430>
2000ac00:	e51b2034 	ldr	r2, [fp, #-52]
2000ac04:	e792c003 	ldr	ip, [r2, r3]
2000ac08:	e3a04008 	mov	r4, #8	; 0x8
2000ac0c:	e1a03001 	mov	r3, r1
2000ac10:	e1a02103 	lsl	r2, r3, #2
2000ac14:	e1a03182 	lsl	r3, r2, #3
2000ac18:	e0623003 	rsb	r3, r2, r3
2000ac1c:	e08c3003 	add	r3, ip, r3
2000ac20:	e0833004 	add	r3, r3, r4
2000ac24:	e5830000 	str	r0, [r3]
2000ac28:	e51b1020 	ldr	r1, [fp, #-32]
2000ac2c:	e59f3154 	ldr	r3, [pc, #340]	; 2000ad88 <mq_receive+0x430>
2000ac30:	e51bc034 	ldr	ip, [fp, #-52]
2000ac34:	e79c0003 	ldr	r0, [ip, r3]
2000ac38:	e3a0c010 	mov	ip, #16	; 0x10
2000ac3c:	e1a03001 	mov	r3, r1
2000ac40:	e1a02103 	lsl	r2, r3, #2
2000ac44:	e1a03182 	lsl	r3, r2, #3
2000ac48:	e0623003 	rsb	r3, r2, r3
2000ac4c:	e0803003 	add	r3, r0, r3
2000ac50:	e083300c 	add	r3, r3, ip
2000ac54:	e5933000 	ldr	r3, [r3]
2000ac58:	e2430001 	sub	r0, r3, #1	; 0x1
2000ac5c:	e59f3124 	ldr	r3, [pc, #292]	; 2000ad88 <mq_receive+0x430>
2000ac60:	e51b2034 	ldr	r2, [fp, #-52]
2000ac64:	e792c003 	ldr	ip, [r2, r3]
2000ac68:	e3a04010 	mov	r4, #16	; 0x10
2000ac6c:	e1a03001 	mov	r3, r1
2000ac70:	e1a02103 	lsl	r2, r3, #2
2000ac74:	e1a03182 	lsl	r3, r2, #3
2000ac78:	e0623003 	rsb	r3, r2, r3
2000ac7c:	e08c3003 	add	r3, ip, r3
2000ac80:	e0833004 	add	r3, r3, r4
2000ac84:	e5830000 	str	r0, [r3]
2000ac88:	e51b2020 	ldr	r2, [fp, #-32]
2000ac8c:	e59f30f4 	ldr	r3, [pc, #244]	; 2000ad88 <mq_receive+0x430>
2000ac90:	e51bc034 	ldr	ip, [fp, #-52]
2000ac94:	e79c1003 	ldr	r1, [ip, r3]
2000ac98:	e3a00008 	mov	r0, #8	; 0x8
2000ac9c:	e1a03002 	mov	r3, r2
2000aca0:	e1a02103 	lsl	r2, r3, #2
2000aca4:	e1a03182 	lsl	r3, r2, #3
2000aca8:	e0623003 	rsb	r3, r2, r3
2000acac:	e0813003 	add	r3, r1, r3
2000acb0:	e0833000 	add	r3, r3, r0
2000acb4:	e593c000 	ldr	ip, [r3]
2000acb8:	e51b2020 	ldr	r2, [fp, #-32]
2000acbc:	e59f30c4 	ldr	r3, [pc, #196]	; 2000ad88 <mq_receive+0x430>
2000acc0:	e51b0034 	ldr	r0, [fp, #-52]
2000acc4:	e7901003 	ldr	r1, [r0, r3]
2000acc8:	e3a0000c 	mov	r0, #12	; 0xc
2000accc:	e1a03002 	mov	r3, r2
2000acd0:	e1a02103 	lsl	r2, r3, #2
2000acd4:	e1a03182 	lsl	r3, r2, #3
2000acd8:	e0623003 	rsb	r3, r2, r3
2000acdc:	e0813003 	add	r3, r1, r3
2000ace0:	e0833000 	add	r3, r3, r0
2000ace4:	e5933000 	ldr	r3, [r3]
2000ace8:	e15c0003 	cmp	ip, r3
2000acec:	1a00000c 	bne	2000ad24 <mq_receive+0x3cc>
2000acf0:	e51b2020 	ldr	r2, [fp, #-32]
2000acf4:	e59f308c 	ldr	r3, [pc, #140]	; 2000ad88 <mq_receive+0x430>
2000acf8:	e51bc034 	ldr	ip, [fp, #-52]
2000acfc:	e79c1003 	ldr	r1, [ip, r3]
2000ad00:	e3a00008 	mov	r0, #8	; 0x8
2000ad04:	e1a03002 	mov	r3, r2
2000ad08:	e1a02103 	lsl	r2, r3, #2
2000ad0c:	e1a03182 	lsl	r3, r2, #3
2000ad10:	e0623003 	rsb	r3, r2, r3
2000ad14:	e0813003 	add	r3, r1, r3
2000ad18:	e0832000 	add	r2, r3, r0
2000ad1c:	e3a03000 	mov	r3, #0	; 0x0
2000ad20:	e5823000 	str	r3, [r2]
2000ad24:	e51b0018 	ldr	r0, [fp, #-24]
2000ad28:	e50b0030 	str	r0, [fp, #-48]
2000ad2c:	ea00000e 	b	2000ad6c <mq_receive+0x414>
2000ad30:	e59f305c 	ldr	r3, [pc, #92]	; 2000ad94 <mq_receive+0x43c>
2000ad34:	e51b1034 	ldr	r1, [fp, #-52]
2000ad38:	e0813003 	add	r3, r1, r3
2000ad3c:	e1a00003 	mov	r0, r3
2000ad40:	eb00076d 	bl	2000cafc <printk>
2000ad44:	e3e02000 	mvn	r2, #0	; 0x0
2000ad48:	e50b2030 	str	r2, [fp, #-48]
2000ad4c:	ea000006 	b	2000ad6c <mq_receive+0x414>
2000ad50:	e59f3040 	ldr	r3, [pc, #64]	; 2000ad98 <mq_receive+0x440>
2000ad54:	e51bc034 	ldr	ip, [fp, #-52]
2000ad58:	e08c3003 	add	r3, ip, r3
2000ad5c:	e1a00003 	mov	r0, r3
2000ad60:	eb000765 	bl	2000cafc <printk>
2000ad64:	e3e00000 	mvn	r0, #0	; 0x0
2000ad68:	e50b0030 	str	r0, [fp, #-48]
2000ad6c:	e51b3030 	ldr	r3, [fp, #-48]
2000ad70:	e1a00003 	mov	r0, r3
2000ad74:	e24bd014 	sub	sp, fp, #20	; 0x14
2000ad78:	e89da830 	ldm	sp, {r4, r5, fp, sp, pc}
2000ad7c:	00008c0c 	.word	0x00008c0c
2000ad80:	fffff7ec 	.word	0xfffff7ec
2000ad84:	000000dc 	.word	0x000000dc
2000ad88:	000000d8 	.word	0x000000d8
2000ad8c:	00000088 	.word	0x00000088
2000ad90:	fffff860 	.word	0xfffff860
2000ad94:	fffff87c 	.word	0xfffff87c
2000ad98:	fffff894 	.word	0xfffff894

2000ad9c <mq_getattr>:
2000ad9c:	e1a0c00d 	mov	ip, sp
2000ada0:	e92dd800 	push	{fp, ip, lr, pc}
2000ada4:	e24cb004 	sub	fp, ip, #4	; 0x4
2000ada8:	e24dd010 	sub	sp, sp, #16	; 0x10
2000adac:	e59f20f8 	ldr	r2, [pc, #248]	; 2000aeac <mq_getattr+0x110>
2000adb0:	e50b201c 	str	r2, [fp, #-28]
2000adb4:	e51b301c 	ldr	r3, [fp, #-28]
2000adb8:	e08f3003 	add	r3, pc, r3
2000adbc:	e50b301c 	str	r3, [fp, #-28]
2000adc0:	e50b0010 	str	r0, [fp, #-16]
2000adc4:	e50b1014 	str	r1, [fp, #-20]
2000adc8:	e51b3010 	ldr	r3, [fp, #-16]
2000adcc:	e3530000 	cmp	r3, #0	; 0x0
2000add0:	aa000007 	bge	2000adf4 <mq_getattr+0x58>
2000add4:	e59f30d4 	ldr	r3, [pc, #212]	; 2000aeb0 <mq_getattr+0x114>
2000add8:	e51b001c 	ldr	r0, [fp, #-28]
2000addc:	e0803003 	add	r3, r0, r3
2000ade0:	e1a00003 	mov	r0, r3
2000ade4:	eb000744 	bl	2000cafc <printk>
2000ade8:	e3e02000 	mvn	r2, #0	; 0x0
2000adec:	e50b2018 	str	r2, [fp, #-24]
2000adf0:	ea000029 	b	2000ae9c <mq_getattr+0x100>
2000adf4:	e51b2010 	ldr	r2, [fp, #-16]
2000adf8:	e59f30b4 	ldr	r3, [pc, #180]	; 2000aeb4 <mq_getattr+0x118>
2000adfc:	e51b001c 	ldr	r0, [fp, #-28]
2000ae00:	e7901003 	ldr	r1, [r0, r3]
2000ae04:	e1a03002 	mov	r3, r2
2000ae08:	e1a02103 	lsl	r2, r3, #2
2000ae0c:	e1a03102 	lsl	r3, r2, #2
2000ae10:	e0623003 	rsb	r3, r2, r3
2000ae14:	e0813003 	add	r3, r1, r3
2000ae18:	e5932000 	ldr	r2, [r3]
2000ae1c:	e51b3014 	ldr	r3, [fp, #-20]
2000ae20:	e5832000 	str	r2, [r3]
2000ae24:	e51b2010 	ldr	r2, [fp, #-16]
2000ae28:	e59f3084 	ldr	r3, [pc, #132]	; 2000aeb4 <mq_getattr+0x118>
2000ae2c:	e51b001c 	ldr	r0, [fp, #-28]
2000ae30:	e7901003 	ldr	r1, [r0, r3]
2000ae34:	e3a00004 	mov	r0, #4	; 0x4
2000ae38:	e1a03002 	mov	r3, r2
2000ae3c:	e1a02103 	lsl	r2, r3, #2
2000ae40:	e1a03102 	lsl	r3, r2, #2
2000ae44:	e0623003 	rsb	r3, r2, r3
2000ae48:	e0813003 	add	r3, r1, r3
2000ae4c:	e0833000 	add	r3, r3, r0
2000ae50:	e5932000 	ldr	r2, [r3]
2000ae54:	e51b3014 	ldr	r3, [fp, #-20]
2000ae58:	e5832004 	str	r2, [r3, #4]
2000ae5c:	e51b2010 	ldr	r2, [fp, #-16]
2000ae60:	e59f304c 	ldr	r3, [pc, #76]	; 2000aeb4 <mq_getattr+0x118>
2000ae64:	e51b001c 	ldr	r0, [fp, #-28]
2000ae68:	e7901003 	ldr	r1, [r0, r3]
2000ae6c:	e3a00008 	mov	r0, #8	; 0x8
2000ae70:	e1a03002 	mov	r3, r2
2000ae74:	e1a02103 	lsl	r2, r3, #2
2000ae78:	e1a03102 	lsl	r3, r2, #2
2000ae7c:	e0623003 	rsb	r3, r2, r3
2000ae80:	e0813003 	add	r3, r1, r3
2000ae84:	e0833000 	add	r3, r3, r0
2000ae88:	e5932000 	ldr	r2, [r3]
2000ae8c:	e51b3014 	ldr	r3, [fp, #-20]
2000ae90:	e5832008 	str	r2, [r3, #8]
2000ae94:	e3a02000 	mov	r2, #0	; 0x0
2000ae98:	e50b2018 	str	r2, [fp, #-24]
2000ae9c:	e51b3018 	ldr	r3, [fp, #-24]
2000aea0:	e1a00003 	mov	r0, r3
2000aea4:	e24bd00c 	sub	sp, fp, #12	; 0xc
2000aea8:	e89da800 	ldm	sp, {fp, sp, pc}
2000aeac:	000087c8 	.word	0x000087c8
2000aeb0:	fffff8b4 	.word	0xfffff8b4
2000aeb4:	000000d4 	.word	0x000000d4

2000aeb8 <mq_close>:
2000aeb8:	e1a0c00d 	mov	ip, sp
2000aebc:	e92dd810 	push	{r4, fp, ip, lr, pc}
2000aec0:	e24cb004 	sub	fp, ip, #4	; 0x4
2000aec4:	e24dd00c 	sub	sp, sp, #12	; 0xc
2000aec8:	e59f41b8 	ldr	r4, [pc, #440]	; 2000b088 <mq_close+0x1d0>
2000aecc:	e08f4004 	add	r4, pc, r4
2000aed0:	e50b0018 	str	r0, [fp, #-24]
2000aed4:	eb000c13 	bl	2000df28 <vk_scheduler_lock>
2000aed8:	e51b2018 	ldr	r2, [fp, #-24]
2000aedc:	e59f31a8 	ldr	r3, [pc, #424]	; 2000b08c <mq_close+0x1d4>
2000aee0:	e7941003 	ldr	r1, [r4, r3]
2000aee4:	e3a00004 	mov	r0, #4	; 0x4
2000aee8:	e1a03002 	mov	r3, r2
2000aeec:	e1a02103 	lsl	r2, r3, #2
2000aef0:	e1a03182 	lsl	r3, r2, #3
2000aef4:	e0623003 	rsb	r3, r2, r3
2000aef8:	e0813003 	add	r3, r1, r3
2000aefc:	e0832000 	add	r2, r3, r0
2000af00:	e3a03000 	mov	r3, #0	; 0x0
2000af04:	e5823000 	str	r3, [r2]
2000af08:	e51b2018 	ldr	r2, [fp, #-24]
2000af0c:	e59f3178 	ldr	r3, [pc, #376]	; 2000b08c <mq_close+0x1d4>
2000af10:	e7941003 	ldr	r1, [r4, r3]
2000af14:	e3a00008 	mov	r0, #8	; 0x8
2000af18:	e1a03002 	mov	r3, r2
2000af1c:	e1a02103 	lsl	r2, r3, #2
2000af20:	e1a03182 	lsl	r3, r2, #3
2000af24:	e0623003 	rsb	r3, r2, r3
2000af28:	e0813003 	add	r3, r1, r3
2000af2c:	e0832000 	add	r2, r3, r0
2000af30:	e3a03000 	mov	r3, #0	; 0x0
2000af34:	e5823000 	str	r3, [r2]
2000af38:	e51b2018 	ldr	r2, [fp, #-24]
2000af3c:	e59f3148 	ldr	r3, [pc, #328]	; 2000b08c <mq_close+0x1d4>
2000af40:	e7941003 	ldr	r1, [r4, r3]
2000af44:	e3a0000c 	mov	r0, #12	; 0xc
2000af48:	e1a03002 	mov	r3, r2
2000af4c:	e1a02103 	lsl	r2, r3, #2
2000af50:	e1a03182 	lsl	r3, r2, #3
2000af54:	e0623003 	rsb	r3, r2, r3
2000af58:	e0813003 	add	r3, r1, r3
2000af5c:	e0832000 	add	r2, r3, r0
2000af60:	e3a03000 	mov	r3, #0	; 0x0
2000af64:	e5823000 	str	r3, [r2]
2000af68:	e51b2018 	ldr	r2, [fp, #-24]
2000af6c:	e59f3118 	ldr	r3, [pc, #280]	; 2000b08c <mq_close+0x1d4>
2000af70:	e7941003 	ldr	r1, [r4, r3]
2000af74:	e3a00010 	mov	r0, #16	; 0x10
2000af78:	e1a03002 	mov	r3, r2
2000af7c:	e1a02103 	lsl	r2, r3, #2
2000af80:	e1a03182 	lsl	r3, r2, #3
2000af84:	e0623003 	rsb	r3, r2, r3
2000af88:	e0813003 	add	r3, r1, r3
2000af8c:	e0832000 	add	r2, r3, r0
2000af90:	e3a03000 	mov	r3, #0	; 0x0
2000af94:	e5823000 	str	r3, [r2]
2000af98:	e51b2018 	ldr	r2, [fp, #-24]
2000af9c:	e59f30ec 	ldr	r3, [pc, #236]	; 2000b090 <mq_close+0x1d8>
2000afa0:	e7941003 	ldr	r1, [r4, r3]
2000afa4:	e1a03002 	mov	r3, r2
2000afa8:	e1a02103 	lsl	r2, r3, #2
2000afac:	e1a03102 	lsl	r3, r2, #2
2000afb0:	e0623003 	rsb	r3, r2, r3
2000afb4:	e0812003 	add	r2, r1, r3
2000afb8:	e3a03000 	mov	r3, #0	; 0x0
2000afbc:	e5823000 	str	r3, [r2]
2000afc0:	e51b2018 	ldr	r2, [fp, #-24]
2000afc4:	e59f30c4 	ldr	r3, [pc, #196]	; 2000b090 <mq_close+0x1d8>
2000afc8:	e7941003 	ldr	r1, [r4, r3]
2000afcc:	e3a00004 	mov	r0, #4	; 0x4
2000afd0:	e1a03002 	mov	r3, r2
2000afd4:	e1a02103 	lsl	r2, r3, #2
2000afd8:	e1a03102 	lsl	r3, r2, #2
2000afdc:	e0623003 	rsb	r3, r2, r3
2000afe0:	e0813003 	add	r3, r1, r3
2000afe4:	e0832000 	add	r2, r3, r0
2000afe8:	e3a03000 	mov	r3, #0	; 0x0
2000afec:	e5823000 	str	r3, [r2]
2000aff0:	e51b2018 	ldr	r2, [fp, #-24]
2000aff4:	e59f3094 	ldr	r3, [pc, #148]	; 2000b090 <mq_close+0x1d8>
2000aff8:	e7941003 	ldr	r1, [r4, r3]
2000affc:	e3a00008 	mov	r0, #8	; 0x8
2000b000:	e1a03002 	mov	r3, r2
2000b004:	e1a02103 	lsl	r2, r3, #2
2000b008:	e1a03102 	lsl	r3, r2, #2
2000b00c:	e0623003 	rsb	r3, r2, r3
2000b010:	e0813003 	add	r3, r1, r3
2000b014:	e0832000 	add	r2, r3, r0
2000b018:	e3a03000 	mov	r3, #0	; 0x0
2000b01c:	e5823000 	str	r3, [r2]
2000b020:	e51b3018 	ldr	r3, [fp, #-24]
2000b024:	e1a02103 	lsl	r2, r3, #2
2000b028:	e59f3064 	ldr	r3, [pc, #100]	; 2000b094 <mq_close+0x1dc>
2000b02c:	e7943003 	ldr	r3, [r4, r3]
2000b030:	e0823003 	add	r3, r2, r3
2000b034:	e1a00003 	mov	r0, r3
2000b038:	eb000ccd 	bl	2000e374 <sem_destory>
2000b03c:	e51b3018 	ldr	r3, [fp, #-24]
2000b040:	e2433001 	sub	r3, r3, #1	; 0x1
2000b044:	e50b3018 	str	r3, [fp, #-24]
2000b048:	e59f3048 	ldr	r3, [pc, #72]	; 2000b098 <mq_close+0x1e0>
2000b04c:	e7943003 	ldr	r3, [r4, r3]
2000b050:	e5933000 	ldr	r3, [r3]
2000b054:	e2432001 	sub	r2, r3, #1	; 0x1
2000b058:	e59f3038 	ldr	r3, [pc, #56]	; 2000b098 <mq_close+0x1e0>
2000b05c:	e7943003 	ldr	r3, [r4, r3]
2000b060:	e5832000 	str	r2, [r3]
2000b064:	eb000bc9 	bl	2000df90 <vk_scheduler_unlock>
2000b068:	e59f302c 	ldr	r3, [pc, #44]	; 2000b09c <mq_close+0x1e4>
2000b06c:	e0843003 	add	r3, r4, r3
2000b070:	e1a00003 	mov	r0, r3
2000b074:	eb0006a0 	bl	2000cafc <printk>
2000b078:	e3a03000 	mov	r3, #0	; 0x0
2000b07c:	e1a00003 	mov	r0, r3
2000b080:	e24bd010 	sub	sp, fp, #16	; 0x10
2000b084:	e89da810 	ldm	sp, {r4, fp, sp, pc}
2000b088:	000086b4 	.word	0x000086b4
2000b08c:	000000d8 	.word	0x000000d8
2000b090:	000000d4 	.word	0x000000d4
2000b094:	000000dc 	.word	0x000000dc
2000b098:	00000060 	.word	0x00000060
2000b09c:	fffff8cc 	.word	0xfffff8cc

2000b0a0 <pthread_mutex_init>:
2000b0a0:	e1a0c00d 	mov	ip, sp
2000b0a4:	e92dd800 	push	{fp, ip, lr, pc}
2000b0a8:	e24cb004 	sub	fp, ip, #4	; 0x4
2000b0ac:	e24dd010 	sub	sp, sp, #16	; 0x10
2000b0b0:	e50b0018 	str	r0, [fp, #-24]
2000b0b4:	e50b101c 	str	r1, [fp, #-28]
2000b0b8:	e3a0002c 	mov	r0, #44	; 0x2c
2000b0bc:	ebfffbdd 	bl	2000a038 <malloc>
2000b0c0:	e1a03000 	mov	r3, r0
2000b0c4:	e50b3010 	str	r3, [fp, #-16]
2000b0c8:	e51b2010 	ldr	r2, [fp, #-16]
2000b0cc:	e3a03000 	mov	r3, #0	; 0x0
2000b0d0:	e5823010 	str	r3, [r2, #16]
2000b0d4:	e51b2010 	ldr	r2, [fp, #-16]
2000b0d8:	e3a03000 	mov	r3, #0	; 0x0
2000b0dc:	e5823014 	str	r3, [r2, #20]
2000b0e0:	e51b2010 	ldr	r2, [fp, #-16]
2000b0e4:	e3a03001 	mov	r3, #1	; 0x1
2000b0e8:	e5823018 	str	r3, [r2, #24]
2000b0ec:	e51b2010 	ldr	r2, [fp, #-16]
2000b0f0:	e3a03000 	mov	r3, #0	; 0x0
2000b0f4:	e582301c 	str	r3, [r2, #28]
2000b0f8:	e51b2010 	ldr	r2, [fp, #-16]
2000b0fc:	e3a03000 	mov	r3, #0	; 0x0
2000b100:	e5823020 	str	r3, [r2, #32]
2000b104:	e51b2010 	ldr	r2, [fp, #-16]
2000b108:	e3a03000 	mov	r3, #0	; 0x0
2000b10c:	e5823024 	str	r3, [r2, #36]
2000b110:	e51b2010 	ldr	r2, [fp, #-16]
2000b114:	e3a03000 	mov	r3, #0	; 0x0
2000b118:	e5823028 	str	r3, [r2, #40]
2000b11c:	e51b2018 	ldr	r2, [fp, #-24]
2000b120:	e51b3010 	ldr	r3, [fp, #-16]
2000b124:	e5823000 	str	r3, [r2]
2000b128:	e3a03000 	mov	r3, #0	; 0x0
2000b12c:	e1a00003 	mov	r0, r3
2000b130:	e24bd00c 	sub	sp, fp, #12	; 0xc
2000b134:	e89da800 	ldm	sp, {fp, sp, pc}

2000b138 <pthread_mutex_destroy>:
2000b138:	e1a0c00d 	mov	ip, sp
2000b13c:	e92dd800 	push	{fp, ip, lr, pc}
2000b140:	e24cb004 	sub	fp, ip, #4	; 0x4
2000b144:	e24dd018 	sub	sp, sp, #24	; 0x18
2000b148:	e59f10bc 	ldr	r1, [pc, #188]	; 2000b20c <pthread_mutex_destroy+0xd4>
2000b14c:	e50b1020 	str	r1, [fp, #-32]
2000b150:	e51b2020 	ldr	r2, [fp, #-32]
2000b154:	e08f2002 	add	r2, pc, r2
2000b158:	e50b2020 	str	r2, [fp, #-32]
2000b15c:	e50b0018 	str	r0, [fp, #-24]
2000b160:	e51b3018 	ldr	r3, [fp, #-24]
2000b164:	e5933000 	ldr	r3, [r3]
2000b168:	e50b3010 	str	r3, [fp, #-16]
2000b16c:	e51b3010 	ldr	r3, [fp, #-16]
2000b170:	e5933014 	ldr	r3, [r3, #20]
2000b174:	e3530000 	cmp	r3, #0	; 0x0
2000b178:	1a000008 	bne	2000b1a0 <pthread_mutex_destroy+0x68>
2000b17c:	e51b3010 	ldr	r3, [fp, #-16]
2000b180:	e5933018 	ldr	r3, [r3, #24]
2000b184:	e3530001 	cmp	r3, #1	; 0x1
2000b188:	1a000004 	bne	2000b1a0 <pthread_mutex_destroy+0x68>
2000b18c:	e51b0010 	ldr	r0, [fp, #-16]
2000b190:	ebfffbc6 	bl	2000a0b0 <free>
2000b194:	e3a03000 	mov	r3, #0	; 0x0
2000b198:	e50b301c 	str	r3, [fp, #-28]
2000b19c:	ea000016 	b	2000b1fc <pthread_mutex_destroy+0xc4>
2000b1a0:	e51b3010 	ldr	r3, [fp, #-16]
2000b1a4:	e5932014 	ldr	r2, [r3, #20]
2000b1a8:	e59f3060 	ldr	r3, [pc, #96]	; 2000b210 <pthread_mutex_destroy+0xd8>
2000b1ac:	e51b1020 	ldr	r1, [fp, #-32]
2000b1b0:	e0813003 	add	r3, r1, r3
2000b1b4:	e1a00003 	mov	r0, r3
2000b1b8:	e1a01002 	mov	r1, r2
2000b1bc:	eb00064e 	bl	2000cafc <printk>
2000b1c0:	e51b3010 	ldr	r3, [fp, #-16]
2000b1c4:	e5932018 	ldr	r2, [r3, #24]
2000b1c8:	e59f3044 	ldr	r3, [pc, #68]	; 2000b214 <pthread_mutex_destroy+0xdc>
2000b1cc:	e51b1020 	ldr	r1, [fp, #-32]
2000b1d0:	e0813003 	add	r3, r1, r3
2000b1d4:	e1a00003 	mov	r0, r3
2000b1d8:	e1a01002 	mov	r1, r2
2000b1dc:	eb000646 	bl	2000cafc <printk>
2000b1e0:	e59f3030 	ldr	r3, [pc, #48]	; 2000b218 <pthread_mutex_destroy+0xe0>
2000b1e4:	e51b2020 	ldr	r2, [fp, #-32]
2000b1e8:	e0823003 	add	r3, r2, r3
2000b1ec:	e1a00003 	mov	r0, r3
2000b1f0:	eb000641 	bl	2000cafc <printk>
2000b1f4:	e3a03001 	mov	r3, #1	; 0x1
2000b1f8:	e50b301c 	str	r3, [fp, #-28]
2000b1fc:	e51b301c 	ldr	r3, [fp, #-28]
2000b200:	e1a00003 	mov	r0, r3
2000b204:	e24bd00c 	sub	sp, fp, #12	; 0xc
2000b208:	e89da800 	ldm	sp, {fp, sp, pc}
2000b20c:	0000842c 	.word	0x0000842c
2000b210:	fffff8d8 	.word	0xfffff8d8
2000b214:	fffff8e8 	.word	0xfffff8e8
2000b218:	fffff8f4 	.word	0xfffff8f4

2000b21c <pthread_mutex_lock>:
2000b21c:	e1a0c00d 	mov	ip, sp
2000b220:	e92dd800 	push	{fp, ip, lr, pc}
2000b224:	e24cb004 	sub	fp, ip, #4	; 0x4
2000b228:	e24dd020 	sub	sp, sp, #32	; 0x20
2000b22c:	e59f22b4 	ldr	r2, [pc, #692]	; 2000b4e8 <pthread_mutex_lock+0x2cc>
2000b230:	e50b2028 	str	r2, [fp, #-40]
2000b234:	e51b3028 	ldr	r3, [fp, #-40]
2000b238:	e08f3003 	add	r3, pc, r3
2000b23c:	e50b3028 	str	r3, [fp, #-40]
2000b240:	e50b0020 	str	r0, [fp, #-32]
2000b244:	e51b3020 	ldr	r3, [fp, #-32]
2000b248:	e3530000 	cmp	r3, #0	; 0x0
2000b24c:	1a000002 	bne	2000b25c <pthread_mutex_lock+0x40>
2000b250:	e3e02000 	mvn	r2, #0	; 0x0
2000b254:	e50b2024 	str	r2, [fp, #-36]
2000b258:	ea00009e 	b	2000b4d8 <pthread_mutex_lock+0x2bc>
2000b25c:	e59f3288 	ldr	r3, [pc, #648]	; 2000b4ec <pthread_mutex_lock+0x2d0>
2000b260:	e51b2028 	ldr	r2, [fp, #-40]
2000b264:	e7923003 	ldr	r3, [r2, r3]
2000b268:	e5933000 	ldr	r3, [r3]
2000b26c:	e5933038 	ldr	r3, [r3, #56]
2000b270:	e50b3010 	str	r3, [fp, #-16]
2000b274:	eb000b2b 	bl	2000df28 <vk_scheduler_lock>
2000b278:	e51b3010 	ldr	r3, [fp, #-16]
2000b27c:	e3530000 	cmp	r3, #0	; 0x0
2000b280:	1a000000 	bne	2000b288 <pthread_mutex_lock+0x6c>
2000b284:	ebfff939 	bl	20009770 <vk_disable_interrupt>
2000b288:	e51b3020 	ldr	r3, [fp, #-32]
2000b28c:	e5933000 	ldr	r3, [r3]
2000b290:	e50b3018 	str	r3, [fp, #-24]
2000b294:	ea00006e 	b	2000b454 <pthread_mutex_lock+0x238>
2000b298:	e51b3018 	ldr	r3, [fp, #-24]
2000b29c:	e593301c 	ldr	r3, [r3, #28]
2000b2a0:	e3530000 	cmp	r3, #0	; 0x0
2000b2a4:	1a000006 	bne	2000b2c4 <pthread_mutex_lock+0xa8>
2000b2a8:	e59f323c 	ldr	r3, [pc, #572]	; 2000b4ec <pthread_mutex_lock+0x2d0>
2000b2ac:	e51b2028 	ldr	r2, [fp, #-40]
2000b2b0:	e7923003 	ldr	r3, [r2, r3]
2000b2b4:	e5932000 	ldr	r2, [r3]
2000b2b8:	e51b3018 	ldr	r3, [fp, #-24]
2000b2bc:	e583201c 	str	r2, [r3, #28]
2000b2c0:	ea00001d 	b	2000b33c <pthread_mutex_lock+0x120>
2000b2c4:	e51b3018 	ldr	r3, [fp, #-24]
2000b2c8:	e5933020 	ldr	r3, [r3, #32]
2000b2cc:	e3530000 	cmp	r3, #0	; 0x0
2000b2d0:	1a000006 	bne	2000b2f0 <pthread_mutex_lock+0xd4>
2000b2d4:	e59f3210 	ldr	r3, [pc, #528]	; 2000b4ec <pthread_mutex_lock+0x2d0>
2000b2d8:	e51b2028 	ldr	r2, [fp, #-40]
2000b2dc:	e7923003 	ldr	r3, [r2, r3]
2000b2e0:	e5932000 	ldr	r2, [r3]
2000b2e4:	e51b3018 	ldr	r3, [fp, #-24]
2000b2e8:	e5832020 	str	r2, [r3, #32]
2000b2ec:	ea000012 	b	2000b33c <pthread_mutex_lock+0x120>
2000b2f0:	e51b3018 	ldr	r3, [fp, #-24]
2000b2f4:	e5933024 	ldr	r3, [r3, #36]
2000b2f8:	e3530000 	cmp	r3, #0	; 0x0
2000b2fc:	1a000006 	bne	2000b31c <pthread_mutex_lock+0x100>
2000b300:	e59f31e4 	ldr	r3, [pc, #484]	; 2000b4ec <pthread_mutex_lock+0x2d0>
2000b304:	e51b2028 	ldr	r2, [fp, #-40]
2000b308:	e7923003 	ldr	r3, [r2, r3]
2000b30c:	e5932000 	ldr	r2, [r3]
2000b310:	e51b3018 	ldr	r3, [fp, #-24]
2000b314:	e5832024 	str	r2, [r3, #36]
2000b318:	ea000007 	b	2000b33c <pthread_mutex_lock+0x120>
2000b31c:	e59f31cc 	ldr	r3, [pc, #460]	; 2000b4f0 <pthread_mutex_lock+0x2d4>
2000b320:	e51b2028 	ldr	r2, [fp, #-40]
2000b324:	e0823003 	add	r3, r2, r3
2000b328:	e1a00003 	mov	r0, r3
2000b32c:	eb0005f2 	bl	2000cafc <printk>
2000b330:	e3e03000 	mvn	r3, #0	; 0x0
2000b334:	e50b3024 	str	r3, [fp, #-36]
2000b338:	ea000066 	b	2000b4d8 <pthread_mutex_lock+0x2bc>
2000b33c:	e59f31a8 	ldr	r3, [pc, #424]	; 2000b4ec <pthread_mutex_lock+0x2d0>
2000b340:	e51b2028 	ldr	r2, [fp, #-40]
2000b344:	e7923003 	ldr	r3, [r2, r3]
2000b348:	e5932000 	ldr	r2, [r3]
2000b34c:	e3a03002 	mov	r3, #2	; 0x2
2000b350:	e5823000 	str	r3, [r2]
2000b354:	e59f3190 	ldr	r3, [pc, #400]	; 2000b4ec <pthread_mutex_lock+0x2d0>
2000b358:	e51b2028 	ldr	r2, [fp, #-40]
2000b35c:	e7923003 	ldr	r3, [r2, r3]
2000b360:	e5933000 	ldr	r3, [r3]
2000b364:	e1a00003 	mov	r0, r3
2000b368:	e59f3184 	ldr	r3, [pc, #388]	; 2000b4f4 <pthread_mutex_lock+0x2d8>
2000b36c:	e51b2028 	ldr	r2, [fp, #-40]
2000b370:	e7923003 	ldr	r3, [r2, r3]
2000b374:	e1a01003 	mov	r1, r3
2000b378:	eb0007cf 	bl	2000d2bc <vk_thread_dequeue>
2000b37c:	e51b3018 	ldr	r3, [fp, #-24]
2000b380:	e5933014 	ldr	r3, [r3, #20]
2000b384:	e2832001 	add	r2, r3, #1	; 0x1
2000b388:	e51b3018 	ldr	r3, [fp, #-24]
2000b38c:	e5832014 	str	r2, [r3, #20]
2000b390:	e59f3154 	ldr	r3, [pc, #340]	; 2000b4ec <pthread_mutex_lock+0x2d0>
2000b394:	e51b2028 	ldr	r2, [fp, #-40]
2000b398:	e7923003 	ldr	r3, [r2, r3]
2000b39c:	e5933000 	ldr	r3, [r3]
2000b3a0:	e5932008 	ldr	r2, [r3, #8]
2000b3a4:	e51b3018 	ldr	r3, [fp, #-24]
2000b3a8:	e5933010 	ldr	r3, [r3, #16]
2000b3ac:	e1520003 	cmp	r2, r3
2000b3b0:	9a000006 	bls	2000b3d0 <pthread_mutex_lock+0x1b4>
2000b3b4:	e59f3130 	ldr	r3, [pc, #304]	; 2000b4ec <pthread_mutex_lock+0x2d0>
2000b3b8:	e51b2028 	ldr	r2, [fp, #-40]
2000b3bc:	e7923003 	ldr	r3, [r2, r3]
2000b3c0:	e5933000 	ldr	r3, [r3]
2000b3c4:	e5932008 	ldr	r2, [r3, #8]
2000b3c8:	e51b3018 	ldr	r3, [fp, #-24]
2000b3cc:	e5832010 	str	r2, [r3, #16]
2000b3d0:	e51b3018 	ldr	r3, [fp, #-24]
2000b3d4:	e5933028 	ldr	r3, [r3, #40]
2000b3d8:	e3530000 	cmp	r3, #0	; 0x0
2000b3dc:	0a00001b 	beq	2000b450 <pthread_mutex_lock+0x234>
2000b3e0:	e51b3018 	ldr	r3, [fp, #-24]
2000b3e4:	e5933028 	ldr	r3, [r3, #40]
2000b3e8:	e5932008 	ldr	r2, [r3, #8]
2000b3ec:	e51b3018 	ldr	r3, [fp, #-24]
2000b3f0:	e5933010 	ldr	r3, [r3, #16]
2000b3f4:	e1520003 	cmp	r2, r3
2000b3f8:	2a000014 	bcs	2000b450 <pthread_mutex_lock+0x234>
2000b3fc:	e51b3018 	ldr	r3, [fp, #-24]
2000b400:	e5933028 	ldr	r3, [r3, #40]
2000b404:	e1a00003 	mov	r0, r3
2000b408:	e59f30e4 	ldr	r3, [pc, #228]	; 2000b4f4 <pthread_mutex_lock+0x2d8>
2000b40c:	e51b2028 	ldr	r2, [fp, #-40]
2000b410:	e7923003 	ldr	r3, [r2, r3]
2000b414:	e1a01003 	mov	r1, r3
2000b418:	eb0007a7 	bl	2000d2bc <vk_thread_dequeue>
2000b41c:	e51b3018 	ldr	r3, [fp, #-24]
2000b420:	e5932028 	ldr	r2, [r3, #40]
2000b424:	e51b3018 	ldr	r3, [fp, #-24]
2000b428:	e5933010 	ldr	r3, [r3, #16]
2000b42c:	e5823008 	str	r3, [r2, #8]
2000b430:	e51b3018 	ldr	r3, [fp, #-24]
2000b434:	e5933028 	ldr	r3, [r3, #40]
2000b438:	e1a00003 	mov	r0, r3
2000b43c:	e59f30b0 	ldr	r3, [pc, #176]	; 2000b4f4 <pthread_mutex_lock+0x2d8>
2000b440:	e51b2028 	ldr	r2, [fp, #-40]
2000b444:	e7923003 	ldr	r3, [r2, r3]
2000b448:	e1a01003 	mov	r1, r3
2000b44c:	eb00072c 	bl	2000d104 <vk_thread_enqueue>
2000b450:	ebfff8db 	bl	200097c4 <vk_swi_scheduler>
2000b454:	e51b3018 	ldr	r3, [fp, #-24]
2000b458:	e5933018 	ldr	r3, [r3, #24]
2000b45c:	e3530000 	cmp	r3, #0	; 0x0
2000b460:	0affff8c 	beq	2000b298 <pthread_mutex_lock+0x7c>
2000b464:	e51b3018 	ldr	r3, [fp, #-24]
2000b468:	e3a02000 	mov	r2, #0	; 0x0
2000b46c:	e5832018 	str	r2, [r3, #24]
2000b470:	e3a03000 	mov	r3, #0	; 0x0
2000b474:	e50b3014 	str	r3, [fp, #-20]
2000b478:	ea00000c 	b	2000b4b0 <pthread_mutex_lock+0x294>
2000b47c:	e51b3018 	ldr	r3, [fp, #-24]
2000b480:	e5933028 	ldr	r3, [r3, #40]
2000b484:	e3530000 	cmp	r3, #0	; 0x0
2000b488:	1a000005 	bne	2000b4a4 <pthread_mutex_lock+0x288>
2000b48c:	e59f3058 	ldr	r3, [pc, #88]	; 2000b4ec <pthread_mutex_lock+0x2d0>
2000b490:	e51b2028 	ldr	r2, [fp, #-40]
2000b494:	e7923003 	ldr	r3, [r2, r3]
2000b498:	e5932000 	ldr	r2, [r3]
2000b49c:	e51b3018 	ldr	r3, [fp, #-24]
2000b4a0:	e5832028 	str	r2, [r3, #40]
2000b4a4:	e51b3014 	ldr	r3, [fp, #-20]
2000b4a8:	e2833001 	add	r3, r3, #1	; 0x1
2000b4ac:	e50b3014 	str	r3, [fp, #-20]
2000b4b0:	e51b3014 	ldr	r3, [fp, #-20]
2000b4b4:	e3530002 	cmp	r3, #2	; 0x2
2000b4b8:	9affffef 	bls	2000b47c <pthread_mutex_lock+0x260>
2000b4bc:	e51b3010 	ldr	r3, [fp, #-16]
2000b4c0:	e3530000 	cmp	r3, #0	; 0x0
2000b4c4:	1a000000 	bne	2000b4cc <pthread_mutex_lock+0x2b0>
2000b4c8:	ebfff893 	bl	2000971c <vk_enable_interrupt>
2000b4cc:	eb000aaf 	bl	2000df90 <vk_scheduler_unlock>
2000b4d0:	e3a03000 	mov	r3, #0	; 0x0
2000b4d4:	e50b3024 	str	r3, [fp, #-36]
2000b4d8:	e51b3024 	ldr	r3, [fp, #-36]
2000b4dc:	e1a00003 	mov	r0, r3
2000b4e0:	e24bd00c 	sub	sp, fp, #12	; 0xc
2000b4e4:	e89da800 	ldm	sp, {fp, sp, pc}
2000b4e8:	00008348 	.word	0x00008348
2000b4ec:	000000ac 	.word	0x000000ac
2000b4f0:	fffff94c 	.word	0xfffff94c
2000b4f4:	0000007c 	.word	0x0000007c

2000b4f8 <pthread_mutex_trylock>:
2000b4f8:	e1a0c00d 	mov	ip, sp
2000b4fc:	e92dd800 	push	{fp, ip, lr, pc}
2000b500:	e24cb004 	sub	fp, ip, #4	; 0x4
2000b504:	e24dd010 	sub	sp, sp, #16	; 0x10
2000b508:	e50b0018 	str	r0, [fp, #-24]
2000b50c:	ebfff897 	bl	20009770 <vk_disable_interrupt>
2000b510:	e51b3018 	ldr	r3, [fp, #-24]
2000b514:	e5933000 	ldr	r3, [r3]
2000b518:	e50b3014 	str	r3, [fp, #-20]
2000b51c:	e51b3014 	ldr	r3, [fp, #-20]
2000b520:	e5933018 	ldr	r3, [r3, #24]
2000b524:	e3530001 	cmp	r3, #1	; 0x1
2000b528:	1a000006 	bne	2000b548 <pthread_mutex_trylock+0x50>
2000b52c:	e51b0018 	ldr	r0, [fp, #-24]
2000b530:	ebffff39 	bl	2000b21c <pthread_mutex_lock>
2000b534:	e1a03000 	mov	r3, r0
2000b538:	e50b3010 	str	r3, [fp, #-16]
2000b53c:	e51b3010 	ldr	r3, [fp, #-16]
2000b540:	e50b301c 	str	r3, [fp, #-28]
2000b544:	ea000002 	b	2000b554 <pthread_mutex_trylock+0x5c>
2000b548:	ebfff873 	bl	2000971c <vk_enable_interrupt>
2000b54c:	e3e03000 	mvn	r3, #0	; 0x0
2000b550:	e50b301c 	str	r3, [fp, #-28]
2000b554:	e51b301c 	ldr	r3, [fp, #-28]
2000b558:	e1a00003 	mov	r0, r3
2000b55c:	e24bd00c 	sub	sp, fp, #12	; 0xc
2000b560:	e89da800 	ldm	sp, {fp, sp, pc}

2000b564 <pthread_mutex_unlock>:
2000b564:	e1a0c00d 	mov	ip, sp
2000b568:	e92dd800 	push	{fp, ip, lr, pc}
2000b56c:	e24cb004 	sub	fp, ip, #4	; 0x4
2000b570:	e24dd020 	sub	sp, sp, #32	; 0x20
2000b574:	e59f12a4 	ldr	r1, [pc, #676]	; 2000b820 <pthread_mutex_unlock+0x2bc>
2000b578:	e50b1028 	str	r1, [fp, #-40]
2000b57c:	e51b2028 	ldr	r2, [fp, #-40]
2000b580:	e08f2002 	add	r2, pc, r2
2000b584:	e50b2028 	str	r2, [fp, #-40]
2000b588:	e50b0020 	str	r0, [fp, #-32]
2000b58c:	e51b3020 	ldr	r3, [fp, #-32]
2000b590:	e3530000 	cmp	r3, #0	; 0x0
2000b594:	1a000002 	bne	2000b5a4 <pthread_mutex_unlock+0x40>
2000b598:	e3e03000 	mvn	r3, #0	; 0x0
2000b59c:	e50b3024 	str	r3, [fp, #-36]
2000b5a0:	ea00009a 	b	2000b810 <pthread_mutex_unlock+0x2ac>
2000b5a4:	e59f3278 	ldr	r3, [pc, #632]	; 2000b824 <pthread_mutex_unlock+0x2c0>
2000b5a8:	e51b1028 	ldr	r1, [fp, #-40]
2000b5ac:	e7913003 	ldr	r3, [r1, r3]
2000b5b0:	e5933000 	ldr	r3, [r3]
2000b5b4:	e5933038 	ldr	r3, [r3, #56]
2000b5b8:	e50b3010 	str	r3, [fp, #-16]
2000b5bc:	eb000a59 	bl	2000df28 <vk_scheduler_lock>
2000b5c0:	e51b3020 	ldr	r3, [fp, #-32]
2000b5c4:	e5933000 	ldr	r3, [r3]
2000b5c8:	e50b3018 	str	r3, [fp, #-24]
2000b5cc:	e51b3018 	ldr	r3, [fp, #-24]
2000b5d0:	e5932028 	ldr	r2, [r3, #40]
2000b5d4:	e59f3248 	ldr	r3, [pc, #584]	; 2000b824 <pthread_mutex_unlock+0x2c0>
2000b5d8:	e51b1028 	ldr	r1, [fp, #-40]
2000b5dc:	e7913003 	ldr	r3, [r1, r3]
2000b5e0:	e5933000 	ldr	r3, [r3]
2000b5e4:	e1520003 	cmp	r2, r3
2000b5e8:	0a000002 	beq	2000b5f8 <pthread_mutex_unlock+0x94>
2000b5ec:	e3e02000 	mvn	r2, #0	; 0x0
2000b5f0:	e50b2024 	str	r2, [fp, #-36]
2000b5f4:	ea000085 	b	2000b810 <pthread_mutex_unlock+0x2ac>
2000b5f8:	e51b3018 	ldr	r3, [fp, #-24]
2000b5fc:	e593301c 	ldr	r3, [r3, #28]
2000b600:	e3530000 	cmp	r3, #0	; 0x0
2000b604:	0a00000e 	beq	2000b644 <pthread_mutex_unlock+0xe0>
2000b608:	e51b3018 	ldr	r3, [fp, #-24]
2000b60c:	e593201c 	ldr	r2, [r3, #28]
2000b610:	e3a03001 	mov	r3, #1	; 0x1
2000b614:	e5823000 	str	r3, [r2]
2000b618:	e51b3018 	ldr	r3, [fp, #-24]
2000b61c:	e593301c 	ldr	r3, [r3, #28]
2000b620:	e1a00003 	mov	r0, r3
2000b624:	e59f31fc 	ldr	r3, [pc, #508]	; 2000b828 <pthread_mutex_unlock+0x2c4>
2000b628:	e51b1028 	ldr	r1, [fp, #-40]
2000b62c:	e7913003 	ldr	r3, [r1, r3]
2000b630:	e1a01003 	mov	r1, r3
2000b634:	eb0006b2 	bl	2000d104 <vk_thread_enqueue>
2000b638:	e51b2018 	ldr	r2, [fp, #-24]
2000b63c:	e3a03000 	mov	r3, #0	; 0x0
2000b640:	e582301c 	str	r3, [r2, #28]
2000b644:	e51b3018 	ldr	r3, [fp, #-24]
2000b648:	e5933020 	ldr	r3, [r3, #32]
2000b64c:	e3530000 	cmp	r3, #0	; 0x0
2000b650:	0a00000e 	beq	2000b690 <pthread_mutex_unlock+0x12c>
2000b654:	e51b3018 	ldr	r3, [fp, #-24]
2000b658:	e593201c 	ldr	r2, [r3, #28]
2000b65c:	e3a03001 	mov	r3, #1	; 0x1
2000b660:	e5823000 	str	r3, [r2]
2000b664:	e51b3018 	ldr	r3, [fp, #-24]
2000b668:	e5933020 	ldr	r3, [r3, #32]
2000b66c:	e1a00003 	mov	r0, r3
2000b670:	e59f31b0 	ldr	r3, [pc, #432]	; 2000b828 <pthread_mutex_unlock+0x2c4>
2000b674:	e51b2028 	ldr	r2, [fp, #-40]
2000b678:	e7923003 	ldr	r3, [r2, r3]
2000b67c:	e1a01003 	mov	r1, r3
2000b680:	eb00069f 	bl	2000d104 <vk_thread_enqueue>
2000b684:	e51b2018 	ldr	r2, [fp, #-24]
2000b688:	e3a03000 	mov	r3, #0	; 0x0
2000b68c:	e5823020 	str	r3, [r2, #32]
2000b690:	e51b3018 	ldr	r3, [fp, #-24]
2000b694:	e5933024 	ldr	r3, [r3, #36]
2000b698:	e3530000 	cmp	r3, #0	; 0x0
2000b69c:	0a00000e 	beq	2000b6dc <pthread_mutex_unlock+0x178>
2000b6a0:	e51b3018 	ldr	r3, [fp, #-24]
2000b6a4:	e593201c 	ldr	r2, [r3, #28]
2000b6a8:	e3a03001 	mov	r3, #1	; 0x1
2000b6ac:	e5823000 	str	r3, [r2]
2000b6b0:	e51b3018 	ldr	r3, [fp, #-24]
2000b6b4:	e5933024 	ldr	r3, [r3, #36]
2000b6b8:	e1a00003 	mov	r0, r3
2000b6bc:	e59f3164 	ldr	r3, [pc, #356]	; 2000b828 <pthread_mutex_unlock+0x2c4>
2000b6c0:	e51b1028 	ldr	r1, [fp, #-40]
2000b6c4:	e7913003 	ldr	r3, [r1, r3]
2000b6c8:	e1a01003 	mov	r1, r3
2000b6cc:	eb00068c 	bl	2000d104 <vk_thread_enqueue>
2000b6d0:	e51b2018 	ldr	r2, [fp, #-24]
2000b6d4:	e3a03000 	mov	r3, #0	; 0x0
2000b6d8:	e5823024 	str	r3, [r2, #36]
2000b6dc:	e51b2018 	ldr	r2, [fp, #-24]
2000b6e0:	e3a03000 	mov	r3, #0	; 0x0
2000b6e4:	e5823014 	str	r3, [r2, #20]
2000b6e8:	e59f3134 	ldr	r3, [pc, #308]	; 2000b824 <pthread_mutex_unlock+0x2c0>
2000b6ec:	e51b2028 	ldr	r2, [fp, #-40]
2000b6f0:	e7923003 	ldr	r3, [r2, r3]
2000b6f4:	e5933000 	ldr	r3, [r3]
2000b6f8:	e5932008 	ldr	r2, [r3, #8]
2000b6fc:	e59f3120 	ldr	r3, [pc, #288]	; 2000b824 <pthread_mutex_unlock+0x2c0>
2000b700:	e51b1028 	ldr	r1, [fp, #-40]
2000b704:	e7913003 	ldr	r3, [r1, r3]
2000b708:	e5933000 	ldr	r3, [r3]
2000b70c:	e593300c 	ldr	r3, [r3, #12]
2000b710:	e1520003 	cmp	r2, r3
2000b714:	0a000022 	beq	2000b7a4 <pthread_mutex_unlock+0x240>
2000b718:	e59f3104 	ldr	r3, [pc, #260]	; 2000b824 <pthread_mutex_unlock+0x2c0>
2000b71c:	e51b2028 	ldr	r2, [fp, #-40]
2000b720:	e7923003 	ldr	r3, [r2, r3]
2000b724:	e5933000 	ldr	r3, [r3]
2000b728:	e1a00003 	mov	r0, r3
2000b72c:	e59f30f4 	ldr	r3, [pc, #244]	; 2000b828 <pthread_mutex_unlock+0x2c4>
2000b730:	e51b1028 	ldr	r1, [fp, #-40]
2000b734:	e7913003 	ldr	r3, [r1, r3]
2000b738:	e1a01003 	mov	r1, r3
2000b73c:	eb0006de 	bl	2000d2bc <vk_thread_dequeue>
2000b740:	e1a03000 	mov	r3, r0
2000b744:	e50b3014 	str	r3, [fp, #-20]
2000b748:	e59f30d4 	ldr	r3, [pc, #212]	; 2000b824 <pthread_mutex_unlock+0x2c0>
2000b74c:	e51b2028 	ldr	r2, [fp, #-40]
2000b750:	e7923003 	ldr	r3, [r2, r3]
2000b754:	e5932000 	ldr	r2, [r3]
2000b758:	e59f30c4 	ldr	r3, [pc, #196]	; 2000b824 <pthread_mutex_unlock+0x2c0>
2000b75c:	e51b1028 	ldr	r1, [fp, #-40]
2000b760:	e7913003 	ldr	r3, [r1, r3]
2000b764:	e5933000 	ldr	r3, [r3]
2000b768:	e593300c 	ldr	r3, [r3, #12]
2000b76c:	e5823008 	str	r3, [r2, #8]
2000b770:	e51b3014 	ldr	r3, [fp, #-20]
2000b774:	e3530000 	cmp	r3, #0	; 0x0
2000b778:	0a000009 	beq	2000b7a4 <pthread_mutex_unlock+0x240>
2000b77c:	e59f30a0 	ldr	r3, [pc, #160]	; 2000b824 <pthread_mutex_unlock+0x2c0>
2000b780:	e51b2028 	ldr	r2, [fp, #-40]
2000b784:	e7923003 	ldr	r3, [r2, r3]
2000b788:	e5933000 	ldr	r3, [r3]
2000b78c:	e1a00003 	mov	r0, r3
2000b790:	e59f3090 	ldr	r3, [pc, #144]	; 2000b828 <pthread_mutex_unlock+0x2c4>
2000b794:	e51b1028 	ldr	r1, [fp, #-40]
2000b798:	e7913003 	ldr	r3, [r1, r3]
2000b79c:	e1a01003 	mov	r1, r3
2000b7a0:	eb000657 	bl	2000d104 <vk_thread_enqueue>
2000b7a4:	e51b3018 	ldr	r3, [fp, #-24]
2000b7a8:	e3a02001 	mov	r2, #1	; 0x1
2000b7ac:	e5832018 	str	r2, [r3, #24]
2000b7b0:	e3a03000 	mov	r3, #0	; 0x0
2000b7b4:	e50b301c 	str	r3, [fp, #-28]
2000b7b8:	ea00000d 	b	2000b7f4 <pthread_mutex_unlock+0x290>
2000b7bc:	e51b3018 	ldr	r3, [fp, #-24]
2000b7c0:	e5932028 	ldr	r2, [r3, #40]
2000b7c4:	e59f3058 	ldr	r3, [pc, #88]	; 2000b824 <pthread_mutex_unlock+0x2c0>
2000b7c8:	e51b1028 	ldr	r1, [fp, #-40]
2000b7cc:	e7913003 	ldr	r3, [r1, r3]
2000b7d0:	e5933000 	ldr	r3, [r3]
2000b7d4:	e1520003 	cmp	r2, r3
2000b7d8:	1a000002 	bne	2000b7e8 <pthread_mutex_unlock+0x284>
2000b7dc:	e51b2018 	ldr	r2, [fp, #-24]
2000b7e0:	e3a03000 	mov	r3, #0	; 0x0
2000b7e4:	e5823028 	str	r3, [r2, #40]
2000b7e8:	e51b301c 	ldr	r3, [fp, #-28]
2000b7ec:	e2833001 	add	r3, r3, #1	; 0x1
2000b7f0:	e50b301c 	str	r3, [fp, #-28]
2000b7f4:	e51b301c 	ldr	r3, [fp, #-28]
2000b7f8:	e3530002 	cmp	r3, #2	; 0x2
2000b7fc:	9affffee 	bls	2000b7bc <pthread_mutex_unlock+0x258>
2000b800:	eb0009e2 	bl	2000df90 <vk_scheduler_unlock>
2000b804:	ebfff7ee 	bl	200097c4 <vk_swi_scheduler>
2000b808:	e3a02000 	mov	r2, #0	; 0x0
2000b80c:	e50b2024 	str	r2, [fp, #-36]
2000b810:	e51b3024 	ldr	r3, [fp, #-36]
2000b814:	e1a00003 	mov	r0, r3
2000b818:	e24bd00c 	sub	sp, fp, #12	; 0xc
2000b81c:	e89da800 	ldm	sp, {fp, sp, pc}
2000b820:	00008000 	.word	0x00008000
2000b824:	000000ac 	.word	0x000000ac
2000b828:	0000007c 	.word	0x0000007c

2000b82c <parse_args>:
2000b82c:	e1a0c00d 	mov	ip, sp
2000b830:	e92dd800 	push	{fp, ip, lr, pc}
2000b834:	e24cb004 	sub	fp, ip, #4	; 0x4
2000b838:	e24dd018 	sub	sp, sp, #24	; 0x18
2000b83c:	e59f20b8 	ldr	r2, [pc, #184]	; 2000b8fc <parse_args+0xd0>
2000b840:	e50b2020 	str	r2, [fp, #-32]
2000b844:	e51b3020 	ldr	r3, [fp, #-32]
2000b848:	e08f3003 	add	r3, pc, r3
2000b84c:	e50b3020 	str	r3, [fp, #-32]
2000b850:	e50b0018 	str	r0, [fp, #-24]
2000b854:	e50b101c 	str	r1, [fp, #-28]
2000b858:	e3a03000 	mov	r3, #0	; 0x0
2000b85c:	e50b3010 	str	r3, [fp, #-16]
2000b860:	e51b3010 	ldr	r3, [fp, #-16]
2000b864:	e1a02103 	lsl	r2, r3, #2
2000b868:	e51b301c 	ldr	r3, [fp, #-28]
2000b86c:	e0832002 	add	r2, r3, r2
2000b870:	e3a03000 	mov	r3, #0	; 0x0
2000b874:	e5823000 	str	r3, [r2]
2000b878:	e51b0018 	ldr	r0, [fp, #-24]
2000b87c:	e59f307c 	ldr	r3, [pc, #124]	; 2000b900 <parse_args+0xd4>
2000b880:	e51b2020 	ldr	r2, [fp, #-32]
2000b884:	e7923003 	ldr	r3, [r2, r3]
2000b888:	e1a01003 	mov	r1, r3
2000b88c:	eb0013b1 	bl	20010758 <strtok>
2000b890:	e1a03000 	mov	r3, r0
2000b894:	e50b3014 	str	r3, [fp, #-20]
2000b898:	ea000010 	b	2000b8e0 <parse_args+0xb4>
2000b89c:	e51b3010 	ldr	r3, [fp, #-16]
2000b8a0:	e1a02103 	lsl	r2, r3, #2
2000b8a4:	e51b301c 	ldr	r3, [fp, #-28]
2000b8a8:	e0832002 	add	r2, r3, r2
2000b8ac:	e51b3014 	ldr	r3, [fp, #-20]
2000b8b0:	e5823000 	str	r3, [r2]
2000b8b4:	e51b3010 	ldr	r3, [fp, #-16]
2000b8b8:	e2833001 	add	r3, r3, #1	; 0x1
2000b8bc:	e50b3010 	str	r3, [fp, #-16]
2000b8c0:	e3a00000 	mov	r0, #0	; 0x0
2000b8c4:	e59f3034 	ldr	r3, [pc, #52]	; 2000b900 <parse_args+0xd4>
2000b8c8:	e51b2020 	ldr	r2, [fp, #-32]
2000b8cc:	e7923003 	ldr	r3, [r2, r3]
2000b8d0:	e1a01003 	mov	r1, r3
2000b8d4:	eb00139f 	bl	20010758 <strtok>
2000b8d8:	e1a03000 	mov	r3, r0
2000b8dc:	e50b3014 	str	r3, [fp, #-20]
2000b8e0:	e51b3014 	ldr	r3, [fp, #-20]
2000b8e4:	e3530000 	cmp	r3, #0	; 0x0
2000b8e8:	1affffeb 	bne	2000b89c <parse_args+0x70>
2000b8ec:	e51b3010 	ldr	r3, [fp, #-16]
2000b8f0:	e1a00003 	mov	r0, r3
2000b8f4:	e24bd00c 	sub	sp, fp, #12	; 0xc
2000b8f8:	e89da800 	ldm	sp, {fp, sp, pc}
2000b8fc:	00007d38 	.word	0x00007d38
2000b900:	0000000c 	.word	0x0000000c

2000b904 <skip_atoi>:
2000b904:	e1a0c00d 	mov	ip, sp
2000b908:	e92dd800 	push	{fp, ip, lr, pc}
2000b90c:	e24cb004 	sub	fp, ip, #4	; 0x4
2000b910:	e24dd010 	sub	sp, sp, #16	; 0x10
2000b914:	e59f108c 	ldr	r1, [pc, #140]	; 2000b9a8 <skip_atoi+0xa4>
2000b918:	e50b101c 	str	r1, [fp, #-28]
2000b91c:	e51b301c 	ldr	r3, [fp, #-28]
2000b920:	e08f3003 	add	r3, pc, r3
2000b924:	e50b301c 	str	r3, [fp, #-28]
2000b928:	e50b0018 	str	r0, [fp, #-24]
2000b92c:	e3a03000 	mov	r3, #0	; 0x0
2000b930:	e50b3010 	str	r3, [fp, #-16]
2000b934:	ea00000c 	b	2000b96c <skip_atoi+0x68>
2000b938:	e51b3010 	ldr	r3, [fp, #-16]
2000b93c:	e1a02083 	lsl	r2, r3, #1
2000b940:	e1a03102 	lsl	r3, r2, #2
2000b944:	e0822003 	add	r2, r2, r3
2000b948:	e51b3018 	ldr	r3, [fp, #-24]
2000b94c:	e5931000 	ldr	r1, [r3]
2000b950:	e5d13000 	ldrb	r3, [r1]
2000b954:	e0823003 	add	r3, r2, r3
2000b958:	e2433030 	sub	r3, r3, #48	; 0x30
2000b95c:	e50b3010 	str	r3, [fp, #-16]
2000b960:	e2812001 	add	r2, r1, #1	; 0x1
2000b964:	e51b3018 	ldr	r3, [fp, #-24]
2000b968:	e5832000 	str	r2, [r3]
2000b96c:	e51b3018 	ldr	r3, [fp, #-24]
2000b970:	e5933000 	ldr	r3, [r3]
2000b974:	e5d33000 	ldrb	r3, [r3]
2000b978:	e1a02003 	mov	r2, r3
2000b97c:	e59f3028 	ldr	r3, [pc, #40]	; 2000b9ac <skip_atoi+0xa8>
2000b980:	e51b101c 	ldr	r1, [fp, #-28]
2000b984:	e7913003 	ldr	r3, [r1, r3]
2000b988:	e7d33002 	ldrb	r3, [r3, r2]
2000b98c:	e2033004 	and	r3, r3, #4	; 0x4
2000b990:	e3530000 	cmp	r3, #0	; 0x0
2000b994:	1affffe7 	bne	2000b938 <skip_atoi+0x34>
2000b998:	e51b3010 	ldr	r3, [fp, #-16]
2000b99c:	e1a00003 	mov	r0, r3
2000b9a0:	e24bd00c 	sub	sp, fp, #12	; 0xc
2000b9a4:	e89da800 	ldm	sp, {fp, sp, pc}
2000b9a8:	00007c60 	.word	0x00007c60
2000b9ac:	0000006c 	.word	0x0000006c

2000b9b0 <number>:
2000b9b0:	e1a0c00d 	mov	ip, sp
2000b9b4:	e92dd830 	push	{r4, r5, fp, ip, lr, pc}
2000b9b8:	e24cb004 	sub	fp, ip, #4	; 0x4
2000b9bc:	e24dd0c0 	sub	sp, sp, #192	; 0xc0
2000b9c0:	e59f45c0 	ldr	r4, [pc, #1472]	; 2000bf88 <number+0x5d8>
2000b9c4:	e08f4004 	add	r4, pc, r4
2000b9c8:	e50b00b8 	str	r0, [fp, #-184]
2000b9cc:	e50b10bc 	str	r1, [fp, #-188]
2000b9d0:	e50b20c4 	str	r2, [fp, #-196]
2000b9d4:	e50b30c0 	str	r3, [fp, #-192]
2000b9d8:	e59f35ac 	ldr	r3, [pc, #1452]	; 2000bf8c <number+0x5dc>
2000b9dc:	e0843003 	add	r3, r4, r3
2000b9e0:	e24b2089 	sub	r2, fp, #137	; 0x89
2000b9e4:	e3a0c025 	mov	ip, #37	; 0x25
2000b9e8:	e1a00002 	mov	r0, r2
2000b9ec:	e1a01003 	mov	r1, r3
2000b9f0:	e1a0200c 	mov	r2, ip
2000b9f4:	eb001b29 	bl	200126a0 <memcpy>
2000b9f8:	e59f3590 	ldr	r3, [pc, #1424]	; 2000bf90 <number+0x5e0>
2000b9fc:	e0843003 	add	r3, r4, r3
2000ba00:	e24b20ae 	sub	r2, fp, #174	; 0xae
2000ba04:	e3a0c025 	mov	ip, #37	; 0x25
2000ba08:	e1a00002 	mov	r0, r2
2000ba0c:	e1a01003 	mov	r1, r3
2000ba10:	e1a0200c 	mov	r2, ip
2000ba14:	eb001b21 	bl	200126a0 <memcpy>
2000ba18:	e59b3010 	ldr	r3, [fp, #16]
2000ba1c:	e2033040 	and	r3, r3, #64	; 0x40
2000ba20:	e3530000 	cmp	r3, #0	; 0x0
2000ba24:	0a000002 	beq	2000ba34 <number+0x84>
2000ba28:	e24b00ae 	sub	r0, fp, #174	; 0xae
2000ba2c:	e50b00d0 	str	r0, [fp, #-208]
2000ba30:	ea000001 	b	2000ba3c <number+0x8c>
2000ba34:	e24b1089 	sub	r1, fp, #137	; 0x89
2000ba38:	e50b10d0 	str	r1, [fp, #-208]
2000ba3c:	e51b20d0 	ldr	r2, [fp, #-208]
2000ba40:	e50b2020 	str	r2, [fp, #-32]
2000ba44:	e59b3010 	ldr	r3, [fp, #16]
2000ba48:	e2033010 	and	r3, r3, #16	; 0x10
2000ba4c:	e3530000 	cmp	r3, #0	; 0x0
2000ba50:	0a000002 	beq	2000ba60 <number+0xb0>
2000ba54:	e59b3010 	ldr	r3, [fp, #16]
2000ba58:	e3c33001 	bic	r3, r3, #1	; 0x1
2000ba5c:	e58b3010 	str	r3, [fp, #16]
2000ba60:	e59b3004 	ldr	r3, [fp, #4]
2000ba64:	e3530001 	cmp	r3, #1	; 0x1
2000ba68:	da000002 	ble	2000ba78 <number+0xc8>
2000ba6c:	e59b3004 	ldr	r3, [fp, #4]
2000ba70:	e3530024 	cmp	r3, #36	; 0x24
2000ba74:	da000002 	ble	2000ba84 <number+0xd4>
2000ba78:	e3a03000 	mov	r3, #0	; 0x0
2000ba7c:	e50b30cc 	str	r3, [fp, #-204]
2000ba80:	ea00013c 	b	2000bf78 <number+0x5c8>
2000ba84:	e59b3010 	ldr	r3, [fp, #16]
2000ba88:	e2033001 	and	r3, r3, #1	; 0x1
2000ba8c:	e20330ff 	and	r3, r3, #255	; 0xff
2000ba90:	e3530000 	cmp	r3, #0	; 0x0
2000ba94:	0a000002 	beq	2000baa4 <number+0xf4>
2000ba98:	e3a00030 	mov	r0, #48	; 0x30
2000ba9c:	e50b00c8 	str	r0, [fp, #-200]
2000baa0:	ea000001 	b	2000baac <number+0xfc>
2000baa4:	e3a01020 	mov	r1, #32	; 0x20
2000baa8:	e50b10c8 	str	r1, [fp, #-200]
2000baac:	e51b20c8 	ldr	r2, [fp, #-200]
2000bab0:	e1a03002 	mov	r3, r2
2000bab4:	e54b3022 	strb	r3, [fp, #-34]
2000bab8:	e3a03000 	mov	r3, #0	; 0x0
2000babc:	e54b3021 	strb	r3, [fp, #-33]
2000bac0:	e59b3010 	ldr	r3, [fp, #16]
2000bac4:	e2033002 	and	r3, r3, #2	; 0x2
2000bac8:	e3530000 	cmp	r3, #0	; 0x0
2000bacc:	0a000027 	beq	2000bb70 <number+0x1c0>
2000bad0:	e51b30c0 	ldr	r3, [fp, #-192]
2000bad4:	e3530000 	cmp	r3, #0	; 0x0
2000bad8:	ba000005 	blt	2000baf4 <number+0x144>
2000badc:	e51b30c0 	ldr	r3, [fp, #-192]
2000bae0:	e3530000 	cmp	r3, #0	; 0x0
2000bae4:	1a00000e 	bne	2000bb24 <number+0x174>
2000bae8:	e51b30c4 	ldr	r3, [fp, #-196]
2000baec:	e3530000 	cmp	r3, #0	; 0x0
2000baf0:	ea00000b 	b	2000bb24 <number+0x174>
2000baf4:	e3a0302d 	mov	r3, #45	; 0x2d
2000baf8:	e54b3021 	strb	r3, [fp, #-33]
2000bafc:	e24b30c4 	sub	r3, fp, #196	; 0xc4
2000bb00:	e8930018 	ldm	r3, {r3, r4}
2000bb04:	e2733000 	rsbs	r3, r3, #0	; 0x0
2000bb08:	e2e44000 	rsc	r4, r4, #0	; 0x0
2000bb0c:	e50b30c4 	str	r3, [fp, #-196]
2000bb10:	e50b40c0 	str	r4, [fp, #-192]
2000bb14:	e59b3008 	ldr	r3, [fp, #8]
2000bb18:	e2433001 	sub	r3, r3, #1	; 0x1
2000bb1c:	e58b3008 	str	r3, [fp, #8]
2000bb20:	ea000012 	b	2000bb70 <number+0x1c0>
2000bb24:	e59b3010 	ldr	r3, [fp, #16]
2000bb28:	e2033004 	and	r3, r3, #4	; 0x4
2000bb2c:	e3530000 	cmp	r3, #0	; 0x0
2000bb30:	0a000005 	beq	2000bb4c <number+0x19c>
2000bb34:	e3a0302b 	mov	r3, #43	; 0x2b
2000bb38:	e54b3021 	strb	r3, [fp, #-33]
2000bb3c:	e59b3008 	ldr	r3, [fp, #8]
2000bb40:	e2433001 	sub	r3, r3, #1	; 0x1
2000bb44:	e58b3008 	str	r3, [fp, #8]
2000bb48:	ea000008 	b	2000bb70 <number+0x1c0>
2000bb4c:	e59b3010 	ldr	r3, [fp, #16]
2000bb50:	e2033008 	and	r3, r3, #8	; 0x8
2000bb54:	e3530000 	cmp	r3, #0	; 0x0
2000bb58:	0a000004 	beq	2000bb70 <number+0x1c0>
2000bb5c:	e3a03020 	mov	r3, #32	; 0x20
2000bb60:	e54b3021 	strb	r3, [fp, #-33]
2000bb64:	e59b3008 	ldr	r3, [fp, #8]
2000bb68:	e2433001 	sub	r3, r3, #1	; 0x1
2000bb6c:	e58b3008 	str	r3, [fp, #8]
2000bb70:	e59b3010 	ldr	r3, [fp, #16]
2000bb74:	e2033020 	and	r3, r3, #32	; 0x20
2000bb78:	e3530000 	cmp	r3, #0	; 0x0
2000bb7c:	0a00000c 	beq	2000bbb4 <number+0x204>
2000bb80:	e59b3004 	ldr	r3, [fp, #4]
2000bb84:	e3530010 	cmp	r3, #16	; 0x10
2000bb88:	1a000003 	bne	2000bb9c <number+0x1ec>
2000bb8c:	e59b3008 	ldr	r3, [fp, #8]
2000bb90:	e2433002 	sub	r3, r3, #2	; 0x2
2000bb94:	e58b3008 	str	r3, [fp, #8]
2000bb98:	ea000005 	b	2000bbb4 <number+0x204>
2000bb9c:	e59b3004 	ldr	r3, [fp, #4]
2000bba0:	e3530008 	cmp	r3, #8	; 0x8
2000bba4:	1a000002 	bne	2000bbb4 <number+0x204>
2000bba8:	e59b3008 	ldr	r3, [fp, #8]
2000bbac:	e2433001 	sub	r3, r3, #1	; 0x1
2000bbb0:	e58b3008 	str	r3, [fp, #8]
2000bbb4:	e3a03000 	mov	r3, #0	; 0x0
2000bbb8:	e50b301c 	str	r3, [fp, #-28]
2000bbbc:	e51b30c4 	ldr	r3, [fp, #-196]
2000bbc0:	e51b20c0 	ldr	r2, [fp, #-192]
2000bbc4:	e1833002 	orr	r3, r3, r2
2000bbc8:	e3530000 	cmp	r3, #0	; 0x0
2000bbcc:	1a000029 	bne	2000bc78 <number+0x2c8>
2000bbd0:	e51b301c 	ldr	r3, [fp, #-28]
2000bbd4:	e3e0204f 	mvn	r2, #79	; 0x4f
2000bbd8:	e24b0014 	sub	r0, fp, #20	; 0x14
2000bbdc:	e0803003 	add	r3, r0, r3
2000bbe0:	e0832002 	add	r2, r3, r2
2000bbe4:	e3a03030 	mov	r3, #48	; 0x30
2000bbe8:	e5c23000 	strb	r3, [r2]
2000bbec:	e51b301c 	ldr	r3, [fp, #-28]
2000bbf0:	e2833001 	add	r3, r3, #1	; 0x1
2000bbf4:	e50b301c 	str	r3, [fp, #-28]
2000bbf8:	ea000023 	b	2000bc8c <number+0x2dc>
2000bbfc:	e51b501c 	ldr	r5, [fp, #-28]
2000bc00:	e51b30c4 	ldr	r3, [fp, #-196]
2000bc04:	e59b2004 	ldr	r2, [fp, #4]
2000bc08:	e1a00003 	mov	r0, r3
2000bc0c:	e1a01002 	mov	r1, r2
2000bc10:	eb001a38 	bl	200124f8 <__aeabi_uidivmod>
2000bc14:	e1a03001 	mov	r3, r1
2000bc18:	e50b3018 	str	r3, [fp, #-24]
2000bc1c:	e51b30c4 	ldr	r3, [fp, #-196]
2000bc20:	e59b2004 	ldr	r2, [fp, #4]
2000bc24:	e1a00003 	mov	r0, r3
2000bc28:	e1a01002 	mov	r1, r2
2000bc2c:	eb001a06 	bl	2001244c <__aeabi_uidiv>
2000bc30:	e1a03000 	mov	r3, r0
2000bc34:	e3a04000 	mov	r4, #0	; 0x0
2000bc38:	e50b30c4 	str	r3, [fp, #-196]
2000bc3c:	e50b40c0 	str	r4, [fp, #-192]
2000bc40:	e51b3018 	ldr	r3, [fp, #-24]
2000bc44:	e1a02003 	mov	r2, r3
2000bc48:	e51b3020 	ldr	r3, [fp, #-32]
2000bc4c:	e0833002 	add	r3, r3, r2
2000bc50:	e5d31000 	ldrb	r1, [r3]
2000bc54:	e3e0204f 	mvn	r2, #79	; 0x4f
2000bc58:	e24b0014 	sub	r0, fp, #20	; 0x14
2000bc5c:	e0803005 	add	r3, r0, r5
2000bc60:	e0832002 	add	r2, r3, r2
2000bc64:	e1a03001 	mov	r3, r1
2000bc68:	e5c23000 	strb	r3, [r2]
2000bc6c:	e51b301c 	ldr	r3, [fp, #-28]
2000bc70:	e2833001 	add	r3, r3, #1	; 0x1
2000bc74:	e50b301c 	str	r3, [fp, #-28]
2000bc78:	e51b30c4 	ldr	r3, [fp, #-196]
2000bc7c:	e51b20c0 	ldr	r2, [fp, #-192]
2000bc80:	e1833002 	orr	r3, r3, r2
2000bc84:	e3530000 	cmp	r3, #0	; 0x0
2000bc88:	1affffdb 	bne	2000bbfc <number+0x24c>
2000bc8c:	e51b201c 	ldr	r2, [fp, #-28]
2000bc90:	e59b300c 	ldr	r3, [fp, #12]
2000bc94:	e1520003 	cmp	r2, r3
2000bc98:	da000001 	ble	2000bca4 <number+0x2f4>
2000bc9c:	e51b301c 	ldr	r3, [fp, #-28]
2000bca0:	e58b300c 	str	r3, [fp, #12]
2000bca4:	e59b2008 	ldr	r2, [fp, #8]
2000bca8:	e59b300c 	ldr	r3, [fp, #12]
2000bcac:	e0633002 	rsb	r3, r3, r2
2000bcb0:	e58b3008 	str	r3, [fp, #8]
2000bcb4:	e59b3010 	ldr	r3, [fp, #16]
2000bcb8:	e2033011 	and	r3, r3, #17	; 0x11
2000bcbc:	e3530000 	cmp	r3, #0	; 0x0
2000bcc0:	1a000014 	bne	2000bd18 <number+0x368>
2000bcc4:	ea000009 	b	2000bcf0 <number+0x340>
2000bcc8:	e51b20b8 	ldr	r2, [fp, #-184]
2000bccc:	e51b30bc 	ldr	r3, [fp, #-188]
2000bcd0:	e1520003 	cmp	r2, r3
2000bcd4:	8a000002 	bhi	2000bce4 <number+0x334>
2000bcd8:	e51b30b8 	ldr	r3, [fp, #-184]
2000bcdc:	e3a02020 	mov	r2, #32	; 0x20
2000bce0:	e5c32000 	strb	r2, [r3]
2000bce4:	e51b30b8 	ldr	r3, [fp, #-184]
2000bce8:	e2833001 	add	r3, r3, #1	; 0x1
2000bcec:	e50b30b8 	str	r3, [fp, #-184]
2000bcf0:	e59b3008 	ldr	r3, [fp, #8]
2000bcf4:	e3530000 	cmp	r3, #0	; 0x0
2000bcf8:	d3a03000 	movle	r3, #0	; 0x0
2000bcfc:	c3a03001 	movgt	r3, #1	; 0x1
2000bd00:	e20320ff 	and	r2, r3, #255	; 0xff
2000bd04:	e59b3008 	ldr	r3, [fp, #8]
2000bd08:	e2433001 	sub	r3, r3, #1	; 0x1
2000bd0c:	e58b3008 	str	r3, [fp, #8]
2000bd10:	e3520000 	cmp	r2, #0	; 0x0
2000bd14:	1affffeb 	bne	2000bcc8 <number+0x318>
2000bd18:	e55b3021 	ldrb	r3, [fp, #-33]
2000bd1c:	e3530000 	cmp	r3, #0	; 0x0
2000bd20:	0a000009 	beq	2000bd4c <number+0x39c>
2000bd24:	e51b20b8 	ldr	r2, [fp, #-184]
2000bd28:	e51b30bc 	ldr	r3, [fp, #-188]
2000bd2c:	e1520003 	cmp	r2, r3
2000bd30:	8a000002 	bhi	2000bd40 <number+0x390>
2000bd34:	e51b20b8 	ldr	r2, [fp, #-184]
2000bd38:	e55b3021 	ldrb	r3, [fp, #-33]
2000bd3c:	e5c23000 	strb	r3, [r2]
2000bd40:	e51b30b8 	ldr	r3, [fp, #-184]
2000bd44:	e2833001 	add	r3, r3, #1	; 0x1
2000bd48:	e50b30b8 	str	r3, [fp, #-184]
2000bd4c:	e59b3010 	ldr	r3, [fp, #16]
2000bd50:	e2033020 	and	r3, r3, #32	; 0x20
2000bd54:	e3530000 	cmp	r3, #0	; 0x0
2000bd58:	0a000026 	beq	2000bdf8 <number+0x448>
2000bd5c:	e59b3004 	ldr	r3, [fp, #4]
2000bd60:	e3530008 	cmp	r3, #8	; 0x8
2000bd64:	1a00000a 	bne	2000bd94 <number+0x3e4>
2000bd68:	e51b20b8 	ldr	r2, [fp, #-184]
2000bd6c:	e51b30bc 	ldr	r3, [fp, #-188]
2000bd70:	e1520003 	cmp	r2, r3
2000bd74:	8a000002 	bhi	2000bd84 <number+0x3d4>
2000bd78:	e51b30b8 	ldr	r3, [fp, #-184]
2000bd7c:	e3a02030 	mov	r2, #48	; 0x30
2000bd80:	e5c32000 	strb	r2, [r3]
2000bd84:	e51b30b8 	ldr	r3, [fp, #-184]
2000bd88:	e2833001 	add	r3, r3, #1	; 0x1
2000bd8c:	e50b30b8 	str	r3, [fp, #-184]
2000bd90:	ea000018 	b	2000bdf8 <number+0x448>
2000bd94:	e59b3004 	ldr	r3, [fp, #4]
2000bd98:	e3530010 	cmp	r3, #16	; 0x10
2000bd9c:	1a000015 	bne	2000bdf8 <number+0x448>
2000bda0:	e51b20b8 	ldr	r2, [fp, #-184]
2000bda4:	e51b30bc 	ldr	r3, [fp, #-188]
2000bda8:	e1520003 	cmp	r2, r3
2000bdac:	8a000002 	bhi	2000bdbc <number+0x40c>
2000bdb0:	e51b30b8 	ldr	r3, [fp, #-184]
2000bdb4:	e3a02030 	mov	r2, #48	; 0x30
2000bdb8:	e5c32000 	strb	r2, [r3]
2000bdbc:	e51b30b8 	ldr	r3, [fp, #-184]
2000bdc0:	e2833001 	add	r3, r3, #1	; 0x1
2000bdc4:	e50b30b8 	str	r3, [fp, #-184]
2000bdc8:	e51b20b8 	ldr	r2, [fp, #-184]
2000bdcc:	e51b30bc 	ldr	r3, [fp, #-188]
2000bdd0:	e1520003 	cmp	r2, r3
2000bdd4:	8a000004 	bhi	2000bdec <number+0x43c>
2000bdd8:	e51b3020 	ldr	r3, [fp, #-32]
2000bddc:	e2833021 	add	r3, r3, #33	; 0x21
2000bde0:	e5d33000 	ldrb	r3, [r3]
2000bde4:	e51b20b8 	ldr	r2, [fp, #-184]
2000bde8:	e5c23000 	strb	r3, [r2]
2000bdec:	e51b30b8 	ldr	r3, [fp, #-184]
2000bdf0:	e2833001 	add	r3, r3, #1	; 0x1
2000bdf4:	e50b30b8 	str	r3, [fp, #-184]
2000bdf8:	e59b3010 	ldr	r3, [fp, #16]
2000bdfc:	e2033010 	and	r3, r3, #16	; 0x10
2000be00:	e3530000 	cmp	r3, #0	; 0x0
2000be04:	1a00001f 	bne	2000be88 <number+0x4d8>
2000be08:	ea000009 	b	2000be34 <number+0x484>
2000be0c:	e51b20b8 	ldr	r2, [fp, #-184]
2000be10:	e51b30bc 	ldr	r3, [fp, #-188]
2000be14:	e1520003 	cmp	r2, r3
2000be18:	8a000002 	bhi	2000be28 <number+0x478>
2000be1c:	e51b20b8 	ldr	r2, [fp, #-184]
2000be20:	e55b3022 	ldrb	r3, [fp, #-34]
2000be24:	e5c23000 	strb	r3, [r2]
2000be28:	e51b30b8 	ldr	r3, [fp, #-184]
2000be2c:	e2833001 	add	r3, r3, #1	; 0x1
2000be30:	e50b30b8 	str	r3, [fp, #-184]
2000be34:	e59b3008 	ldr	r3, [fp, #8]
2000be38:	e3530000 	cmp	r3, #0	; 0x0
2000be3c:	d3a03000 	movle	r3, #0	; 0x0
2000be40:	c3a03001 	movgt	r3, #1	; 0x1
2000be44:	e20320ff 	and	r2, r3, #255	; 0xff
2000be48:	e59b3008 	ldr	r3, [fp, #8]
2000be4c:	e2433001 	sub	r3, r3, #1	; 0x1
2000be50:	e58b3008 	str	r3, [fp, #8]
2000be54:	e3520000 	cmp	r2, #0	; 0x0
2000be58:	1affffeb 	bne	2000be0c <number+0x45c>
2000be5c:	ea000009 	b	2000be88 <number+0x4d8>
2000be60:	e51b20b8 	ldr	r2, [fp, #-184]
2000be64:	e51b30bc 	ldr	r3, [fp, #-188]
2000be68:	e1520003 	cmp	r2, r3
2000be6c:	8a000002 	bhi	2000be7c <number+0x4cc>
2000be70:	e51b30b8 	ldr	r3, [fp, #-184]
2000be74:	e3a02030 	mov	r2, #48	; 0x30
2000be78:	e5c32000 	strb	r2, [r3]
2000be7c:	e51b30b8 	ldr	r3, [fp, #-184]
2000be80:	e2833001 	add	r3, r3, #1	; 0x1
2000be84:	e50b30b8 	str	r3, [fp, #-184]
2000be88:	e59b200c 	ldr	r2, [fp, #12]
2000be8c:	e51b301c 	ldr	r3, [fp, #-28]
2000be90:	e1520003 	cmp	r2, r3
2000be94:	d3a03000 	movle	r3, #0	; 0x0
2000be98:	c3a03001 	movgt	r3, #1	; 0x1
2000be9c:	e20320ff 	and	r2, r3, #255	; 0xff
2000bea0:	e59b300c 	ldr	r3, [fp, #12]
2000bea4:	e2433001 	sub	r3, r3, #1	; 0x1
2000bea8:	e58b300c 	str	r3, [fp, #12]
2000beac:	e3520000 	cmp	r2, #0	; 0x0
2000beb0:	1affffea 	bne	2000be60 <number+0x4b0>
2000beb4:	ea00000e 	b	2000bef4 <number+0x544>
2000beb8:	e51b20b8 	ldr	r2, [fp, #-184]
2000bebc:	e51b30bc 	ldr	r3, [fp, #-188]
2000bec0:	e1520003 	cmp	r2, r3
2000bec4:	8a000007 	bhi	2000bee8 <number+0x538>
2000bec8:	e51b301c 	ldr	r3, [fp, #-28]
2000becc:	e3e0204f 	mvn	r2, #79	; 0x4f
2000bed0:	e24b1014 	sub	r1, fp, #20	; 0x14
2000bed4:	e0813003 	add	r3, r1, r3
2000bed8:	e0833002 	add	r3, r3, r2
2000bedc:	e5d33000 	ldrb	r3, [r3]
2000bee0:	e51b20b8 	ldr	r2, [fp, #-184]
2000bee4:	e5c23000 	strb	r3, [r2]
2000bee8:	e51b30b8 	ldr	r3, [fp, #-184]
2000beec:	e2833001 	add	r3, r3, #1	; 0x1
2000bef0:	e50b30b8 	str	r3, [fp, #-184]
2000bef4:	e51b301c 	ldr	r3, [fp, #-28]
2000bef8:	e3530000 	cmp	r3, #0	; 0x0
2000befc:	d3a03000 	movle	r3, #0	; 0x0
2000bf00:	c3a03001 	movgt	r3, #1	; 0x1
2000bf04:	e20320ff 	and	r2, r3, #255	; 0xff
2000bf08:	e51b301c 	ldr	r3, [fp, #-28]
2000bf0c:	e2433001 	sub	r3, r3, #1	; 0x1
2000bf10:	e50b301c 	str	r3, [fp, #-28]
2000bf14:	e3520000 	cmp	r2, #0	; 0x0
2000bf18:	1affffe6 	bne	2000beb8 <number+0x508>
2000bf1c:	ea000009 	b	2000bf48 <number+0x598>
2000bf20:	e51b20b8 	ldr	r2, [fp, #-184]
2000bf24:	e51b30bc 	ldr	r3, [fp, #-188]
2000bf28:	e1520003 	cmp	r2, r3
2000bf2c:	8a000002 	bhi	2000bf3c <number+0x58c>
2000bf30:	e51b30b8 	ldr	r3, [fp, #-184]
2000bf34:	e3a02020 	mov	r2, #32	; 0x20
2000bf38:	e5c32000 	strb	r2, [r3]
2000bf3c:	e51b30b8 	ldr	r3, [fp, #-184]
2000bf40:	e2833001 	add	r3, r3, #1	; 0x1
2000bf44:	e50b30b8 	str	r3, [fp, #-184]
2000bf48:	e59b3008 	ldr	r3, [fp, #8]
2000bf4c:	e3530000 	cmp	r3, #0	; 0x0
2000bf50:	d3a03000 	movle	r3, #0	; 0x0
2000bf54:	c3a03001 	movgt	r3, #1	; 0x1
2000bf58:	e20320ff 	and	r2, r3, #255	; 0xff
2000bf5c:	e59b3008 	ldr	r3, [fp, #8]
2000bf60:	e2433001 	sub	r3, r3, #1	; 0x1
2000bf64:	e58b3008 	str	r3, [fp, #8]
2000bf68:	e3520000 	cmp	r2, #0	; 0x0
2000bf6c:	1affffeb 	bne	2000bf20 <number+0x570>
2000bf70:	e51b20b8 	ldr	r2, [fp, #-184]
2000bf74:	e50b20cc 	str	r2, [fp, #-204]
2000bf78:	e51b30cc 	ldr	r3, [fp, #-204]
2000bf7c:	e1a00003 	mov	r0, r3
2000bf80:	e24bd014 	sub	sp, fp, #20	; 0x14
2000bf84:	e89da830 	ldm	sp, {r4, r5, fp, sp, pc}
2000bf88:	00007bbc 	.word	0x00007bbc
2000bf8c:	fffff980 	.word	0xfffff980
2000bf90:	fffff9a8 	.word	0xfffff9a8

2000bf94 <vsnprintf>:
2000bf94:	e1a0c00d 	mov	ip, sp
2000bf98:	e92dd830 	push	{r4, r5, fp, ip, lr, pc}
2000bf9c:	e24cb004 	sub	fp, ip, #4	; 0x4
2000bfa0:	e24dd070 	sub	sp, sp, #112	; 0x70
2000bfa4:	e59fcb44 	ldr	ip, [pc, #2884]	; 2000caf0 <vsnprintf+0xb5c>
2000bfa8:	e50bc070 	str	ip, [fp, #-112]
2000bfac:	e51bc070 	ldr	ip, [fp, #-112]
2000bfb0:	e08fc00c 	add	ip, pc, ip
2000bfb4:	e50bc070 	str	ip, [fp, #-112]
2000bfb8:	e50b0060 	str	r0, [fp, #-96]
2000bfbc:	e50b1064 	str	r1, [fp, #-100]
2000bfc0:	e50b2068 	str	r2, [fp, #-104]
2000bfc4:	e50b306c 	str	r3, [fp, #-108]
2000bfc8:	e51b3060 	ldr	r3, [fp, #-96]
2000bfcc:	e50b3040 	str	r3, [fp, #-64]
2000bfd0:	e51b3064 	ldr	r3, [fp, #-100]
2000bfd4:	e2432001 	sub	r2, r3, #1	; 0x1
2000bfd8:	e51b3060 	ldr	r3, [fp, #-96]
2000bfdc:	e0833002 	add	r3, r3, r2
2000bfe0:	e50b303c 	str	r3, [fp, #-60]
2000bfe4:	e51b3060 	ldr	r3, [fp, #-96]
2000bfe8:	e2432001 	sub	r2, r3, #1	; 0x1
2000bfec:	e51b303c 	ldr	r3, [fp, #-60]
2000bff0:	e1520003 	cmp	r2, r3
2000bff4:	9a0002a5 	bls	2000ca90 <vsnprintf+0xafc>
2000bff8:	e3e03000 	mvn	r3, #0	; 0x0
2000bffc:	e50b303c 	str	r3, [fp, #-60]
2000c000:	e51b203c 	ldr	r2, [fp, #-60]
2000c004:	e51b3060 	ldr	r3, [fp, #-96]
2000c008:	e0633002 	rsb	r3, r3, r2
2000c00c:	e2833001 	add	r3, r3, #1	; 0x1
2000c010:	e50b3064 	str	r3, [fp, #-100]
2000c014:	ea00029d 	b	2000ca90 <vsnprintf+0xafc>
2000c018:	e51b3068 	ldr	r3, [fp, #-104]
2000c01c:	e5d33000 	ldrb	r3, [r3]
2000c020:	e3530025 	cmp	r3, #37	; 0x25
2000c024:	0a00000b 	beq	2000c058 <vsnprintf+0xc4>
2000c028:	e51b2040 	ldr	r2, [fp, #-64]
2000c02c:	e51b303c 	ldr	r3, [fp, #-60]
2000c030:	e1520003 	cmp	r2, r3
2000c034:	8a000003 	bhi	2000c048 <vsnprintf+0xb4>
2000c038:	e51b3068 	ldr	r3, [fp, #-104]
2000c03c:	e5d33000 	ldrb	r3, [r3]
2000c040:	e51b2040 	ldr	r2, [fp, #-64]
2000c044:	e5c23000 	strb	r3, [r2]
2000c048:	e51b3040 	ldr	r3, [fp, #-64]
2000c04c:	e2833001 	add	r3, r3, #1	; 0x1
2000c050:	e50b3040 	str	r3, [fp, #-64]
2000c054:	ea00028a 	b	2000ca84 <vsnprintf+0xaf0>
2000c058:	e3a03000 	mov	r3, #0	; 0x0
2000c05c:	e50b3030 	str	r3, [fp, #-48]
2000c060:	e51b3068 	ldr	r3, [fp, #-104]
2000c064:	e2833001 	add	r3, r3, #1	; 0x1
2000c068:	e50b3068 	str	r3, [fp, #-104]
2000c06c:	e51b3068 	ldr	r3, [fp, #-104]
2000c070:	e5d33000 	ldrb	r3, [r3]
2000c074:	e2433020 	sub	r3, r3, #32	; 0x20
2000c078:	e3530010 	cmp	r3, #16	; 0x10
2000c07c:	908ff103 	addls	pc, pc, r3, lsl #2
2000c080:	ea000024 	b	2000c118 <vsnprintf+0x184>
2000c084:	ea000017 	b	2000c0e8 <vsnprintf+0x154>
2000c088:	ea000022 	b	2000c118 <vsnprintf+0x184>
2000c08c:	ea000021 	b	2000c118 <vsnprintf+0x184>
2000c090:	ea000018 	b	2000c0f8 <vsnprintf+0x164>
2000c094:	ea00001f 	b	2000c118 <vsnprintf+0x184>
2000c098:	ea00001e 	b	2000c118 <vsnprintf+0x184>
2000c09c:	ea00001d 	b	2000c118 <vsnprintf+0x184>
2000c0a0:	ea00001c 	b	2000c118 <vsnprintf+0x184>
2000c0a4:	ea00001b 	b	2000c118 <vsnprintf+0x184>
2000c0a8:	ea00001a 	b	2000c118 <vsnprintf+0x184>
2000c0ac:	ea000019 	b	2000c118 <vsnprintf+0x184>
2000c0b0:	ea000008 	b	2000c0d8 <vsnprintf+0x144>
2000c0b4:	ea000017 	b	2000c118 <vsnprintf+0x184>
2000c0b8:	ea000002 	b	2000c0c8 <vsnprintf+0x134>
2000c0bc:	ea000015 	b	2000c118 <vsnprintf+0x184>
2000c0c0:	ea000014 	b	2000c118 <vsnprintf+0x184>
2000c0c4:	ea00000f 	b	2000c108 <vsnprintf+0x174>
2000c0c8:	e51b3030 	ldr	r3, [fp, #-48]
2000c0cc:	e3833010 	orr	r3, r3, #16	; 0x10
2000c0d0:	e50b3030 	str	r3, [fp, #-48]
2000c0d4:	eaffffe1 	b	2000c060 <vsnprintf+0xcc>
2000c0d8:	e51b3030 	ldr	r3, [fp, #-48]
2000c0dc:	e3833004 	orr	r3, r3, #4	; 0x4
2000c0e0:	e50b3030 	str	r3, [fp, #-48]
2000c0e4:	eaffffdd 	b	2000c060 <vsnprintf+0xcc>
2000c0e8:	e51b3030 	ldr	r3, [fp, #-48]
2000c0ec:	e3833008 	orr	r3, r3, #8	; 0x8
2000c0f0:	e50b3030 	str	r3, [fp, #-48]
2000c0f4:	eaffffd9 	b	2000c060 <vsnprintf+0xcc>
2000c0f8:	e51b3030 	ldr	r3, [fp, #-48]
2000c0fc:	e3833020 	orr	r3, r3, #32	; 0x20
2000c100:	e50b3030 	str	r3, [fp, #-48]
2000c104:	eaffffd5 	b	2000c060 <vsnprintf+0xcc>
2000c108:	e51b3030 	ldr	r3, [fp, #-48]
2000c10c:	e3833001 	orr	r3, r3, #1	; 0x1
2000c110:	e50b3030 	str	r3, [fp, #-48]
2000c114:	eaffffd1 	b	2000c060 <vsnprintf+0xcc>
2000c118:	e3e03000 	mvn	r3, #0	; 0x0
2000c11c:	e50b302c 	str	r3, [fp, #-44]
2000c120:	e51b3068 	ldr	r3, [fp, #-104]
2000c124:	e5d33000 	ldrb	r3, [r3]
2000c128:	e1a02003 	mov	r2, r3
2000c12c:	e59f39c0 	ldr	r3, [pc, #2496]	; 2000caf4 <vsnprintf+0xb60>
2000c130:	e51b1070 	ldr	r1, [fp, #-112]
2000c134:	e7913003 	ldr	r3, [r1, r3]
2000c138:	e7d33002 	ldrb	r3, [r3, r2]
2000c13c:	e2033004 	and	r3, r3, #4	; 0x4
2000c140:	e3530000 	cmp	r3, #0	; 0x0
2000c144:	0a000005 	beq	2000c160 <vsnprintf+0x1cc>
2000c148:	e24b3068 	sub	r3, fp, #104	; 0x68
2000c14c:	e1a00003 	mov	r0, r3
2000c150:	ebfffdeb 	bl	2000b904 <skip_atoi>
2000c154:	e1a03000 	mov	r3, r0
2000c158:	e50b302c 	str	r3, [fp, #-44]
2000c15c:	ea000016 	b	2000c1bc <vsnprintf+0x228>
2000c160:	e51b3068 	ldr	r3, [fp, #-104]
2000c164:	e5d33000 	ldrb	r3, [r3]
2000c168:	e353002a 	cmp	r3, #42	; 0x2a
2000c16c:	1a000012 	bne	2000c1bc <vsnprintf+0x228>
2000c170:	e51b3068 	ldr	r3, [fp, #-104]
2000c174:	e2833001 	add	r3, r3, #1	; 0x1
2000c178:	e50b3068 	str	r3, [fp, #-104]
2000c17c:	e51b306c 	ldr	r3, [fp, #-108]
2000c180:	e2833004 	add	r3, r3, #4	; 0x4
2000c184:	e50b306c 	str	r3, [fp, #-108]
2000c188:	e51b306c 	ldr	r3, [fp, #-108]
2000c18c:	e2433004 	sub	r3, r3, #4	; 0x4
2000c190:	e5933000 	ldr	r3, [r3]
2000c194:	e50b302c 	str	r3, [fp, #-44]
2000c198:	e51b302c 	ldr	r3, [fp, #-44]
2000c19c:	e3530000 	cmp	r3, #0	; 0x0
2000c1a0:	aa000005 	bge	2000c1bc <vsnprintf+0x228>
2000c1a4:	e51b302c 	ldr	r3, [fp, #-44]
2000c1a8:	e2633000 	rsb	r3, r3, #0	; 0x0
2000c1ac:	e50b302c 	str	r3, [fp, #-44]
2000c1b0:	e51b3030 	ldr	r3, [fp, #-48]
2000c1b4:	e3833010 	orr	r3, r3, #16	; 0x10
2000c1b8:	e50b3030 	str	r3, [fp, #-48]
2000c1bc:	e3e03000 	mvn	r3, #0	; 0x0
2000c1c0:	e50b3028 	str	r3, [fp, #-40]
2000c1c4:	e51b3068 	ldr	r3, [fp, #-104]
2000c1c8:	e5d33000 	ldrb	r3, [r3]
2000c1cc:	e353002e 	cmp	r3, #46	; 0x2e
2000c1d0:	1a000025 	bne	2000c26c <vsnprintf+0x2d8>
2000c1d4:	e51b3068 	ldr	r3, [fp, #-104]
2000c1d8:	e2833001 	add	r3, r3, #1	; 0x1
2000c1dc:	e50b3068 	str	r3, [fp, #-104]
2000c1e0:	e51b3068 	ldr	r3, [fp, #-104]
2000c1e4:	e5d33000 	ldrb	r3, [r3]
2000c1e8:	e1a02003 	mov	r2, r3
2000c1ec:	e59f3900 	ldr	r3, [pc, #2304]	; 2000caf4 <vsnprintf+0xb60>
2000c1f0:	e51bc070 	ldr	ip, [fp, #-112]
2000c1f4:	e79c3003 	ldr	r3, [ip, r3]
2000c1f8:	e7d33002 	ldrb	r3, [r3, r2]
2000c1fc:	e2033004 	and	r3, r3, #4	; 0x4
2000c200:	e3530000 	cmp	r3, #0	; 0x0
2000c204:	0a000005 	beq	2000c220 <vsnprintf+0x28c>
2000c208:	e24b3068 	sub	r3, fp, #104	; 0x68
2000c20c:	e1a00003 	mov	r0, r3
2000c210:	ebfffdbb 	bl	2000b904 <skip_atoi>
2000c214:	e1a03000 	mov	r3, r0
2000c218:	e50b3028 	str	r3, [fp, #-40]
2000c21c:	ea00000d 	b	2000c258 <vsnprintf+0x2c4>
2000c220:	e51b3068 	ldr	r3, [fp, #-104]
2000c224:	e5d33000 	ldrb	r3, [r3]
2000c228:	e353002a 	cmp	r3, #42	; 0x2a
2000c22c:	1a000009 	bne	2000c258 <vsnprintf+0x2c4>
2000c230:	e51b3068 	ldr	r3, [fp, #-104]
2000c234:	e2833001 	add	r3, r3, #1	; 0x1
2000c238:	e50b3068 	str	r3, [fp, #-104]
2000c23c:	e51b306c 	ldr	r3, [fp, #-108]
2000c240:	e2833004 	add	r3, r3, #4	; 0x4
2000c244:	e50b306c 	str	r3, [fp, #-108]
2000c248:	e51b306c 	ldr	r3, [fp, #-108]
2000c24c:	e2433004 	sub	r3, r3, #4	; 0x4
2000c250:	e5933000 	ldr	r3, [r3]
2000c254:	e50b3028 	str	r3, [fp, #-40]
2000c258:	e51b3028 	ldr	r3, [fp, #-40]
2000c25c:	e3530000 	cmp	r3, #0	; 0x0
2000c260:	aa000001 	bge	2000c26c <vsnprintf+0x2d8>
2000c264:	e3a03000 	mov	r3, #0	; 0x0
2000c268:	e50b3028 	str	r3, [fp, #-40]
2000c26c:	e3e03000 	mvn	r3, #0	; 0x0
2000c270:	e50b3024 	str	r3, [fp, #-36]
2000c274:	e51b3068 	ldr	r3, [fp, #-104]
2000c278:	e5d33000 	ldrb	r3, [r3]
2000c27c:	e3530068 	cmp	r3, #104	; 0x68
2000c280:	0a00000b 	beq	2000c2b4 <vsnprintf+0x320>
2000c284:	e51b3068 	ldr	r3, [fp, #-104]
2000c288:	e5d33000 	ldrb	r3, [r3]
2000c28c:	e353006c 	cmp	r3, #108	; 0x6c
2000c290:	0a000007 	beq	2000c2b4 <vsnprintf+0x320>
2000c294:	e51b3068 	ldr	r3, [fp, #-104]
2000c298:	e5d33000 	ldrb	r3, [r3]
2000c29c:	e353004c 	cmp	r3, #76	; 0x4c
2000c2a0:	0a000003 	beq	2000c2b4 <vsnprintf+0x320>
2000c2a4:	e51b3068 	ldr	r3, [fp, #-104]
2000c2a8:	e5d33000 	ldrb	r3, [r3]
2000c2ac:	e353005a 	cmp	r3, #90	; 0x5a
2000c2b0:	1a000011 	bne	2000c2fc <vsnprintf+0x368>
2000c2b4:	e51b3068 	ldr	r3, [fp, #-104]
2000c2b8:	e5d33000 	ldrb	r3, [r3]
2000c2bc:	e50b3024 	str	r3, [fp, #-36]
2000c2c0:	e51b3068 	ldr	r3, [fp, #-104]
2000c2c4:	e2833001 	add	r3, r3, #1	; 0x1
2000c2c8:	e50b3068 	str	r3, [fp, #-104]
2000c2cc:	e51b3024 	ldr	r3, [fp, #-36]
2000c2d0:	e353006c 	cmp	r3, #108	; 0x6c
2000c2d4:	1a000008 	bne	2000c2fc <vsnprintf+0x368>
2000c2d8:	e51b3068 	ldr	r3, [fp, #-104]
2000c2dc:	e5d33000 	ldrb	r3, [r3]
2000c2e0:	e353006c 	cmp	r3, #108	; 0x6c
2000c2e4:	1a000004 	bne	2000c2fc <vsnprintf+0x368>
2000c2e8:	e3a0304c 	mov	r3, #76	; 0x4c
2000c2ec:	e50b3024 	str	r3, [fp, #-36]
2000c2f0:	e51b3068 	ldr	r3, [fp, #-104]
2000c2f4:	e2833001 	add	r3, r3, #1	; 0x1
2000c2f8:	e50b3068 	str	r3, [fp, #-104]
2000c2fc:	e3a0300a 	mov	r3, #10	; 0xa
2000c300:	e50b3044 	str	r3, [fp, #-68]
2000c304:	e51b3068 	ldr	r3, [fp, #-104]
2000c308:	e5d33000 	ldrb	r3, [r3]
2000c30c:	e2433025 	sub	r3, r3, #37	; 0x25
2000c310:	e3530053 	cmp	r3, #83	; 0x53
2000c314:	908ff103 	addls	pc, pc, r3, lsl #2
2000c318:	ea00014e 	b	2000c858 <vsnprintf+0x8c4>
2000c31c:	ea000135 	b	2000c7f8 <vsnprintf+0x864>
2000c320:	ea00014c 	b	2000c858 <vsnprintf+0x8c4>
2000c324:	ea00014b 	b	2000c858 <vsnprintf+0x8c4>
2000c328:	ea00014a 	b	2000c858 <vsnprintf+0x8c4>
2000c32c:	ea000149 	b	2000c858 <vsnprintf+0x8c4>
2000c330:	ea000148 	b	2000c858 <vsnprintf+0x8c4>
2000c334:	ea000147 	b	2000c858 <vsnprintf+0x8c4>
2000c338:	ea000146 	b	2000c858 <vsnprintf+0x8c4>
2000c33c:	ea000145 	b	2000c858 <vsnprintf+0x8c4>
2000c340:	ea000144 	b	2000c858 <vsnprintf+0x8c4>
2000c344:	ea000143 	b	2000c858 <vsnprintf+0x8c4>
2000c348:	ea000142 	b	2000c858 <vsnprintf+0x8c4>
2000c34c:	ea000141 	b	2000c858 <vsnprintf+0x8c4>
2000c350:	ea000140 	b	2000c858 <vsnprintf+0x8c4>
2000c354:	ea00013f 	b	2000c858 <vsnprintf+0x8c4>
2000c358:	ea00013e 	b	2000c858 <vsnprintf+0x8c4>
2000c35c:	ea00013d 	b	2000c858 <vsnprintf+0x8c4>
2000c360:	ea00013c 	b	2000c858 <vsnprintf+0x8c4>
2000c364:	ea00013b 	b	2000c858 <vsnprintf+0x8c4>
2000c368:	ea00013a 	b	2000c858 <vsnprintf+0x8c4>
2000c36c:	ea000139 	b	2000c858 <vsnprintf+0x8c4>
2000c370:	ea000138 	b	2000c858 <vsnprintf+0x8c4>
2000c374:	ea000137 	b	2000c858 <vsnprintf+0x8c4>
2000c378:	ea000136 	b	2000c858 <vsnprintf+0x8c4>
2000c37c:	ea000135 	b	2000c858 <vsnprintf+0x8c4>
2000c380:	ea000134 	b	2000c858 <vsnprintf+0x8c4>
2000c384:	ea000133 	b	2000c858 <vsnprintf+0x8c4>
2000c388:	ea000132 	b	2000c858 <vsnprintf+0x8c4>
2000c38c:	ea000131 	b	2000c858 <vsnprintf+0x8c4>
2000c390:	ea000130 	b	2000c858 <vsnprintf+0x8c4>
2000c394:	ea00012f 	b	2000c858 <vsnprintf+0x8c4>
2000c398:	ea00012e 	b	2000c858 <vsnprintf+0x8c4>
2000c39c:	ea00012d 	b	2000c858 <vsnprintf+0x8c4>
2000c3a0:	ea00012c 	b	2000c858 <vsnprintf+0x8c4>
2000c3a4:	ea00012b 	b	2000c858 <vsnprintf+0x8c4>
2000c3a8:	ea00012a 	b	2000c858 <vsnprintf+0x8c4>
2000c3ac:	ea000129 	b	2000c858 <vsnprintf+0x8c4>
2000c3b0:	ea000128 	b	2000c858 <vsnprintf+0x8c4>
2000c3b4:	ea000127 	b	2000c858 <vsnprintf+0x8c4>
2000c3b8:	ea000126 	b	2000c858 <vsnprintf+0x8c4>
2000c3bc:	ea000125 	b	2000c858 <vsnprintf+0x8c4>
2000c3c0:	ea000124 	b	2000c858 <vsnprintf+0x8c4>
2000c3c4:	ea000123 	b	2000c858 <vsnprintf+0x8c4>
2000c3c8:	ea000122 	b	2000c858 <vsnprintf+0x8c4>
2000c3cc:	ea000121 	b	2000c858 <vsnprintf+0x8c4>
2000c3d0:	ea000120 	b	2000c858 <vsnprintf+0x8c4>
2000c3d4:	ea00011f 	b	2000c858 <vsnprintf+0x8c4>
2000c3d8:	ea00011e 	b	2000c858 <vsnprintf+0x8c4>
2000c3dc:	ea00011d 	b	2000c858 <vsnprintf+0x8c4>
2000c3e0:	ea00011c 	b	2000c858 <vsnprintf+0x8c4>
2000c3e4:	ea00011b 	b	2000c858 <vsnprintf+0x8c4>
2000c3e8:	ea000110 	b	2000c830 <vsnprintf+0x89c>
2000c3ec:	ea000119 	b	2000c858 <vsnprintf+0x8c4>
2000c3f0:	ea000118 	b	2000c858 <vsnprintf+0x8c4>
2000c3f4:	ea000117 	b	2000c858 <vsnprintf+0x8c4>
2000c3f8:	ea000116 	b	2000c858 <vsnprintf+0x8c4>
2000c3fc:	ea000115 	b	2000c858 <vsnprintf+0x8c4>
2000c400:	ea000114 	b	2000c858 <vsnprintf+0x8c4>
2000c404:	ea000113 	b	2000c858 <vsnprintf+0x8c4>
2000c408:	ea000112 	b	2000c858 <vsnprintf+0x8c4>
2000c40c:	ea000111 	b	2000c858 <vsnprintf+0x8c4>
2000c410:	ea000110 	b	2000c858 <vsnprintf+0x8c4>
2000c414:	ea000014 	b	2000c46c <vsnprintf+0x4d8>
2000c418:	ea00010a 	b	2000c848 <vsnprintf+0x8b4>
2000c41c:	ea00010d 	b	2000c858 <vsnprintf+0x8c4>
2000c420:	ea00010c 	b	2000c858 <vsnprintf+0x8c4>
2000c424:	ea00010b 	b	2000c858 <vsnprintf+0x8c4>
2000c428:	ea00010a 	b	2000c858 <vsnprintf+0x8c4>
2000c42c:	ea000105 	b	2000c848 <vsnprintf+0x8b4>
2000c430:	ea000108 	b	2000c858 <vsnprintf+0x8c4>
2000c434:	ea000107 	b	2000c858 <vsnprintf+0x8c4>
2000c438:	ea000106 	b	2000c858 <vsnprintf+0x8c4>
2000c43c:	ea000105 	b	2000c858 <vsnprintf+0x8c4>
2000c440:	ea0000be 	b	2000c740 <vsnprintf+0x7ac>
2000c444:	ea0000f6 	b	2000c824 <vsnprintf+0x890>
2000c448:	ea00009c 	b	2000c6c0 <vsnprintf+0x72c>
2000c44c:	ea000101 	b	2000c858 <vsnprintf+0x8c4>
2000c450:	ea000100 	b	2000c858 <vsnprintf+0x8c4>
2000c454:	ea00003c 	b	2000c54c <vsnprintf+0x5b8>
2000c458:	ea0000fe 	b	2000c858 <vsnprintf+0x8c4>
2000c45c:	ea00011b 	b	2000c8d0 <vsnprintf+0x93c>
2000c460:	ea0000fc 	b	2000c858 <vsnprintf+0x8c4>
2000c464:	ea0000fb 	b	2000c858 <vsnprintf+0x8c4>
2000c468:	ea0000f3 	b	2000c83c <vsnprintf+0x8a8>
2000c46c:	e51b3030 	ldr	r3, [fp, #-48]
2000c470:	e2033010 	and	r3, r3, #16	; 0x10
2000c474:	e3530000 	cmp	r3, #0	; 0x0
2000c478:	1a000010 	bne	2000c4c0 <vsnprintf+0x52c>
2000c47c:	ea000009 	b	2000c4a8 <vsnprintf+0x514>
2000c480:	e51b2040 	ldr	r2, [fp, #-64]
2000c484:	e51b303c 	ldr	r3, [fp, #-60]
2000c488:	e1520003 	cmp	r2, r3
2000c48c:	8a000002 	bhi	2000c49c <vsnprintf+0x508>
2000c490:	e51b3040 	ldr	r3, [fp, #-64]
2000c494:	e3a02020 	mov	r2, #32	; 0x20
2000c498:	e5c32000 	strb	r2, [r3]
2000c49c:	e51b3040 	ldr	r3, [fp, #-64]
2000c4a0:	e2833001 	add	r3, r3, #1	; 0x1
2000c4a4:	e50b3040 	str	r3, [fp, #-64]
2000c4a8:	e51b302c 	ldr	r3, [fp, #-44]
2000c4ac:	e2433001 	sub	r3, r3, #1	; 0x1
2000c4b0:	e50b302c 	str	r3, [fp, #-44]
2000c4b4:	e51b302c 	ldr	r3, [fp, #-44]
2000c4b8:	e3530000 	cmp	r3, #0	; 0x0
2000c4bc:	caffffef 	bgt	2000c480 <vsnprintf+0x4ec>
2000c4c0:	e51b306c 	ldr	r3, [fp, #-108]
2000c4c4:	e2833004 	add	r3, r3, #4	; 0x4
2000c4c8:	e50b306c 	str	r3, [fp, #-108]
2000c4cc:	e51b306c 	ldr	r3, [fp, #-108]
2000c4d0:	e2433004 	sub	r3, r3, #4	; 0x4
2000c4d4:	e5933000 	ldr	r3, [r3]
2000c4d8:	e54b3035 	strb	r3, [fp, #-53]
2000c4dc:	e51b2040 	ldr	r2, [fp, #-64]
2000c4e0:	e51b303c 	ldr	r3, [fp, #-60]
2000c4e4:	e1520003 	cmp	r2, r3
2000c4e8:	8a000002 	bhi	2000c4f8 <vsnprintf+0x564>
2000c4ec:	e51b2040 	ldr	r2, [fp, #-64]
2000c4f0:	e55b3035 	ldrb	r3, [fp, #-53]
2000c4f4:	e5c23000 	strb	r3, [r2]
2000c4f8:	e51b3040 	ldr	r3, [fp, #-64]
2000c4fc:	e2833001 	add	r3, r3, #1	; 0x1
2000c500:	e50b3040 	str	r3, [fp, #-64]
2000c504:	ea000009 	b	2000c530 <vsnprintf+0x59c>
2000c508:	e51b2040 	ldr	r2, [fp, #-64]
2000c50c:	e51b303c 	ldr	r3, [fp, #-60]
2000c510:	e1520003 	cmp	r2, r3
2000c514:	8a000002 	bhi	2000c524 <vsnprintf+0x590>
2000c518:	e51b3040 	ldr	r3, [fp, #-64]
2000c51c:	e3a02020 	mov	r2, #32	; 0x20
2000c520:	e5c32000 	strb	r2, [r3]
2000c524:	e51b3040 	ldr	r3, [fp, #-64]
2000c528:	e2833001 	add	r3, r3, #1	; 0x1
2000c52c:	e50b3040 	str	r3, [fp, #-64]
2000c530:	e51b302c 	ldr	r3, [fp, #-44]
2000c534:	e2433001 	sub	r3, r3, #1	; 0x1
2000c538:	e50b302c 	str	r3, [fp, #-44]
2000c53c:	e51b302c 	ldr	r3, [fp, #-44]
2000c540:	e3530000 	cmp	r3, #0	; 0x0
2000c544:	caffffef 	bgt	2000c508 <vsnprintf+0x574>
2000c548:	ea00014d 	b	2000ca84 <vsnprintf+0xaf0>
2000c54c:	e51b306c 	ldr	r3, [fp, #-108]
2000c550:	e2833004 	add	r3, r3, #4	; 0x4
2000c554:	e50b306c 	str	r3, [fp, #-108]
2000c558:	e51b306c 	ldr	r3, [fp, #-108]
2000c55c:	e2433004 	sub	r3, r3, #4	; 0x4
2000c560:	e5933000 	ldr	r3, [r3]
2000c564:	e50b3034 	str	r3, [fp, #-52]
2000c568:	e51b3034 	ldr	r3, [fp, #-52]
2000c56c:	e3530000 	cmp	r3, #0	; 0x0
2000c570:	1a000003 	bne	2000c584 <vsnprintf+0x5f0>
2000c574:	e59f357c 	ldr	r3, [pc, #1404]	; 2000caf8 <vsnprintf+0xb64>
2000c578:	e51b1070 	ldr	r1, [fp, #-112]
2000c57c:	e0813003 	add	r3, r1, r3
2000c580:	e50b3034 	str	r3, [fp, #-52]
2000c584:	e51b3028 	ldr	r3, [fp, #-40]
2000c588:	e51b0034 	ldr	r0, [fp, #-52]
2000c58c:	e1a01003 	mov	r1, r3
2000c590:	eb000ff3 	bl	20010564 <strnlen>
2000c594:	e1a03000 	mov	r3, r0
2000c598:	e50b3058 	str	r3, [fp, #-88]
2000c59c:	e51b3030 	ldr	r3, [fp, #-48]
2000c5a0:	e2033010 	and	r3, r3, #16	; 0x10
2000c5a4:	e3530000 	cmp	r3, #0	; 0x0
2000c5a8:	1a000015 	bne	2000c604 <vsnprintf+0x670>
2000c5ac:	ea000009 	b	2000c5d8 <vsnprintf+0x644>
2000c5b0:	e51b2040 	ldr	r2, [fp, #-64]
2000c5b4:	e51b303c 	ldr	r3, [fp, #-60]
2000c5b8:	e1520003 	cmp	r2, r3
2000c5bc:	8a000002 	bhi	2000c5cc <vsnprintf+0x638>
2000c5c0:	e51b3040 	ldr	r3, [fp, #-64]
2000c5c4:	e3a02020 	mov	r2, #32	; 0x20
2000c5c8:	e5c32000 	strb	r2, [r3]
2000c5cc:	e51b3040 	ldr	r3, [fp, #-64]
2000c5d0:	e2833001 	add	r3, r3, #1	; 0x1
2000c5d4:	e50b3040 	str	r3, [fp, #-64]
2000c5d8:	e51b202c 	ldr	r2, [fp, #-44]
2000c5dc:	e51b3058 	ldr	r3, [fp, #-88]
2000c5e0:	e1520003 	cmp	r2, r3
2000c5e4:	d3a03000 	movle	r3, #0	; 0x0
2000c5e8:	c3a03001 	movgt	r3, #1	; 0x1
2000c5ec:	e20320ff 	and	r2, r3, #255	; 0xff
2000c5f0:	e51b302c 	ldr	r3, [fp, #-44]
2000c5f4:	e2433001 	sub	r3, r3, #1	; 0x1
2000c5f8:	e50b302c 	str	r3, [fp, #-44]
2000c5fc:	e3520000 	cmp	r2, #0	; 0x0
2000c600:	1affffea 	bne	2000c5b0 <vsnprintf+0x61c>
2000c604:	e3a03000 	mov	r3, #0	; 0x0
2000c608:	e50b3048 	str	r3, [fp, #-72]
2000c60c:	ea000010 	b	2000c654 <vsnprintf+0x6c0>
2000c610:	e51b2040 	ldr	r2, [fp, #-64]
2000c614:	e51b303c 	ldr	r3, [fp, #-60]
2000c618:	e1520003 	cmp	r2, r3
2000c61c:	8a000003 	bhi	2000c630 <vsnprintf+0x69c>
2000c620:	e51b3034 	ldr	r3, [fp, #-52]
2000c624:	e5d33000 	ldrb	r3, [r3]
2000c628:	e51b2040 	ldr	r2, [fp, #-64]
2000c62c:	e5c23000 	strb	r3, [r2]
2000c630:	e51b3040 	ldr	r3, [fp, #-64]
2000c634:	e2833001 	add	r3, r3, #1	; 0x1
2000c638:	e50b3040 	str	r3, [fp, #-64]
2000c63c:	e51b3034 	ldr	r3, [fp, #-52]
2000c640:	e2833001 	add	r3, r3, #1	; 0x1
2000c644:	e50b3034 	str	r3, [fp, #-52]
2000c648:	e51b3048 	ldr	r3, [fp, #-72]
2000c64c:	e2833001 	add	r3, r3, #1	; 0x1
2000c650:	e50b3048 	str	r3, [fp, #-72]
2000c654:	e51b2048 	ldr	r2, [fp, #-72]
2000c658:	e51b3058 	ldr	r3, [fp, #-88]
2000c65c:	e1520003 	cmp	r2, r3
2000c660:	baffffea 	blt	2000c610 <vsnprintf+0x67c>
2000c664:	ea000009 	b	2000c690 <vsnprintf+0x6fc>
2000c668:	e51b2040 	ldr	r2, [fp, #-64]
2000c66c:	e51b303c 	ldr	r3, [fp, #-60]
2000c670:	e1520003 	cmp	r2, r3
2000c674:	8a000002 	bhi	2000c684 <vsnprintf+0x6f0>
2000c678:	e51b3040 	ldr	r3, [fp, #-64]
2000c67c:	e3a02020 	mov	r2, #32	; 0x20
2000c680:	e5c32000 	strb	r2, [r3]
2000c684:	e51b3040 	ldr	r3, [fp, #-64]
2000c688:	e2833001 	add	r3, r3, #1	; 0x1
2000c68c:	e50b3040 	str	r3, [fp, #-64]
2000c690:	e51b202c 	ldr	r2, [fp, #-44]
2000c694:	e51b3058 	ldr	r3, [fp, #-88]
2000c698:	e1520003 	cmp	r2, r3
2000c69c:	d3a03000 	movle	r3, #0	; 0x0
2000c6a0:	c3a03001 	movgt	r3, #1	; 0x1
2000c6a4:	e20320ff 	and	r2, r3, #255	; 0xff
2000c6a8:	e51b302c 	ldr	r3, [fp, #-44]
2000c6ac:	e2433001 	sub	r3, r3, #1	; 0x1
2000c6b0:	e50b302c 	str	r3, [fp, #-44]
2000c6b4:	e3520000 	cmp	r2, #0	; 0x0
2000c6b8:	1affffea 	bne	2000c668 <vsnprintf+0x6d4>
2000c6bc:	ea0000f0 	b	2000ca84 <vsnprintf+0xaf0>
2000c6c0:	e51b302c 	ldr	r3, [fp, #-44]
2000c6c4:	e3730001 	cmn	r3, #1	; 0x1
2000c6c8:	1a000004 	bne	2000c6e0 <vsnprintf+0x74c>
2000c6cc:	e3a03008 	mov	r3, #8	; 0x8
2000c6d0:	e50b302c 	str	r3, [fp, #-44]
2000c6d4:	e51b3030 	ldr	r3, [fp, #-48]
2000c6d8:	e3833001 	orr	r3, r3, #1	; 0x1
2000c6dc:	e50b3030 	str	r3, [fp, #-48]
2000c6e0:	e51b306c 	ldr	r3, [fp, #-108]
2000c6e4:	e2833004 	add	r3, r3, #4	; 0x4
2000c6e8:	e50b306c 	str	r3, [fp, #-108]
2000c6ec:	e51b306c 	ldr	r3, [fp, #-108]
2000c6f0:	e2433004 	sub	r3, r3, #4	; 0x4
2000c6f4:	e5933000 	ldr	r3, [r3]
2000c6f8:	e1a04003 	mov	r4, r3
2000c6fc:	e3a05000 	mov	r5, #0	; 0x0
2000c700:	e3a03010 	mov	r3, #16	; 0x10
2000c704:	e58d3000 	str	r3, [sp]
2000c708:	e51b302c 	ldr	r3, [fp, #-44]
2000c70c:	e58d3004 	str	r3, [sp, #4]
2000c710:	e51b3028 	ldr	r3, [fp, #-40]
2000c714:	e58d3008 	str	r3, [sp, #8]
2000c718:	e51b3030 	ldr	r3, [fp, #-48]
2000c71c:	e58d300c 	str	r3, [sp, #12]
2000c720:	e51b0040 	ldr	r0, [fp, #-64]
2000c724:	e51b103c 	ldr	r1, [fp, #-60]
2000c728:	e1a02004 	mov	r2, r4
2000c72c:	e1a03005 	mov	r3, r5
2000c730:	ebfffc9e 	bl	2000b9b0 <number>
2000c734:	e1a03000 	mov	r3, r0
2000c738:	e50b3040 	str	r3, [fp, #-64]
2000c73c:	ea0000d0 	b	2000ca84 <vsnprintf+0xaf0>
2000c740:	e51b3024 	ldr	r3, [fp, #-36]
2000c744:	e353006c 	cmp	r3, #108	; 0x6c
2000c748:	1a00000c 	bne	2000c780 <vsnprintf+0x7ec>
2000c74c:	e51b306c 	ldr	r3, [fp, #-108]
2000c750:	e2833004 	add	r3, r3, #4	; 0x4
2000c754:	e50b306c 	str	r3, [fp, #-108]
2000c758:	e51b306c 	ldr	r3, [fp, #-108]
2000c75c:	e2433004 	sub	r3, r3, #4	; 0x4
2000c760:	e5933000 	ldr	r3, [r3]
2000c764:	e50b3020 	str	r3, [fp, #-32]
2000c768:	e51b2040 	ldr	r2, [fp, #-64]
2000c76c:	e51b3060 	ldr	r3, [fp, #-96]
2000c770:	e0632002 	rsb	r2, r3, r2
2000c774:	e51b3020 	ldr	r3, [fp, #-32]
2000c778:	e5832000 	str	r2, [r3]
2000c77c:	ea0000c0 	b	2000ca84 <vsnprintf+0xaf0>
2000c780:	e51b3024 	ldr	r3, [fp, #-36]
2000c784:	e353005a 	cmp	r3, #90	; 0x5a
2000c788:	1a00000d 	bne	2000c7c4 <vsnprintf+0x830>
2000c78c:	e51b306c 	ldr	r3, [fp, #-108]
2000c790:	e2833004 	add	r3, r3, #4	; 0x4
2000c794:	e50b306c 	str	r3, [fp, #-108]
2000c798:	e51b306c 	ldr	r3, [fp, #-108]
2000c79c:	e2433004 	sub	r3, r3, #4	; 0x4
2000c7a0:	e5933000 	ldr	r3, [r3]
2000c7a4:	e50b301c 	str	r3, [fp, #-28]
2000c7a8:	e51b2040 	ldr	r2, [fp, #-64]
2000c7ac:	e51b3060 	ldr	r3, [fp, #-96]
2000c7b0:	e0633002 	rsb	r3, r3, r2
2000c7b4:	e1a02003 	mov	r2, r3
2000c7b8:	e51b301c 	ldr	r3, [fp, #-28]
2000c7bc:	e5832000 	str	r2, [r3]
2000c7c0:	ea0000af 	b	2000ca84 <vsnprintf+0xaf0>
2000c7c4:	e51b306c 	ldr	r3, [fp, #-108]
2000c7c8:	e2833004 	add	r3, r3, #4	; 0x4
2000c7cc:	e50b306c 	str	r3, [fp, #-108]
2000c7d0:	e51b306c 	ldr	r3, [fp, #-108]
2000c7d4:	e2433004 	sub	r3, r3, #4	; 0x4
2000c7d8:	e5933000 	ldr	r3, [r3]
2000c7dc:	e50b3018 	str	r3, [fp, #-24]
2000c7e0:	e51b2040 	ldr	r2, [fp, #-64]
2000c7e4:	e51b3060 	ldr	r3, [fp, #-96]
2000c7e8:	e0632002 	rsb	r2, r3, r2
2000c7ec:	e51b3018 	ldr	r3, [fp, #-24]
2000c7f0:	e5832000 	str	r2, [r3]
2000c7f4:	ea0000a2 	b	2000ca84 <vsnprintf+0xaf0>
2000c7f8:	e51b2040 	ldr	r2, [fp, #-64]
2000c7fc:	e51b303c 	ldr	r3, [fp, #-60]
2000c800:	e1520003 	cmp	r2, r3
2000c804:	8a000002 	bhi	2000c814 <vsnprintf+0x880>
2000c808:	e51b3040 	ldr	r3, [fp, #-64]
2000c80c:	e3a02025 	mov	r2, #37	; 0x25
2000c810:	e5c32000 	strb	r2, [r3]
2000c814:	e51b3040 	ldr	r3, [fp, #-64]
2000c818:	e2833001 	add	r3, r3, #1	; 0x1
2000c81c:	e50b3040 	str	r3, [fp, #-64]
2000c820:	ea000097 	b	2000ca84 <vsnprintf+0xaf0>
2000c824:	e3a03008 	mov	r3, #8	; 0x8
2000c828:	e50b3044 	str	r3, [fp, #-68]
2000c82c:	ea000027 	b	2000c8d0 <vsnprintf+0x93c>
2000c830:	e51b3030 	ldr	r3, [fp, #-48]
2000c834:	e3833040 	orr	r3, r3, #64	; 0x40
2000c838:	e50b3030 	str	r3, [fp, #-48]
2000c83c:	e3a03010 	mov	r3, #16	; 0x10
2000c840:	e50b3044 	str	r3, [fp, #-68]
2000c844:	ea000021 	b	2000c8d0 <vsnprintf+0x93c>
2000c848:	e51b3030 	ldr	r3, [fp, #-48]
2000c84c:	e3833002 	orr	r3, r3, #2	; 0x2
2000c850:	e50b3030 	str	r3, [fp, #-48]
2000c854:	ea00001d 	b	2000c8d0 <vsnprintf+0x93c>
2000c858:	e51b2040 	ldr	r2, [fp, #-64]
2000c85c:	e51b303c 	ldr	r3, [fp, #-60]
2000c860:	e1520003 	cmp	r2, r3
2000c864:	8a000002 	bhi	2000c874 <vsnprintf+0x8e0>
2000c868:	e51b3040 	ldr	r3, [fp, #-64]
2000c86c:	e3a02025 	mov	r2, #37	; 0x25
2000c870:	e5c32000 	strb	r2, [r3]
2000c874:	e51b3040 	ldr	r3, [fp, #-64]
2000c878:	e2833001 	add	r3, r3, #1	; 0x1
2000c87c:	e50b3040 	str	r3, [fp, #-64]
2000c880:	e51b3068 	ldr	r3, [fp, #-104]
2000c884:	e5d33000 	ldrb	r3, [r3]
2000c888:	e3530000 	cmp	r3, #0	; 0x0
2000c88c:	0a00000b 	beq	2000c8c0 <vsnprintf+0x92c>
2000c890:	e51b2040 	ldr	r2, [fp, #-64]
2000c894:	e51b303c 	ldr	r3, [fp, #-60]
2000c898:	e1520003 	cmp	r2, r3
2000c89c:	8a000003 	bhi	2000c8b0 <vsnprintf+0x91c>
2000c8a0:	e51b3068 	ldr	r3, [fp, #-104]
2000c8a4:	e5d33000 	ldrb	r3, [r3]
2000c8a8:	e51b2040 	ldr	r2, [fp, #-64]
2000c8ac:	e5c23000 	strb	r3, [r2]
2000c8b0:	e51b3040 	ldr	r3, [fp, #-64]
2000c8b4:	e2833001 	add	r3, r3, #1	; 0x1
2000c8b8:	e50b3040 	str	r3, [fp, #-64]
2000c8bc:	ea000070 	b	2000ca84 <vsnprintf+0xaf0>
2000c8c0:	e51b3068 	ldr	r3, [fp, #-104]
2000c8c4:	e2433001 	sub	r3, r3, #1	; 0x1
2000c8c8:	e50b3068 	str	r3, [fp, #-104]
2000c8cc:	ea00006c 	b	2000ca84 <vsnprintf+0xaf0>
2000c8d0:	e51b3024 	ldr	r3, [fp, #-36]
2000c8d4:	e353004c 	cmp	r3, #76	; 0x4c
2000c8d8:	1a000008 	bne	2000c900 <vsnprintf+0x96c>
2000c8dc:	e51b306c 	ldr	r3, [fp, #-108]
2000c8e0:	e2833008 	add	r3, r3, #8	; 0x8
2000c8e4:	e50b306c 	str	r3, [fp, #-108]
2000c8e8:	e51b306c 	ldr	r3, [fp, #-108]
2000c8ec:	e2433008 	sub	r3, r3, #8	; 0x8
2000c8f0:	e8930018 	ldm	r3, {r3, r4}
2000c8f4:	e50b3054 	str	r3, [fp, #-84]
2000c8f8:	e50b4050 	str	r4, [fp, #-80]
2000c8fc:	ea00004f 	b	2000ca40 <vsnprintf+0xaac>
2000c900:	e51b3024 	ldr	r3, [fp, #-36]
2000c904:	e353006c 	cmp	r3, #108	; 0x6c
2000c908:	1a000011 	bne	2000c954 <vsnprintf+0x9c0>
2000c90c:	e51b306c 	ldr	r3, [fp, #-108]
2000c910:	e2833004 	add	r3, r3, #4	; 0x4
2000c914:	e50b306c 	str	r3, [fp, #-108]
2000c918:	e51b306c 	ldr	r3, [fp, #-108]
2000c91c:	e2433004 	sub	r3, r3, #4	; 0x4
2000c920:	e5933000 	ldr	r3, [r3]
2000c924:	e3a04000 	mov	r4, #0	; 0x0
2000c928:	e50b3054 	str	r3, [fp, #-84]
2000c92c:	e50b4050 	str	r4, [fp, #-80]
2000c930:	e51b3030 	ldr	r3, [fp, #-48]
2000c934:	e2033002 	and	r3, r3, #2	; 0x2
2000c938:	e3530000 	cmp	r3, #0	; 0x0
2000c93c:	0a00003f 	beq	2000ca40 <vsnprintf+0xaac>
2000c940:	e51b3054 	ldr	r3, [fp, #-84]
2000c944:	e1a04fc3 	asr	r4, r3, #31
2000c948:	e50b3054 	str	r3, [fp, #-84]
2000c94c:	e50b4050 	str	r4, [fp, #-80]
2000c950:	ea00003a 	b	2000ca40 <vsnprintf+0xaac>
2000c954:	e51b3024 	ldr	r3, [fp, #-36]
2000c958:	e353005a 	cmp	r3, #90	; 0x5a
2000c95c:	1a000009 	bne	2000c988 <vsnprintf+0x9f4>
2000c960:	e51b306c 	ldr	r3, [fp, #-108]
2000c964:	e2833004 	add	r3, r3, #4	; 0x4
2000c968:	e50b306c 	str	r3, [fp, #-108]
2000c96c:	e51b306c 	ldr	r3, [fp, #-108]
2000c970:	e2433004 	sub	r3, r3, #4	; 0x4
2000c974:	e5933000 	ldr	r3, [r3]
2000c978:	e3a04000 	mov	r4, #0	; 0x0
2000c97c:	e50b3054 	str	r3, [fp, #-84]
2000c980:	e50b4050 	str	r4, [fp, #-80]
2000c984:	ea00002d 	b	2000ca40 <vsnprintf+0xaac>
2000c988:	e51b3024 	ldr	r3, [fp, #-36]
2000c98c:	e3530068 	cmp	r3, #104	; 0x68
2000c990:	1a000019 	bne	2000c9fc <vsnprintf+0xa68>
2000c994:	e51b306c 	ldr	r3, [fp, #-108]
2000c998:	e2833004 	add	r3, r3, #4	; 0x4
2000c99c:	e50b306c 	str	r3, [fp, #-108]
2000c9a0:	e51b306c 	ldr	r3, [fp, #-108]
2000c9a4:	e2433004 	sub	r3, r3, #4	; 0x4
2000c9a8:	e5933000 	ldr	r3, [r3]
2000c9ac:	e1a03803 	lsl	r3, r3, #16
2000c9b0:	e1a03823 	lsr	r3, r3, #16
2000c9b4:	e50b3054 	str	r3, [fp, #-84]
2000c9b8:	e51b3054 	ldr	r3, [fp, #-84]
2000c9bc:	e3a04000 	mov	r4, #0	; 0x0
2000c9c0:	e50b3054 	str	r3, [fp, #-84]
2000c9c4:	e50b4050 	str	r4, [fp, #-80]
2000c9c8:	e51b3030 	ldr	r3, [fp, #-48]
2000c9cc:	e2033002 	and	r3, r3, #2	; 0x2
2000c9d0:	e3530000 	cmp	r3, #0	; 0x0
2000c9d4:	0a000019 	beq	2000ca40 <vsnprintf+0xaac>
2000c9d8:	e15b35b4 	ldrh	r3, [fp, #-84]
2000c9dc:	e1a03803 	lsl	r3, r3, #16
2000c9e0:	e1a03843 	asr	r3, r3, #16
2000c9e4:	e50b3054 	str	r3, [fp, #-84]
2000c9e8:	e51b3054 	ldr	r3, [fp, #-84]
2000c9ec:	e1a04fc3 	asr	r4, r3, #31
2000c9f0:	e50b3054 	str	r3, [fp, #-84]
2000c9f4:	e50b4050 	str	r4, [fp, #-80]
2000c9f8:	ea000010 	b	2000ca40 <vsnprintf+0xaac>
2000c9fc:	e51b306c 	ldr	r3, [fp, #-108]
2000ca00:	e2833004 	add	r3, r3, #4	; 0x4
2000ca04:	e50b306c 	str	r3, [fp, #-108]
2000ca08:	e51b306c 	ldr	r3, [fp, #-108]
2000ca0c:	e2433004 	sub	r3, r3, #4	; 0x4
2000ca10:	e5933000 	ldr	r3, [r3]
2000ca14:	e3a04000 	mov	r4, #0	; 0x0
2000ca18:	e50b3054 	str	r3, [fp, #-84]
2000ca1c:	e50b4050 	str	r4, [fp, #-80]
2000ca20:	e51b3030 	ldr	r3, [fp, #-48]
2000ca24:	e2033002 	and	r3, r3, #2	; 0x2
2000ca28:	e3530000 	cmp	r3, #0	; 0x0
2000ca2c:	0a000003 	beq	2000ca40 <vsnprintf+0xaac>
2000ca30:	e51b3054 	ldr	r3, [fp, #-84]
2000ca34:	e1a04fc3 	asr	r4, r3, #31
2000ca38:	e50b3054 	str	r3, [fp, #-84]
2000ca3c:	e50b4050 	str	r4, [fp, #-80]
2000ca40:	e24b4054 	sub	r4, fp, #84	; 0x54
2000ca44:	e8940030 	ldm	r4, {r4, r5}
2000ca48:	e51b3044 	ldr	r3, [fp, #-68]
2000ca4c:	e58d3000 	str	r3, [sp]
2000ca50:	e51b302c 	ldr	r3, [fp, #-44]
2000ca54:	e58d3004 	str	r3, [sp, #4]
2000ca58:	e51b3028 	ldr	r3, [fp, #-40]
2000ca5c:	e58d3008 	str	r3, [sp, #8]
2000ca60:	e51b3030 	ldr	r3, [fp, #-48]
2000ca64:	e58d300c 	str	r3, [sp, #12]
2000ca68:	e51b0040 	ldr	r0, [fp, #-64]
2000ca6c:	e51b103c 	ldr	r1, [fp, #-60]
2000ca70:	e1a02004 	mov	r2, r4
2000ca74:	e1a03005 	mov	r3, r5
2000ca78:	ebfffbcc 	bl	2000b9b0 <number>
2000ca7c:	e1a03000 	mov	r3, r0
2000ca80:	e50b3040 	str	r3, [fp, #-64]
2000ca84:	e51b3068 	ldr	r3, [fp, #-104]
2000ca88:	e2833001 	add	r3, r3, #1	; 0x1
2000ca8c:	e50b3068 	str	r3, [fp, #-104]
2000ca90:	e51b3068 	ldr	r3, [fp, #-104]
2000ca94:	e5d33000 	ldrb	r3, [r3]
2000ca98:	e3530000 	cmp	r3, #0	; 0x0
2000ca9c:	1afffd5d 	bne	2000c018 <vsnprintf+0x84>
2000caa0:	e51b2040 	ldr	r2, [fp, #-64]
2000caa4:	e51b303c 	ldr	r3, [fp, #-60]
2000caa8:	e1520003 	cmp	r2, r3
2000caac:	8a000003 	bhi	2000cac0 <vsnprintf+0xb2c>
2000cab0:	e51b3040 	ldr	r3, [fp, #-64]
2000cab4:	e3a02000 	mov	r2, #0	; 0x0
2000cab8:	e5c32000 	strb	r2, [r3]
2000cabc:	ea000005 	b	2000cad8 <vsnprintf+0xb44>
2000cac0:	e51b3064 	ldr	r3, [fp, #-100]
2000cac4:	e3530000 	cmp	r3, #0	; 0x0
2000cac8:	0a000002 	beq	2000cad8 <vsnprintf+0xb44>
2000cacc:	e51b303c 	ldr	r3, [fp, #-60]
2000cad0:	e3a02000 	mov	r2, #0	; 0x0
2000cad4:	e5c32000 	strb	r2, [r3]
2000cad8:	e51b2040 	ldr	r2, [fp, #-64]
2000cadc:	e51b3060 	ldr	r3, [fp, #-96]
2000cae0:	e0633002 	rsb	r3, r3, r2
2000cae4:	e1a00003 	mov	r0, r3
2000cae8:	e24bd014 	sub	sp, fp, #20	; 0x14
2000caec:	e89da830 	ldm	sp, {r4, r5, fp, sp, pc}
2000caf0:	000075d0 	.word	0x000075d0
2000caf4:	0000006c 	.word	0x0000006c
2000caf8:	fffff9d0 	.word	0xfffff9d0

2000cafc <printk>:
2000cafc:	e1a0c00d 	mov	ip, sp
2000cb00:	e92d000f 	push	{r0, r1, r2, r3}
2000cb04:	e92dd810 	push	{r4, fp, ip, lr, pc}
2000cb08:	e24cb014 	sub	fp, ip, #20	; 0x14
2000cb0c:	e24dd014 	sub	sp, sp, #20	; 0x14
2000cb10:	e59f4094 	ldr	r4, [pc, #148]	; 2000cbac <printk+0xb0>
2000cb14:	e08f4004 	add	r4, pc, r4
2000cb18:	e28b3004 	add	r3, fp, #4	; 0x4
2000cb1c:	e2833004 	add	r3, r3, #4	; 0x4
2000cb20:	e50b3020 	str	r3, [fp, #-32]
2000cb24:	e59b2004 	ldr	r2, [fp, #4]
2000cb28:	e59f3080 	ldr	r3, [pc, #128]	; 2000cbb0 <printk+0xb4>
2000cb2c:	e0843003 	add	r3, r4, r3
2000cb30:	e1a00003 	mov	r0, r3
2000cb34:	e3a01b01 	mov	r1, #1024	; 0x400
2000cb38:	e51b3020 	ldr	r3, [fp, #-32]
2000cb3c:	ebfffd14 	bl	2000bf94 <vsnprintf>
2000cb40:	e1a03000 	mov	r3, r0
2000cb44:	e50b301c 	str	r3, [fp, #-28]
2000cb48:	e59f3060 	ldr	r3, [pc, #96]	; 2000cbb0 <printk+0xb4>
2000cb4c:	e0843003 	add	r3, r4, r3
2000cb50:	e50b3018 	str	r3, [fp, #-24]
2000cb54:	ea00000c 	b	2000cb8c <printk+0x90>
2000cb58:	e51b3018 	ldr	r3, [fp, #-24]
2000cb5c:	e5d33000 	ldrb	r3, [r3]
2000cb60:	e353000a 	cmp	r3, #10	; 0xa
2000cb64:	1a000001 	bne	2000cb70 <printk+0x74>
2000cb68:	e3a0000d 	mov	r0, #13	; 0xd
2000cb6c:	eb000819 	bl	2000ebd8 <putc>
2000cb70:	e51b3018 	ldr	r3, [fp, #-24]
2000cb74:	e5d33000 	ldrb	r3, [r3]
2000cb78:	e1a00003 	mov	r0, r3
2000cb7c:	eb000815 	bl	2000ebd8 <putc>
2000cb80:	e51b3018 	ldr	r3, [fp, #-24]
2000cb84:	e2833001 	add	r3, r3, #1	; 0x1
2000cb88:	e50b3018 	str	r3, [fp, #-24]
2000cb8c:	e51b3018 	ldr	r3, [fp, #-24]
2000cb90:	e5d33000 	ldrb	r3, [r3]
2000cb94:	e3530000 	cmp	r3, #0	; 0x0
2000cb98:	1affffee 	bne	2000cb58 <printk+0x5c>
2000cb9c:	e51b301c 	ldr	r3, [fp, #-28]
2000cba0:	e1a00003 	mov	r0, r3
2000cba4:	e24bd010 	sub	sp, fp, #16	; 0x10
2000cba8:	e89da810 	ldm	sp, {r4, fp, sp, pc}
2000cbac:	00006a6c 	.word	0x00006a6c
2000cbb0:	000f4330 	.word	0x000f4330

2000cbb4 <printf>:
2000cbb4:	e1a0c00d 	mov	ip, sp
2000cbb8:	e92d000f 	push	{r0, r1, r2, r3}
2000cbbc:	e92dd810 	push	{r4, fp, ip, lr, pc}
2000cbc0:	e24cb014 	sub	fp, ip, #20	; 0x14
2000cbc4:	e24dd014 	sub	sp, sp, #20	; 0x14
2000cbc8:	e59f409c 	ldr	r4, [pc, #156]	; 2000cc6c <printf+0xb8>
2000cbcc:	e08f4004 	add	r4, pc, r4
2000cbd0:	e28b3004 	add	r3, fp, #4	; 0x4
2000cbd4:	e2833004 	add	r3, r3, #4	; 0x4
2000cbd8:	e50b3020 	str	r3, [fp, #-32]
2000cbdc:	e59b2004 	ldr	r2, [fp, #4]
2000cbe0:	e59f3088 	ldr	r3, [pc, #136]	; 2000cc70 <printf+0xbc>
2000cbe4:	e0843003 	add	r3, r4, r3
2000cbe8:	e1a00003 	mov	r0, r3
2000cbec:	e3a01b01 	mov	r1, #1024	; 0x400
2000cbf0:	e51b3020 	ldr	r3, [fp, #-32]
2000cbf4:	ebfffce6 	bl	2000bf94 <vsnprintf>
2000cbf8:	e1a03000 	mov	r3, r0
2000cbfc:	e50b301c 	str	r3, [fp, #-28]
2000cc00:	eb0004c8 	bl	2000df28 <vk_scheduler_lock>
2000cc04:	e59f3064 	ldr	r3, [pc, #100]	; 2000cc70 <printf+0xbc>
2000cc08:	e0843003 	add	r3, r4, r3
2000cc0c:	e50b3018 	str	r3, [fp, #-24]
2000cc10:	ea00000c 	b	2000cc48 <printf+0x94>
2000cc14:	e51b3018 	ldr	r3, [fp, #-24]
2000cc18:	e5d33000 	ldrb	r3, [r3]
2000cc1c:	e353000a 	cmp	r3, #10	; 0xa
2000cc20:	1a000001 	bne	2000cc2c <printf+0x78>
2000cc24:	e3a0000d 	mov	r0, #13	; 0xd
2000cc28:	eb0007ea 	bl	2000ebd8 <putc>
2000cc2c:	e51b3018 	ldr	r3, [fp, #-24]
2000cc30:	e5d33000 	ldrb	r3, [r3]
2000cc34:	e1a00003 	mov	r0, r3
2000cc38:	eb0007e6 	bl	2000ebd8 <putc>
2000cc3c:	e51b3018 	ldr	r3, [fp, #-24]
2000cc40:	e2833001 	add	r3, r3, #1	; 0x1
2000cc44:	e50b3018 	str	r3, [fp, #-24]
2000cc48:	e51b3018 	ldr	r3, [fp, #-24]
2000cc4c:	e5d33000 	ldrb	r3, [r3]
2000cc50:	e3530000 	cmp	r3, #0	; 0x0
2000cc54:	1affffee 	bne	2000cc14 <printf+0x60>
2000cc58:	eb0004cc 	bl	2000df90 <vk_scheduler_unlock>
2000cc5c:	e51b301c 	ldr	r3, [fp, #-28]
2000cc60:	e1a00003 	mov	r0, r3
2000cc64:	e24bd010 	sub	sp, fp, #16	; 0x10
2000cc68:	e89da810 	ldm	sp, {r4, fp, sp, pc}
2000cc6c:	000069b4 	.word	0x000069b4
2000cc70:	000f4730 	.word	0x000f4730

2000cc74 <vk_init_kdata_struct>:
2000cc74:	e1a0c00d 	mov	ip, sp
2000cc78:	e92dd810 	push	{r4, fp, ip, lr, pc}
2000cc7c:	e24cb004 	sub	fp, ip, #4	; 0x4
2000cc80:	e24dd00c 	sub	sp, sp, #12	; 0xc
2000cc84:	e59f4058 	ldr	r4, [pc, #88]	; 2000cce4 <vk_init_kdata_struct+0x70>
2000cc88:	e08f4004 	add	r4, pc, r4
2000cc8c:	eb0000c6 	bl	2000cfac <vk_init_ready_queue>
2000cc90:	eb00008b 	bl	2000cec4 <vk_init_wait_queue>
2000cc94:	eb000050 	bl	2000cddc <vk_init_tcb_log_queue>
2000cc98:	ebfff03e 	bl	20008d98 <vk_init_dd_table>
2000cc9c:	eb000013 	bl	2000ccf0 <vk_init_thread_join_table>
2000cca0:	e59f3040 	ldr	r3, [pc, #64]	; 2000cce8 <vk_init_kdata_struct+0x74>
2000cca4:	e7943003 	ldr	r3, [r4, r3]
2000cca8:	e1a00003 	mov	r0, r3
2000ccac:	e3a01000 	mov	r1, #0	; 0x0
2000ccb0:	e3a02084 	mov	r2, #132	; 0x84
2000ccb4:	eb001655 	bl	20012610 <memset>
2000ccb8:	e59f3028 	ldr	r3, [pc, #40]	; 2000cce8 <vk_init_kdata_struct+0x74>
2000ccbc:	e7942003 	ldr	r2, [r4, r3]
2000ccc0:	e3a03004 	mov	r3, #4	; 0x4
2000ccc4:	e5823000 	str	r3, [r2]
2000ccc8:	e59f301c 	ldr	r3, [pc, #28]	; 2000ccec <vk_init_kdata_struct+0x78>
2000cccc:	e7942003 	ldr	r2, [r4, r3]
2000ccd0:	e59f3010 	ldr	r3, [pc, #16]	; 2000cce8 <vk_init_kdata_struct+0x74>
2000ccd4:	e7943003 	ldr	r3, [r4, r3]
2000ccd8:	e5823000 	str	r3, [r2]
2000ccdc:	e24bd010 	sub	sp, fp, #16	; 0x10
2000cce0:	e89da810 	ldm	sp, {r4, fp, sp, pc}
2000cce4:	000068f8 	.word	0x000068f8
2000cce8:	0000008c 	.word	0x0000008c
2000ccec:	000000ac 	.word	0x000000ac

2000ccf0 <vk_init_thread_join_table>:
2000ccf0:	e1a0c00d 	mov	ip, sp
2000ccf4:	e92dd800 	push	{fp, ip, lr, pc}
2000ccf8:	e24cb004 	sub	fp, ip, #4	; 0x4
2000ccfc:	e24dd010 	sub	sp, sp, #16	; 0x10
2000cd00:	e59f00cc 	ldr	r0, [pc, #204]	; 2000cdd4 <vk_init_thread_join_table+0xe4>
2000cd04:	e50b0018 	str	r0, [fp, #-24]
2000cd08:	e51b3018 	ldr	r3, [fp, #-24]
2000cd0c:	e08f3003 	add	r3, pc, r3
2000cd10:	e50b3018 	str	r3, [fp, #-24]
2000cd14:	e3a03000 	mov	r3, #0	; 0x0
2000cd18:	e54b300d 	strb	r3, [fp, #-13]
2000cd1c:	ea000027 	b	2000cdc0 <vk_init_thread_join_table+0xd0>
2000cd20:	e55b200d 	ldrb	r2, [fp, #-13]
2000cd24:	e59f30ac 	ldr	r3, [pc, #172]	; 2000cdd8 <vk_init_thread_join_table+0xe8>
2000cd28:	e51b0018 	ldr	r0, [fp, #-24]
2000cd2c:	e7901003 	ldr	r1, [r0, r3]
2000cd30:	e1a03002 	mov	r3, r2
2000cd34:	e1a02103 	lsl	r2, r3, #2
2000cd38:	e1a03102 	lsl	r3, r2, #2
2000cd3c:	e0623003 	rsb	r3, r2, r3
2000cd40:	e0812003 	add	r2, r1, r3
2000cd44:	e3a03000 	mov	r3, #0	; 0x0
2000cd48:	e5823000 	str	r3, [r2]
2000cd4c:	e55b200d 	ldrb	r2, [fp, #-13]
2000cd50:	e59f3080 	ldr	r3, [pc, #128]	; 2000cdd8 <vk_init_thread_join_table+0xe8>
2000cd54:	e51b0018 	ldr	r0, [fp, #-24]
2000cd58:	e7901003 	ldr	r1, [r0, r3]
2000cd5c:	e3a00004 	mov	r0, #4	; 0x4
2000cd60:	e1a03002 	mov	r3, r2
2000cd64:	e1a02103 	lsl	r2, r3, #2
2000cd68:	e1a03102 	lsl	r3, r2, #2
2000cd6c:	e0623003 	rsb	r3, r2, r3
2000cd70:	e0813003 	add	r3, r1, r3
2000cd74:	e0832000 	add	r2, r3, r0
2000cd78:	e3a03000 	mov	r3, #0	; 0x0
2000cd7c:	e5823000 	str	r3, [r2]
2000cd80:	e55b200d 	ldrb	r2, [fp, #-13]
2000cd84:	e59f304c 	ldr	r3, [pc, #76]	; 2000cdd8 <vk_init_thread_join_table+0xe8>
2000cd88:	e51b0018 	ldr	r0, [fp, #-24]
2000cd8c:	e7901003 	ldr	r1, [r0, r3]
2000cd90:	e3a00008 	mov	r0, #8	; 0x8
2000cd94:	e1a03002 	mov	r3, r2
2000cd98:	e1a02103 	lsl	r2, r3, #2
2000cd9c:	e1a03102 	lsl	r3, r2, #2
2000cda0:	e0623003 	rsb	r3, r2, r3
2000cda4:	e0813003 	add	r3, r1, r3
2000cda8:	e0832000 	add	r2, r3, r0
2000cdac:	e3a03000 	mov	r3, #0	; 0x0
2000cdb0:	e5823000 	str	r3, [r2]
2000cdb4:	e55b300d 	ldrb	r3, [fp, #-13]
2000cdb8:	e2833001 	add	r3, r3, #1	; 0x1
2000cdbc:	e54b300d 	strb	r3, [fp, #-13]
2000cdc0:	e55b300d 	ldrb	r3, [fp, #-13]
2000cdc4:	e3530009 	cmp	r3, #9	; 0x9
2000cdc8:	9affffd4 	bls	2000cd20 <vk_init_thread_join_table+0x30>
2000cdcc:	e24bd00c 	sub	sp, fp, #12	; 0xc
2000cdd0:	e89da800 	ldm	sp, {fp, sp, pc}
2000cdd4:	00006874 	.word	0x00006874
2000cdd8:	000000c4 	.word	0x000000c4

2000cddc <vk_init_tcb_log_queue>:
2000cddc:	e1a0c00d 	mov	ip, sp
2000cde0:	e92dd800 	push	{fp, ip, lr, pc}
2000cde4:	e24cb004 	sub	fp, ip, #4	; 0x4
2000cde8:	e24dd010 	sub	sp, sp, #16	; 0x10
2000cdec:	e59f00c8 	ldr	r0, [pc, #200]	; 2000cebc <vk_init_tcb_log_queue+0xe0>
2000cdf0:	e50b0018 	str	r0, [fp, #-24]
2000cdf4:	e51b1018 	ldr	r1, [fp, #-24]
2000cdf8:	e08f1001 	add	r1, pc, r1
2000cdfc:	e50b1018 	str	r1, [fp, #-24]
2000ce00:	e3a03000 	mov	r3, #0	; 0x0
2000ce04:	e54b300d 	strb	r3, [fp, #-13]
2000ce08:	ea000026 	b	2000cea8 <vk_init_tcb_log_queue+0xcc>
2000ce0c:	e55b100d 	ldrb	r1, [fp, #-13]
2000ce10:	e55b200d 	ldrb	r2, [fp, #-13]
2000ce14:	e59f30a4 	ldr	r3, [pc, #164]	; 2000cec0 <vk_init_tcb_log_queue+0xe4>
2000ce18:	e51b0018 	ldr	r0, [fp, #-24]
2000ce1c:	e7903003 	ldr	r3, [r0, r3]
2000ce20:	e7832201 	str	r2, [r3, r1, lsl #4]
2000ce24:	e55b000d 	ldrb	r0, [fp, #-13]
2000ce28:	e59f3090 	ldr	r3, [pc, #144]	; 2000cec0 <vk_init_tcb_log_queue+0xe4>
2000ce2c:	e51b1018 	ldr	r1, [fp, #-24]
2000ce30:	e7912003 	ldr	r2, [r1, r3]
2000ce34:	e3a01004 	mov	r1, #4	; 0x4
2000ce38:	e1a03200 	lsl	r3, r0, #4
2000ce3c:	e0823003 	add	r3, r2, r3
2000ce40:	e0832001 	add	r2, r3, r1
2000ce44:	e3a03000 	mov	r3, #0	; 0x0
2000ce48:	e5823000 	str	r3, [r2]
2000ce4c:	e55b200d 	ldrb	r2, [fp, #-13]
2000ce50:	e59f3068 	ldr	r3, [pc, #104]	; 2000cec0 <vk_init_tcb_log_queue+0xe4>
2000ce54:	e51b0018 	ldr	r0, [fp, #-24]
2000ce58:	e7901003 	ldr	r1, [r0, r3]
2000ce5c:	e1a03082 	lsl	r3, r2, #1
2000ce60:	e2832001 	add	r2, r3, #1	; 0x1
2000ce64:	e3a03000 	mov	r3, #0	; 0x0
2000ce68:	e7813182 	str	r3, [r1, r2, lsl #3]
2000ce6c:	e55b200d 	ldrb	r2, [fp, #-13]
2000ce70:	e59f3048 	ldr	r3, [pc, #72]	; 2000cec0 <vk_init_tcb_log_queue+0xe4>
2000ce74:	e51b0018 	ldr	r0, [fp, #-24]
2000ce78:	e7901003 	ldr	r1, [r0, r3]
2000ce7c:	e1a03082 	lsl	r3, r2, #1
2000ce80:	e2833001 	add	r3, r3, #1	; 0x1
2000ce84:	e3a02004 	mov	r2, #4	; 0x4
2000ce88:	e1a03183 	lsl	r3, r3, #3
2000ce8c:	e0813003 	add	r3, r1, r3
2000ce90:	e0832002 	add	r2, r3, r2
2000ce94:	e3a03000 	mov	r3, #0	; 0x0
2000ce98:	e5823000 	str	r3, [r2]
2000ce9c:	e55b300d 	ldrb	r3, [fp, #-13]
2000cea0:	e2833001 	add	r3, r3, #1	; 0x1
2000cea4:	e54b300d 	strb	r3, [fp, #-13]
2000cea8:	e55b300d 	ldrb	r3, [fp, #-13]
2000ceac:	e353001f 	cmp	r3, #31	; 0x1f
2000ceb0:	9affffd5 	bls	2000ce0c <vk_init_tcb_log_queue+0x30>
2000ceb4:	e24bd00c 	sub	sp, fp, #12	; 0xc
2000ceb8:	e89da800 	ldm	sp, {fp, sp, pc}
2000cebc:	00006788 	.word	0x00006788
2000cec0:	00000098 	.word	0x00000098

2000cec4 <vk_init_wait_queue>:
2000cec4:	e1a0c00d 	mov	ip, sp
2000cec8:	e92dd800 	push	{fp, ip, lr, pc}
2000cecc:	e24cb004 	sub	fp, ip, #4	; 0x4
2000ced0:	e24dd010 	sub	sp, sp, #16	; 0x10
2000ced4:	e59f00c8 	ldr	r0, [pc, #200]	; 2000cfa4 <vk_init_wait_queue+0xe0>
2000ced8:	e50b0018 	str	r0, [fp, #-24]
2000cedc:	e51b1018 	ldr	r1, [fp, #-24]
2000cee0:	e08f1001 	add	r1, pc, r1
2000cee4:	e50b1018 	str	r1, [fp, #-24]
2000cee8:	e3a03000 	mov	r3, #0	; 0x0
2000ceec:	e54b300d 	strb	r3, [fp, #-13]
2000cef0:	ea000026 	b	2000cf90 <vk_init_wait_queue+0xcc>
2000cef4:	e55b100d 	ldrb	r1, [fp, #-13]
2000cef8:	e55b200d 	ldrb	r2, [fp, #-13]
2000cefc:	e59f30a4 	ldr	r3, [pc, #164]	; 2000cfa8 <vk_init_wait_queue+0xe4>
2000cf00:	e51b0018 	ldr	r0, [fp, #-24]
2000cf04:	e7903003 	ldr	r3, [r0, r3]
2000cf08:	e7832201 	str	r2, [r3, r1, lsl #4]
2000cf0c:	e55b000d 	ldrb	r0, [fp, #-13]
2000cf10:	e59f3090 	ldr	r3, [pc, #144]	; 2000cfa8 <vk_init_wait_queue+0xe4>
2000cf14:	e51b1018 	ldr	r1, [fp, #-24]
2000cf18:	e7912003 	ldr	r2, [r1, r3]
2000cf1c:	e3a01004 	mov	r1, #4	; 0x4
2000cf20:	e1a03200 	lsl	r3, r0, #4
2000cf24:	e0823003 	add	r3, r2, r3
2000cf28:	e0832001 	add	r2, r3, r1
2000cf2c:	e3a03000 	mov	r3, #0	; 0x0
2000cf30:	e5823000 	str	r3, [r2]
2000cf34:	e55b200d 	ldrb	r2, [fp, #-13]
2000cf38:	e59f3068 	ldr	r3, [pc, #104]	; 2000cfa8 <vk_init_wait_queue+0xe4>
2000cf3c:	e51b0018 	ldr	r0, [fp, #-24]
2000cf40:	e7901003 	ldr	r1, [r0, r3]
2000cf44:	e1a03082 	lsl	r3, r2, #1
2000cf48:	e2832001 	add	r2, r3, #1	; 0x1
2000cf4c:	e3a03000 	mov	r3, #0	; 0x0
2000cf50:	e7813182 	str	r3, [r1, r2, lsl #3]
2000cf54:	e55b200d 	ldrb	r2, [fp, #-13]
2000cf58:	e59f3048 	ldr	r3, [pc, #72]	; 2000cfa8 <vk_init_wait_queue+0xe4>
2000cf5c:	e51b0018 	ldr	r0, [fp, #-24]
2000cf60:	e7901003 	ldr	r1, [r0, r3]
2000cf64:	e1a03082 	lsl	r3, r2, #1
2000cf68:	e2833001 	add	r3, r3, #1	; 0x1
2000cf6c:	e3a02004 	mov	r2, #4	; 0x4
2000cf70:	e1a03183 	lsl	r3, r3, #3
2000cf74:	e0813003 	add	r3, r1, r3
2000cf78:	e0832002 	add	r2, r3, r2
2000cf7c:	e3a03000 	mov	r3, #0	; 0x0
2000cf80:	e5823000 	str	r3, [r2]
2000cf84:	e55b300d 	ldrb	r3, [fp, #-13]
2000cf88:	e2833001 	add	r3, r3, #1	; 0x1
2000cf8c:	e54b300d 	strb	r3, [fp, #-13]
2000cf90:	e55b300d 	ldrb	r3, [fp, #-13]
2000cf94:	e353001f 	cmp	r3, #31	; 0x1f
2000cf98:	9affffd5 	bls	2000cef4 <vk_init_wait_queue+0x30>
2000cf9c:	e24bd00c 	sub	sp, fp, #12	; 0xc
2000cfa0:	e89da800 	ldm	sp, {fp, sp, pc}
2000cfa4:	000066a0 	.word	0x000066a0
2000cfa8:	000000b8 	.word	0x000000b8

2000cfac <vk_init_ready_queue>:
2000cfac:	e1a0c00d 	mov	ip, sp
2000cfb0:	e92dd800 	push	{fp, ip, lr, pc}
2000cfb4:	e24cb004 	sub	fp, ip, #4	; 0x4
2000cfb8:	e24dd010 	sub	sp, sp, #16	; 0x10
2000cfbc:	e59f00c8 	ldr	r0, [pc, #200]	; 2000d08c <vk_init_ready_queue+0xe0>
2000cfc0:	e50b0018 	str	r0, [fp, #-24]
2000cfc4:	e51b1018 	ldr	r1, [fp, #-24]
2000cfc8:	e08f1001 	add	r1, pc, r1
2000cfcc:	e50b1018 	str	r1, [fp, #-24]
2000cfd0:	e3a03000 	mov	r3, #0	; 0x0
2000cfd4:	e54b300d 	strb	r3, [fp, #-13]
2000cfd8:	ea000026 	b	2000d078 <vk_init_ready_queue+0xcc>
2000cfdc:	e55b100d 	ldrb	r1, [fp, #-13]
2000cfe0:	e55b200d 	ldrb	r2, [fp, #-13]
2000cfe4:	e59f30a4 	ldr	r3, [pc, #164]	; 2000d090 <vk_init_ready_queue+0xe4>
2000cfe8:	e51b0018 	ldr	r0, [fp, #-24]
2000cfec:	e7903003 	ldr	r3, [r0, r3]
2000cff0:	e7832201 	str	r2, [r3, r1, lsl #4]
2000cff4:	e55b000d 	ldrb	r0, [fp, #-13]
2000cff8:	e59f3090 	ldr	r3, [pc, #144]	; 2000d090 <vk_init_ready_queue+0xe4>
2000cffc:	e51b1018 	ldr	r1, [fp, #-24]
2000d000:	e7912003 	ldr	r2, [r1, r3]
2000d004:	e3a01004 	mov	r1, #4	; 0x4
2000d008:	e1a03200 	lsl	r3, r0, #4
2000d00c:	e0823003 	add	r3, r2, r3
2000d010:	e0832001 	add	r2, r3, r1
2000d014:	e3a03000 	mov	r3, #0	; 0x0
2000d018:	e5823000 	str	r3, [r2]
2000d01c:	e55b200d 	ldrb	r2, [fp, #-13]
2000d020:	e59f3068 	ldr	r3, [pc, #104]	; 2000d090 <vk_init_ready_queue+0xe4>
2000d024:	e51b0018 	ldr	r0, [fp, #-24]
2000d028:	e7901003 	ldr	r1, [r0, r3]
2000d02c:	e1a03082 	lsl	r3, r2, #1
2000d030:	e2832001 	add	r2, r3, #1	; 0x1
2000d034:	e3a03000 	mov	r3, #0	; 0x0
2000d038:	e7813182 	str	r3, [r1, r2, lsl #3]
2000d03c:	e55b200d 	ldrb	r2, [fp, #-13]
2000d040:	e59f3048 	ldr	r3, [pc, #72]	; 2000d090 <vk_init_ready_queue+0xe4>
2000d044:	e51b0018 	ldr	r0, [fp, #-24]
2000d048:	e7901003 	ldr	r1, [r0, r3]
2000d04c:	e1a03082 	lsl	r3, r2, #1
2000d050:	e2833001 	add	r3, r3, #1	; 0x1
2000d054:	e3a02004 	mov	r2, #4	; 0x4
2000d058:	e1a03183 	lsl	r3, r3, #3
2000d05c:	e0813003 	add	r3, r1, r3
2000d060:	e0832002 	add	r2, r3, r2
2000d064:	e3a03000 	mov	r3, #0	; 0x0
2000d068:	e5823000 	str	r3, [r2]
2000d06c:	e55b300d 	ldrb	r3, [fp, #-13]
2000d070:	e2833001 	add	r3, r3, #1	; 0x1
2000d074:	e54b300d 	strb	r3, [fp, #-13]
2000d078:	e55b300d 	ldrb	r3, [fp, #-13]
2000d07c:	e353001f 	cmp	r3, #31	; 0x1f
2000d080:	9affffd5 	bls	2000cfdc <vk_init_ready_queue+0x30>
2000d084:	e24bd00c 	sub	sp, fp, #12	; 0xc
2000d088:	e89da800 	ldm	sp, {fp, sp, pc}
2000d08c:	000065b8 	.word	0x000065b8
2000d090:	0000007c 	.word	0x0000007c

2000d094 <vk_enqueue>:
2000d094:	e1a0c00d 	mov	ip, sp
2000d098:	e92dd800 	push	{fp, ip, lr, pc}
2000d09c:	e24cb004 	sub	fp, ip, #4	; 0x4
2000d0a0:	e24dd010 	sub	sp, sp, #16	; 0x10
2000d0a4:	e59f2050 	ldr	r2, [pc, #80]	; 2000d0fc <vk_enqueue+0x68>
2000d0a8:	e08f2002 	add	r2, pc, r2
2000d0ac:	e50b0018 	str	r0, [fp, #-24]
2000d0b0:	e50b101c 	str	r1, [fp, #-28]
2000d0b4:	e59f3044 	ldr	r3, [pc, #68]	; 2000d100 <vk_enqueue+0x6c>
2000d0b8:	e7923003 	ldr	r3, [r2, r3]
2000d0bc:	e5933000 	ldr	r3, [r3]
2000d0c0:	e5933038 	ldr	r3, [r3, #56]
2000d0c4:	e50b3010 	str	r3, [fp, #-16]
2000d0c8:	e51b3010 	ldr	r3, [fp, #-16]
2000d0cc:	e3530000 	cmp	r3, #0	; 0x0
2000d0d0:	1a000000 	bne	2000d0d8 <vk_enqueue+0x44>
2000d0d4:	ebfff1a5 	bl	20009770 <vk_disable_interrupt>
2000d0d8:	e51b0018 	ldr	r0, [fp, #-24]
2000d0dc:	e51b101c 	ldr	r1, [fp, #-28]
2000d0e0:	eb000007 	bl	2000d104 <vk_thread_enqueue>
2000d0e4:	e51b3010 	ldr	r3, [fp, #-16]
2000d0e8:	e3530000 	cmp	r3, #0	; 0x0
2000d0ec:	1a000000 	bne	2000d0f4 <vk_enqueue+0x60>
2000d0f0:	ebfff189 	bl	2000971c <vk_enable_interrupt>
2000d0f4:	e24bd00c 	sub	sp, fp, #12	; 0xc
2000d0f8:	e89da800 	ldm	sp, {fp, sp, pc}
2000d0fc:	000064d8 	.word	0x000064d8
2000d100:	000000ac 	.word	0x000000ac

2000d104 <vk_thread_enqueue>:
2000d104:	e1a0c00d 	mov	ip, sp
2000d108:	e92dd800 	push	{fp, ip, lr, pc}
2000d10c:	e24cb004 	sub	fp, ip, #4	; 0x4
2000d110:	e24dd018 	sub	sp, sp, #24	; 0x18
2000d114:	e50b0020 	str	r0, [fp, #-32]
2000d118:	e50b1024 	str	r1, [fp, #-36]
2000d11c:	e51b3020 	ldr	r3, [fp, #-32]
2000d120:	e50b3014 	str	r3, [fp, #-20]
2000d124:	e51b3024 	ldr	r3, [fp, #-36]
2000d128:	e50b3018 	str	r3, [fp, #-24]
2000d12c:	e51b3020 	ldr	r3, [fp, #-32]
2000d130:	e5933008 	ldr	r3, [r3, #8]
2000d134:	e50b3010 	str	r3, [fp, #-16]
2000d138:	e51b3010 	ldr	r3, [fp, #-16]
2000d13c:	e1a02203 	lsl	r2, r3, #4
2000d140:	e51b3018 	ldr	r3, [fp, #-24]
2000d144:	e0833002 	add	r3, r3, r2
2000d148:	e5933008 	ldr	r3, [r3, #8]
2000d14c:	e3530000 	cmp	r3, #0	; 0x0
2000d150:	0a00001d 	beq	2000d1cc <vk_thread_enqueue+0xc8>
2000d154:	e51b3010 	ldr	r3, [fp, #-16]
2000d158:	e1a02203 	lsl	r2, r3, #4
2000d15c:	e51b3018 	ldr	r3, [fp, #-24]
2000d160:	e0833002 	add	r3, r3, r2
2000d164:	e593300c 	ldr	r3, [r3, #12]
2000d168:	e50b3014 	str	r3, [fp, #-20]
2000d16c:	e51b3010 	ldr	r3, [fp, #-16]
2000d170:	e1a02203 	lsl	r2, r3, #4
2000d174:	e51b3018 	ldr	r3, [fp, #-24]
2000d178:	e0832002 	add	r2, r3, r2
2000d17c:	e51b3020 	ldr	r3, [fp, #-32]
2000d180:	e582300c 	str	r3, [r2, #12]
2000d184:	e51b3010 	ldr	r3, [fp, #-16]
2000d188:	e1a02203 	lsl	r2, r3, #4
2000d18c:	e51b3018 	ldr	r3, [fp, #-24]
2000d190:	e0833002 	add	r3, r3, r2
2000d194:	e593200c 	ldr	r2, [r3, #12]
2000d198:	e3a03000 	mov	r3, #0	; 0x0
2000d19c:	e582303c 	str	r3, [r2, #60]
2000d1a0:	e51b2014 	ldr	r2, [fp, #-20]
2000d1a4:	e51b3020 	ldr	r3, [fp, #-32]
2000d1a8:	e582303c 	str	r3, [r2, #60]
2000d1ac:	e51b3010 	ldr	r3, [fp, #-16]
2000d1b0:	e1a02203 	lsl	r2, r3, #4
2000d1b4:	e51b3018 	ldr	r3, [fp, #-24]
2000d1b8:	e0832002 	add	r2, r3, r2
2000d1bc:	e5923004 	ldr	r3, [r2, #4]
2000d1c0:	e2833001 	add	r3, r3, #1	; 0x1
2000d1c4:	e5823004 	str	r3, [r2, #4]
2000d1c8:	ea000019 	b	2000d234 <vk_thread_enqueue+0x130>
2000d1cc:	e51b3010 	ldr	r3, [fp, #-16]
2000d1d0:	e1a02203 	lsl	r2, r3, #4
2000d1d4:	e51b3018 	ldr	r3, [fp, #-24]
2000d1d8:	e0832002 	add	r2, r3, r2
2000d1dc:	e51b3020 	ldr	r3, [fp, #-32]
2000d1e0:	e5823008 	str	r3, [r2, #8]
2000d1e4:	e51b3010 	ldr	r3, [fp, #-16]
2000d1e8:	e1a02203 	lsl	r2, r3, #4
2000d1ec:	e51b3018 	ldr	r3, [fp, #-24]
2000d1f0:	e0832002 	add	r2, r3, r2
2000d1f4:	e51b3020 	ldr	r3, [fp, #-32]
2000d1f8:	e582300c 	str	r3, [r2, #12]
2000d1fc:	e51b3010 	ldr	r3, [fp, #-16]
2000d200:	e1a02203 	lsl	r2, r3, #4
2000d204:	e51b3018 	ldr	r3, [fp, #-24]
2000d208:	e0833002 	add	r3, r3, r2
2000d20c:	e593200c 	ldr	r2, [r3, #12]
2000d210:	e3a03000 	mov	r3, #0	; 0x0
2000d214:	e582303c 	str	r3, [r2, #60]
2000d218:	e51b3010 	ldr	r3, [fp, #-16]
2000d21c:	e1a02203 	lsl	r2, r3, #4
2000d220:	e51b3018 	ldr	r3, [fp, #-24]
2000d224:	e0832002 	add	r2, r3, r2
2000d228:	e5923004 	ldr	r3, [r2, #4]
2000d22c:	e2833001 	add	r3, r3, #1	; 0x1
2000d230:	e5823004 	str	r3, [r2, #4]
2000d234:	e24bd00c 	sub	sp, fp, #12	; 0xc
2000d238:	e89da800 	ldm	sp, {fp, sp, pc}

2000d23c <vk_dequeue>:
2000d23c:	e1a0c00d 	mov	ip, sp
2000d240:	e92dd800 	push	{fp, ip, lr, pc}
2000d244:	e24cb004 	sub	fp, ip, #4	; 0x4
2000d248:	e24dd010 	sub	sp, sp, #16	; 0x10
2000d24c:	e59f2060 	ldr	r2, [pc, #96]	; 2000d2b4 <vk_dequeue+0x78>
2000d250:	e08f2002 	add	r2, pc, r2
2000d254:	e50b0018 	str	r0, [fp, #-24]
2000d258:	e50b101c 	str	r1, [fp, #-28]
2000d25c:	e59f3054 	ldr	r3, [pc, #84]	; 2000d2b8 <vk_dequeue+0x7c>
2000d260:	e7923003 	ldr	r3, [r2, r3]
2000d264:	e5933000 	ldr	r3, [r3]
2000d268:	e5933038 	ldr	r3, [r3, #56]
2000d26c:	e50b3014 	str	r3, [fp, #-20]
2000d270:	e51b3014 	ldr	r3, [fp, #-20]
2000d274:	e3530000 	cmp	r3, #0	; 0x0
2000d278:	1a000000 	bne	2000d280 <vk_dequeue+0x44>
2000d27c:	ebfff13b 	bl	20009770 <vk_disable_interrupt>
2000d280:	e51b0018 	ldr	r0, [fp, #-24]
2000d284:	e51b101c 	ldr	r1, [fp, #-28]
2000d288:	eb00000b 	bl	2000d2bc <vk_thread_dequeue>
2000d28c:	e1a03000 	mov	r3, r0
2000d290:	e50b3010 	str	r3, [fp, #-16]
2000d294:	e51b3014 	ldr	r3, [fp, #-20]
2000d298:	e3530000 	cmp	r3, #0	; 0x0
2000d29c:	1a000000 	bne	2000d2a4 <vk_dequeue+0x68>
2000d2a0:	ebfff11d 	bl	2000971c <vk_enable_interrupt>
2000d2a4:	e51b3010 	ldr	r3, [fp, #-16]
2000d2a8:	e1a00003 	mov	r0, r3
2000d2ac:	e24bd00c 	sub	sp, fp, #12	; 0xc
2000d2b0:	e89da800 	ldm	sp, {fp, sp, pc}
2000d2b4:	00006330 	.word	0x00006330
2000d2b8:	000000ac 	.word	0x000000ac

2000d2bc <vk_thread_dequeue>:
2000d2bc:	e1a0c00d 	mov	ip, sp
2000d2c0:	e92dd800 	push	{fp, ip, lr, pc}
2000d2c4:	e24cb004 	sub	fp, ip, #4	; 0x4
2000d2c8:	e24dd030 	sub	sp, sp, #48	; 0x30
2000d2cc:	e50b0030 	str	r0, [fp, #-48]
2000d2d0:	e50b1034 	str	r1, [fp, #-52]
2000d2d4:	e51b3030 	ldr	r3, [fp, #-48]
2000d2d8:	e5933008 	ldr	r3, [r3, #8]
2000d2dc:	e50b3010 	str	r3, [fp, #-16]
2000d2e0:	e51b3034 	ldr	r3, [fp, #-52]
2000d2e4:	e50b3014 	str	r3, [fp, #-20]
2000d2e8:	e51b3010 	ldr	r3, [fp, #-16]
2000d2ec:	e1a02203 	lsl	r2, r3, #4
2000d2f0:	e51b3014 	ldr	r3, [fp, #-20]
2000d2f4:	e0833002 	add	r3, r3, r2
2000d2f8:	e50b3018 	str	r3, [fp, #-24]
2000d2fc:	e51b3030 	ldr	r3, [fp, #-48]
2000d300:	e5933004 	ldr	r3, [r3, #4]
2000d304:	e50b3024 	str	r3, [fp, #-36]
2000d308:	e51b3018 	ldr	r3, [fp, #-24]
2000d30c:	e5933008 	ldr	r3, [r3, #8]
2000d310:	e50b301c 	str	r3, [fp, #-28]
2000d314:	e51b301c 	ldr	r3, [fp, #-28]
2000d318:	e50b3020 	str	r3, [fp, #-32]
2000d31c:	ea000004 	b	2000d334 <vk_thread_dequeue+0x78>
2000d320:	e51b3020 	ldr	r3, [fp, #-32]
2000d324:	e50b301c 	str	r3, [fp, #-28]
2000d328:	e51b3020 	ldr	r3, [fp, #-32]
2000d32c:	e593303c 	ldr	r3, [r3, #60]
2000d330:	e50b3020 	str	r3, [fp, #-32]
2000d334:	e51b3020 	ldr	r3, [fp, #-32]
2000d338:	e3530000 	cmp	r3, #0	; 0x0
2000d33c:	0a000004 	beq	2000d354 <vk_thread_dequeue+0x98>
2000d340:	e51b3020 	ldr	r3, [fp, #-32]
2000d344:	e5932004 	ldr	r2, [r3, #4]
2000d348:	e51b3024 	ldr	r3, [fp, #-36]
2000d34c:	e1520003 	cmp	r2, r3
2000d350:	1afffff2 	bne	2000d320 <vk_thread_dequeue+0x64>
2000d354:	e51b3020 	ldr	r3, [fp, #-32]
2000d358:	e3530000 	cmp	r3, #0	; 0x0
2000d35c:	1a000002 	bne	2000d36c <vk_thread_dequeue+0xb0>
2000d360:	e3a03000 	mov	r3, #0	; 0x0
2000d364:	e50b3038 	str	r3, [fp, #-56]
2000d368:	ea000043 	b	2000d47c <vk_thread_dequeue+0x1c0>
2000d36c:	e51b3018 	ldr	r3, [fp, #-24]
2000d370:	e5933004 	ldr	r3, [r3, #4]
2000d374:	e2432001 	sub	r2, r3, #1	; 0x1
2000d378:	e51b3018 	ldr	r3, [fp, #-24]
2000d37c:	e5832004 	str	r2, [r3, #4]
2000d380:	e51b3018 	ldr	r3, [fp, #-24]
2000d384:	e5933004 	ldr	r3, [r3, #4]
2000d388:	e50b3028 	str	r3, [fp, #-40]
2000d38c:	e51b3018 	ldr	r3, [fp, #-24]
2000d390:	e5932008 	ldr	r2, [r3, #8]
2000d394:	e51b3020 	ldr	r3, [fp, #-32]
2000d398:	e1520003 	cmp	r2, r3
2000d39c:	1a000010 	bne	2000d3e4 <vk_thread_dequeue+0x128>
2000d3a0:	e51b3020 	ldr	r3, [fp, #-32]
2000d3a4:	e593203c 	ldr	r2, [r3, #60]
2000d3a8:	e51b3018 	ldr	r3, [fp, #-24]
2000d3ac:	e5832008 	str	r2, [r3, #8]
2000d3b0:	e51b3028 	ldr	r3, [fp, #-40]
2000d3b4:	e3530000 	cmp	r3, #0	; 0x0
2000d3b8:	1a00002d 	bne	2000d474 <vk_thread_dequeue+0x1b8>
2000d3bc:	e51b2018 	ldr	r2, [fp, #-24]
2000d3c0:	e3a03000 	mov	r3, #0	; 0x0
2000d3c4:	e5823008 	str	r3, [r2, #8]
2000d3c8:	e51b2018 	ldr	r2, [fp, #-24]
2000d3cc:	e3a03000 	mov	r3, #0	; 0x0
2000d3d0:	e582300c 	str	r3, [r2, #12]
2000d3d4:	e51b2020 	ldr	r2, [fp, #-32]
2000d3d8:	e3a03000 	mov	r3, #0	; 0x0
2000d3dc:	e582303c 	str	r3, [r2, #60]
2000d3e0:	ea000023 	b	2000d474 <vk_thread_dequeue+0x1b8>
2000d3e4:	e51b3020 	ldr	r3, [fp, #-32]
2000d3e8:	e593303c 	ldr	r3, [r3, #60]
2000d3ec:	e3530000 	cmp	r3, #0	; 0x0
2000d3f0:	1a00000f 	bne	2000d434 <vk_thread_dequeue+0x178>
2000d3f4:	e51b201c 	ldr	r2, [fp, #-28]
2000d3f8:	e3a03000 	mov	r3, #0	; 0x0
2000d3fc:	e582303c 	str	r3, [r2, #60]
2000d400:	e51b2018 	ldr	r2, [fp, #-24]
2000d404:	e51b301c 	ldr	r3, [fp, #-28]
2000d408:	e582300c 	str	r3, [r2, #12]
2000d40c:	e51b3028 	ldr	r3, [fp, #-40]
2000d410:	e3530000 	cmp	r3, #0	; 0x0
2000d414:	1a000016 	bne	2000d474 <vk_thread_dequeue+0x1b8>
2000d418:	e51b2018 	ldr	r2, [fp, #-24]
2000d41c:	e3a03000 	mov	r3, #0	; 0x0
2000d420:	e5823008 	str	r3, [r2, #8]
2000d424:	e51b2018 	ldr	r2, [fp, #-24]
2000d428:	e3a03000 	mov	r3, #0	; 0x0
2000d42c:	e582300c 	str	r3, [r2, #12]
2000d430:	ea00000f 	b	2000d474 <vk_thread_dequeue+0x1b8>
2000d434:	e51b3020 	ldr	r3, [fp, #-32]
2000d438:	e593203c 	ldr	r2, [r3, #60]
2000d43c:	e51b301c 	ldr	r3, [fp, #-28]
2000d440:	e583203c 	str	r2, [r3, #60]
2000d444:	e51b3028 	ldr	r3, [fp, #-40]
2000d448:	e3530000 	cmp	r3, #0	; 0x0
2000d44c:	1a000008 	bne	2000d474 <vk_thread_dequeue+0x1b8>
2000d450:	e51b2018 	ldr	r2, [fp, #-24]
2000d454:	e3a03000 	mov	r3, #0	; 0x0
2000d458:	e5823008 	str	r3, [r2, #8]
2000d45c:	e51b2018 	ldr	r2, [fp, #-24]
2000d460:	e3a03000 	mov	r3, #0	; 0x0
2000d464:	e582300c 	str	r3, [r2, #12]
2000d468:	e51b2020 	ldr	r2, [fp, #-32]
2000d46c:	e3a03000 	mov	r3, #0	; 0x0
2000d470:	e582303c 	str	r3, [r2, #60]
2000d474:	e51b3030 	ldr	r3, [fp, #-48]
2000d478:	e50b3038 	str	r3, [fp, #-56]
2000d47c:	e51b3038 	ldr	r3, [fp, #-56]
2000d480:	e1a00003 	mov	r0, r3
2000d484:	e24bd00c 	sub	sp, fp, #12	; 0xc
2000d488:	e89da800 	ldm	sp, {fp, sp, pc}

2000d48c <vh_SecTime_interrupt_handler>:
2000d48c:	e1a0c00d 	mov	ip, sp
2000d490:	e92dd800 	push	{fp, ip, lr, pc}
2000d494:	e24cb004 	sub	fp, ip, #4	; 0x4
2000d498:	e24dd010 	sub	sp, sp, #16	; 0x10
2000d49c:	e59f0254 	ldr	r0, [pc, #596]	; 2000d6f8 <vh_SecTime_interrupt_handler+0x26c>
2000d4a0:	e50b001c 	str	r0, [fp, #-28]
2000d4a4:	e51b101c 	ldr	r1, [fp, #-28]
2000d4a8:	e08f1001 	add	r1, pc, r1
2000d4ac:	e50b101c 	str	r1, [fp, #-28]
2000d4b0:	e3a0244a 	mov	r2, #1241513984	; 0x4a000000
2000d4b4:	e3a03c01 	mov	r3, #256	; 0x100
2000d4b8:	e5823000 	str	r3, [r2]
2000d4bc:	e59f2238 	ldr	r2, [pc, #568]	; 2000d6fc <vh_SecTime_interrupt_handler+0x270>
2000d4c0:	e3a03c01 	mov	r3, #256	; 0x100
2000d4c4:	e5823000 	str	r3, [r2]
2000d4c8:	e59f322c 	ldr	r3, [pc, #556]	; 2000d6fc <vh_SecTime_interrupt_handler+0x270>
2000d4cc:	e5933000 	ldr	r3, [r3]
2000d4d0:	e59f3228 	ldr	r3, [pc, #552]	; 2000d700 <vh_SecTime_interrupt_handler+0x274>
2000d4d4:	e51b201c 	ldr	r2, [fp, #-28]
2000d4d8:	e7923003 	ldr	r3, [r2, r3]
2000d4dc:	e5933000 	ldr	r3, [r3]
2000d4e0:	e3530000 	cmp	r3, #0	; 0x0
2000d4e4:	0a00007f 	beq	2000d6e8 <vh_SecTime_interrupt_handler+0x25c>
2000d4e8:	e3a03000 	mov	r3, #0	; 0x0
2000d4ec:	e50b3010 	str	r3, [fp, #-16]
2000d4f0:	ea000079 	b	2000d6dc <vh_SecTime_interrupt_handler+0x250>
2000d4f4:	e51b2010 	ldr	r2, [fp, #-16]
2000d4f8:	e59f3204 	ldr	r3, [pc, #516]	; 2000d704 <vh_SecTime_interrupt_handler+0x278>
2000d4fc:	e51b001c 	ldr	r0, [fp, #-28]
2000d500:	e7901003 	ldr	r1, [r0, r3]
2000d504:	e3a00004 	mov	r0, #4	; 0x4
2000d508:	e1a03002 	mov	r3, r2
2000d50c:	e1a02103 	lsl	r2, r3, #2
2000d510:	e1a03102 	lsl	r3, r2, #2
2000d514:	e0623003 	rsb	r3, r2, r3
2000d518:	e0813003 	add	r3, r1, r3
2000d51c:	e0833000 	add	r3, r3, r0
2000d520:	e5933000 	ldr	r3, [r3]
2000d524:	e3530002 	cmp	r3, #2	; 0x2
2000d528:	1a000068 	bne	2000d6d0 <vh_SecTime_interrupt_handler+0x244>
2000d52c:	e51bc010 	ldr	ip, [fp, #-16]
2000d530:	e51b2010 	ldr	r2, [fp, #-16]
2000d534:	e59f31c8 	ldr	r3, [pc, #456]	; 2000d704 <vh_SecTime_interrupt_handler+0x278>
2000d538:	e51b001c 	ldr	r0, [fp, #-28]
2000d53c:	e7901003 	ldr	r1, [r0, r3]
2000d540:	e1a03002 	mov	r3, r2
2000d544:	e1a02103 	lsl	r2, r3, #2
2000d548:	e1a03102 	lsl	r3, r2, #2
2000d54c:	e0623003 	rsb	r3, r2, r3
2000d550:	e0813003 	add	r3, r1, r3
2000d554:	e5933000 	ldr	r3, [r3]
2000d558:	e2430001 	sub	r0, r3, #1	; 0x1
2000d55c:	e59f31a0 	ldr	r3, [pc, #416]	; 2000d704 <vh_SecTime_interrupt_handler+0x278>
2000d560:	e51b201c 	ldr	r2, [fp, #-28]
2000d564:	e7921003 	ldr	r1, [r2, r3]
2000d568:	e1a0300c 	mov	r3, ip
2000d56c:	e1a02103 	lsl	r2, r3, #2
2000d570:	e1a03102 	lsl	r3, r2, #2
2000d574:	e0623003 	rsb	r3, r2, r3
2000d578:	e0813003 	add	r3, r1, r3
2000d57c:	e5830000 	str	r0, [r3]
2000d580:	e51b2010 	ldr	r2, [fp, #-16]
2000d584:	e59f3178 	ldr	r3, [pc, #376]	; 2000d704 <vh_SecTime_interrupt_handler+0x278>
2000d588:	e51b001c 	ldr	r0, [fp, #-28]
2000d58c:	e7901003 	ldr	r1, [r0, r3]
2000d590:	e1a03002 	mov	r3, r2
2000d594:	e1a02103 	lsl	r2, r3, #2
2000d598:	e1a03102 	lsl	r3, r2, #2
2000d59c:	e0623003 	rsb	r3, r2, r3
2000d5a0:	e0813003 	add	r3, r1, r3
2000d5a4:	e5933000 	ldr	r3, [r3]
2000d5a8:	e3530000 	cmp	r3, #0	; 0x0
2000d5ac:	1a000047 	bne	2000d6d0 <vh_SecTime_interrupt_handler+0x244>
2000d5b0:	e51b2010 	ldr	r2, [fp, #-16]
2000d5b4:	e59f3148 	ldr	r3, [pc, #328]	; 2000d704 <vh_SecTime_interrupt_handler+0x278>
2000d5b8:	e51b001c 	ldr	r0, [fp, #-28]
2000d5bc:	e7901003 	ldr	r1, [r0, r3]
2000d5c0:	e3a00008 	mov	r0, #8	; 0x8
2000d5c4:	e1a03002 	mov	r3, r2
2000d5c8:	e1a02103 	lsl	r2, r3, #2
2000d5cc:	e1a03102 	lsl	r3, r2, #2
2000d5d0:	e0623003 	rsb	r3, r2, r3
2000d5d4:	e0813003 	add	r3, r1, r3
2000d5d8:	e0833000 	add	r3, r3, r0
2000d5dc:	e5932000 	ldr	r2, [r3]
2000d5e0:	e3a03001 	mov	r3, #1	; 0x1
2000d5e4:	e5823000 	str	r3, [r2]
2000d5e8:	e51b2010 	ldr	r2, [fp, #-16]
2000d5ec:	e59f3110 	ldr	r3, [pc, #272]	; 2000d704 <vh_SecTime_interrupt_handler+0x278>
2000d5f0:	e51b001c 	ldr	r0, [fp, #-28]
2000d5f4:	e7901003 	ldr	r1, [r0, r3]
2000d5f8:	e3a00008 	mov	r0, #8	; 0x8
2000d5fc:	e1a03002 	mov	r3, r2
2000d600:	e1a02103 	lsl	r2, r3, #2
2000d604:	e1a03102 	lsl	r3, r2, #2
2000d608:	e0623003 	rsb	r3, r2, r3
2000d60c:	e0813003 	add	r3, r1, r3
2000d610:	e0833000 	add	r3, r3, r0
2000d614:	e5933000 	ldr	r3, [r3]
2000d618:	e1a00003 	mov	r0, r3
2000d61c:	e59f30e4 	ldr	r3, [pc, #228]	; 2000d708 <vh_SecTime_interrupt_handler+0x27c>
2000d620:	e51b101c 	ldr	r1, [fp, #-28]
2000d624:	e7913003 	ldr	r3, [r1, r3]
2000d628:	e1a01003 	mov	r1, r3
2000d62c:	ebfffeb4 	bl	2000d104 <vk_thread_enqueue>
2000d630:	e51b2010 	ldr	r2, [fp, #-16]
2000d634:	e59f30c8 	ldr	r3, [pc, #200]	; 2000d704 <vh_SecTime_interrupt_handler+0x278>
2000d638:	e51b001c 	ldr	r0, [fp, #-28]
2000d63c:	e7901003 	ldr	r1, [r0, r3]
2000d640:	e3a00008 	mov	r0, #8	; 0x8
2000d644:	e1a03002 	mov	r3, r2
2000d648:	e1a02103 	lsl	r2, r3, #2
2000d64c:	e1a03102 	lsl	r3, r2, #2
2000d650:	e0623003 	rsb	r3, r2, r3
2000d654:	e0813003 	add	r3, r1, r3
2000d658:	e0833000 	add	r3, r3, r0
2000d65c:	e5933000 	ldr	r3, [r3]
2000d660:	e1a00003 	mov	r0, r3
2000d664:	e59f30a0 	ldr	r3, [pc, #160]	; 2000d70c <vh_SecTime_interrupt_handler+0x280>
2000d668:	e51b101c 	ldr	r1, [fp, #-28]
2000d66c:	e7913003 	ldr	r3, [r1, r3]
2000d670:	e1a01003 	mov	r1, r3
2000d674:	ebffff10 	bl	2000d2bc <vk_thread_dequeue>
2000d678:	e51b2010 	ldr	r2, [fp, #-16]
2000d67c:	e59f3080 	ldr	r3, [pc, #128]	; 2000d704 <vh_SecTime_interrupt_handler+0x278>
2000d680:	e51b001c 	ldr	r0, [fp, #-28]
2000d684:	e7901003 	ldr	r1, [r0, r3]
2000d688:	e3a00004 	mov	r0, #4	; 0x4
2000d68c:	e1a03002 	mov	r3, r2
2000d690:	e1a02103 	lsl	r2, r3, #2
2000d694:	e1a03102 	lsl	r3, r2, #2
2000d698:	e0623003 	rsb	r3, r2, r3
2000d69c:	e0813003 	add	r3, r1, r3
2000d6a0:	e0832000 	add	r2, r3, r0
2000d6a4:	e3a03000 	mov	r3, #0	; 0x0
2000d6a8:	e5823000 	str	r3, [r2]
2000d6ac:	e59f304c 	ldr	r3, [pc, #76]	; 2000d700 <vh_SecTime_interrupt_handler+0x274>
2000d6b0:	e51b101c 	ldr	r1, [fp, #-28]
2000d6b4:	e7913003 	ldr	r3, [r1, r3]
2000d6b8:	e5933000 	ldr	r3, [r3]
2000d6bc:	e2432001 	sub	r2, r3, #1	; 0x1
2000d6c0:	e59f3038 	ldr	r3, [pc, #56]	; 2000d700 <vh_SecTime_interrupt_handler+0x274>
2000d6c4:	e51b001c 	ldr	r0, [fp, #-28]
2000d6c8:	e7903003 	ldr	r3, [r0, r3]
2000d6cc:	e5832000 	str	r2, [r3]
2000d6d0:	e51b3010 	ldr	r3, [fp, #-16]
2000d6d4:	e2833001 	add	r3, r3, #1	; 0x1
2000d6d8:	e50b3010 	str	r3, [fp, #-16]
2000d6dc:	e51b3010 	ldr	r3, [fp, #-16]
2000d6e0:	e353001e 	cmp	r3, #30	; 0x1e
2000d6e4:	daffff82 	ble	2000d4f4 <vh_SecTime_interrupt_handler+0x68>
2000d6e8:	e3a03000 	mov	r3, #0	; 0x0
2000d6ec:	e1a00003 	mov	r0, r3
2000d6f0:	e24bd00c 	sub	sp, fp, #12	; 0xc
2000d6f4:	e89da800 	ldm	sp, {fp, sp, pc}
2000d6f8:	000060d8 	.word	0x000060d8
2000d6fc:	4a000010 	.word	0x4a000010
2000d700:	00000030 	.word	0x00000030
2000d704:	00000008 	.word	0x00000008
2000d708:	0000007c 	.word	0x0000007c
2000d70c:	000000b8 	.word	0x000000b8

2000d710 <vh_gettime>:
2000d710:	e1a0c00d 	mov	ip, sp
2000d714:	e92dd800 	push	{fp, ip, lr, pc}
2000d718:	e24cb004 	sub	fp, ip, #4	; 0x4
2000d71c:	e24dd008 	sub	sp, sp, #8	; 0x8
2000d720:	e50b0010 	str	r0, [fp, #-16]
2000d724:	eb0001ff 	bl	2000df28 <vk_scheduler_lock>
2000d728:	e59f30ac 	ldr	r3, [pc, #172]	; 2000d7dc <vh_gettime+0xcc>
2000d72c:	e5d33000 	ldrb	r3, [r3]
2000d730:	e20330ff 	and	r3, r3, #255	; 0xff
2000d734:	e2832a02 	add	r2, r3, #8192	; 0x2000
2000d738:	e51b3010 	ldr	r3, [fp, #-16]
2000d73c:	e5832000 	str	r2, [r3]
2000d740:	e59f3098 	ldr	r3, [pc, #152]	; 2000d7e0 <vh_gettime+0xd0>
2000d744:	e5d33000 	ldrb	r3, [r3]
2000d748:	e20330ff 	and	r3, r3, #255	; 0xff
2000d74c:	e1a02003 	mov	r2, r3
2000d750:	e51b3010 	ldr	r3, [fp, #-16]
2000d754:	e5832004 	str	r2, [r3, #4]
2000d758:	e59f3084 	ldr	r3, [pc, #132]	; 2000d7e4 <vh_gettime+0xd4>
2000d75c:	e5d33000 	ldrb	r3, [r3]
2000d760:	e20330ff 	and	r3, r3, #255	; 0xff
2000d764:	e1a02003 	mov	r2, r3
2000d768:	e51b3010 	ldr	r3, [fp, #-16]
2000d76c:	e583200c 	str	r2, [r3, #12]
2000d770:	e59f3070 	ldr	r3, [pc, #112]	; 2000d7e8 <vh_gettime+0xd8>
2000d774:	e5d33000 	ldrb	r3, [r3]
2000d778:	e20330ff 	and	r3, r3, #255	; 0xff
2000d77c:	e1a02003 	mov	r2, r3
2000d780:	e51b3010 	ldr	r3, [fp, #-16]
2000d784:	e5832008 	str	r2, [r3, #8]
2000d788:	e59f305c 	ldr	r3, [pc, #92]	; 2000d7ec <vh_gettime+0xdc>
2000d78c:	e5d33000 	ldrb	r3, [r3]
2000d790:	e20330ff 	and	r3, r3, #255	; 0xff
2000d794:	e1a02003 	mov	r2, r3
2000d798:	e51b3010 	ldr	r3, [fp, #-16]
2000d79c:	e5832010 	str	r2, [r3, #16]
2000d7a0:	e59f3048 	ldr	r3, [pc, #72]	; 2000d7f0 <vh_gettime+0xe0>
2000d7a4:	e5d33000 	ldrb	r3, [r3]
2000d7a8:	e20330ff 	and	r3, r3, #255	; 0xff
2000d7ac:	e1a02003 	mov	r2, r3
2000d7b0:	e51b3010 	ldr	r3, [fp, #-16]
2000d7b4:	e5832014 	str	r2, [r3, #20]
2000d7b8:	e59f3034 	ldr	r3, [pc, #52]	; 2000d7f4 <vh_gettime+0xe4>
2000d7bc:	e5d33000 	ldrb	r3, [r3]
2000d7c0:	e20330ff 	and	r3, r3, #255	; 0xff
2000d7c4:	e1a02003 	mov	r2, r3
2000d7c8:	e51b3010 	ldr	r3, [fp, #-16]
2000d7cc:	e5832018 	str	r2, [r3, #24]
2000d7d0:	eb0001ee 	bl	2000df90 <vk_scheduler_unlock>
2000d7d4:	e24bd00c 	sub	sp, fp, #12	; 0xc
2000d7d8:	e89da800 	ldm	sp, {fp, sp, pc}
2000d7dc:	57000088 	.word	0x57000088
2000d7e0:	57000084 	.word	0x57000084
2000d7e4:	57000080 	.word	0x57000080
2000d7e8:	5700007c 	.word	0x5700007c
2000d7ec:	57000078 	.word	0x57000078
2000d7f0:	57000074 	.word	0x57000074
2000d7f4:	57000070 	.word	0x57000070

2000d7f8 <vh_settime>:
2000d7f8:	e1a0c00d 	mov	ip, sp
2000d7fc:	e92dd800 	push	{fp, ip, lr, pc}
2000d800:	e24cb004 	sub	fp, ip, #4	; 0x4
2000d804:	e24dd008 	sub	sp, sp, #8	; 0x8
2000d808:	e50b0010 	str	r0, [fp, #-16]
2000d80c:	eb0001c5 	bl	2000df28 <vk_scheduler_lock>
2000d810:	e59f218c 	ldr	r2, [pc, #396]	; 2000d9a4 <vh_settime+0x1ac>
2000d814:	e59f3188 	ldr	r3, [pc, #392]	; 2000d9a4 <vh_settime+0x1ac>
2000d818:	e5d33000 	ldrb	r3, [r3]
2000d81c:	e20330ff 	and	r3, r3, #255	; 0xff
2000d820:	e20330ff 	and	r3, r3, #255	; 0xff
2000d824:	e20330f0 	and	r3, r3, #240	; 0xf0
2000d828:	e3833001 	orr	r3, r3, #1	; 0x1
2000d82c:	e20330ff 	and	r3, r3, #255	; 0xff
2000d830:	e20330ff 	and	r3, r3, #255	; 0xff
2000d834:	e5c23000 	strb	r3, [r2]
2000d838:	e59f3168 	ldr	r3, [pc, #360]	; 2000d9a8 <vh_settime+0x1b0>
2000d83c:	e5d33000 	ldrb	r3, [r3]
2000d840:	e59f2160 	ldr	r2, [pc, #352]	; 2000d9a8 <vh_settime+0x1b0>
2000d844:	e51b3010 	ldr	r3, [fp, #-16]
2000d848:	e5933000 	ldr	r3, [r3]
2000d84c:	e20330ff 	and	r3, r3, #255	; 0xff
2000d850:	e5c23000 	strb	r3, [r2]
2000d854:	e59f1150 	ldr	r1, [pc, #336]	; 2000d9ac <vh_settime+0x1b4>
2000d858:	e59f314c 	ldr	r3, [pc, #332]	; 2000d9ac <vh_settime+0x1b4>
2000d85c:	e5d33000 	ldrb	r3, [r3]
2000d860:	e20330ff 	and	r3, r3, #255	; 0xff
2000d864:	e20320ff 	and	r2, r3, #255	; 0xff
2000d868:	e20220e0 	and	r2, r2, #224	; 0xe0
2000d86c:	e51b3010 	ldr	r3, [fp, #-16]
2000d870:	e5933004 	ldr	r3, [r3, #4]
2000d874:	e20330ff 	and	r3, r3, #255	; 0xff
2000d878:	e1823003 	orr	r3, r2, r3
2000d87c:	e20330ff 	and	r3, r3, #255	; 0xff
2000d880:	e20330ff 	and	r3, r3, #255	; 0xff
2000d884:	e5c13000 	strb	r3, [r1]
2000d888:	e59f1120 	ldr	r1, [pc, #288]	; 2000d9b0 <vh_settime+0x1b8>
2000d88c:	e59f311c 	ldr	r3, [pc, #284]	; 2000d9b0 <vh_settime+0x1b8>
2000d890:	e5d33000 	ldrb	r3, [r3]
2000d894:	e20330ff 	and	r3, r3, #255	; 0xff
2000d898:	e20320ff 	and	r2, r3, #255	; 0xff
2000d89c:	e20220c0 	and	r2, r2, #192	; 0xc0
2000d8a0:	e51b3010 	ldr	r3, [fp, #-16]
2000d8a4:	e5933008 	ldr	r3, [r3, #8]
2000d8a8:	e20330ff 	and	r3, r3, #255	; 0xff
2000d8ac:	e1823003 	orr	r3, r2, r3
2000d8b0:	e20330ff 	and	r3, r3, #255	; 0xff
2000d8b4:	e20330ff 	and	r3, r3, #255	; 0xff
2000d8b8:	e5c13000 	strb	r3, [r1]
2000d8bc:	e59f10f0 	ldr	r1, [pc, #240]	; 2000d9b4 <vh_settime+0x1bc>
2000d8c0:	e59f30ec 	ldr	r3, [pc, #236]	; 2000d9b4 <vh_settime+0x1bc>
2000d8c4:	e5d33000 	ldrb	r3, [r3]
2000d8c8:	e20330ff 	and	r3, r3, #255	; 0xff
2000d8cc:	e20320ff 	and	r2, r3, #255	; 0xff
2000d8d0:	e20220f8 	and	r2, r2, #248	; 0xf8
2000d8d4:	e51b3010 	ldr	r3, [fp, #-16]
2000d8d8:	e593300c 	ldr	r3, [r3, #12]
2000d8dc:	e20330ff 	and	r3, r3, #255	; 0xff
2000d8e0:	e1823003 	orr	r3, r2, r3
2000d8e4:	e20330ff 	and	r3, r3, #255	; 0xff
2000d8e8:	e20330ff 	and	r3, r3, #255	; 0xff
2000d8ec:	e5c13000 	strb	r3, [r1]
2000d8f0:	e59f10c0 	ldr	r1, [pc, #192]	; 2000d9b8 <vh_settime+0x1c0>
2000d8f4:	e59f30bc 	ldr	r3, [pc, #188]	; 2000d9b8 <vh_settime+0x1c0>
2000d8f8:	e5d33000 	ldrb	r3, [r3]
2000d8fc:	e20330ff 	and	r3, r3, #255	; 0xff
2000d900:	e20320ff 	and	r2, r3, #255	; 0xff
2000d904:	e20220c0 	and	r2, r2, #192	; 0xc0
2000d908:	e51b3010 	ldr	r3, [fp, #-16]
2000d90c:	e5933010 	ldr	r3, [r3, #16]
2000d910:	e20330ff 	and	r3, r3, #255	; 0xff
2000d914:	e1823003 	orr	r3, r2, r3
2000d918:	e20330ff 	and	r3, r3, #255	; 0xff
2000d91c:	e20330ff 	and	r3, r3, #255	; 0xff
2000d920:	e5c13000 	strb	r3, [r1]
2000d924:	e59f1090 	ldr	r1, [pc, #144]	; 2000d9bc <vh_settime+0x1c4>
2000d928:	e59f308c 	ldr	r3, [pc, #140]	; 2000d9bc <vh_settime+0x1c4>
2000d92c:	e5d33000 	ldrb	r3, [r3]
2000d930:	e20330ff 	and	r3, r3, #255	; 0xff
2000d934:	e20320ff 	and	r2, r3, #255	; 0xff
2000d938:	e2022080 	and	r2, r2, #128	; 0x80
2000d93c:	e51b3010 	ldr	r3, [fp, #-16]
2000d940:	e5933014 	ldr	r3, [r3, #20]
2000d944:	e20330ff 	and	r3, r3, #255	; 0xff
2000d948:	e1823003 	orr	r3, r2, r3
2000d94c:	e20330ff 	and	r3, r3, #255	; 0xff
2000d950:	e20330ff 	and	r3, r3, #255	; 0xff
2000d954:	e5c13000 	strb	r3, [r1]
2000d958:	e59f1060 	ldr	r1, [pc, #96]	; 2000d9c0 <vh_settime+0x1c8>
2000d95c:	e59f305c 	ldr	r3, [pc, #92]	; 2000d9c0 <vh_settime+0x1c8>
2000d960:	e5d33000 	ldrb	r3, [r3]
2000d964:	e20330ff 	and	r3, r3, #255	; 0xff
2000d968:	e20320ff 	and	r2, r3, #255	; 0xff
2000d96c:	e2022080 	and	r2, r2, #128	; 0x80
2000d970:	e51b3010 	ldr	r3, [fp, #-16]
2000d974:	e5933018 	ldr	r3, [r3, #24]
2000d978:	e20330ff 	and	r3, r3, #255	; 0xff
2000d97c:	e1823003 	orr	r3, r2, r3
2000d980:	e20330ff 	and	r3, r3, #255	; 0xff
2000d984:	e20330ff 	and	r3, r3, #255	; 0xff
2000d988:	e5c13000 	strb	r3, [r1]
2000d98c:	e59f2010 	ldr	r2, [pc, #16]	; 2000d9a4 <vh_settime+0x1ac>
2000d990:	e3a03000 	mov	r3, #0	; 0x0
2000d994:	e5c23000 	strb	r3, [r2]
2000d998:	eb00017c 	bl	2000df90 <vk_scheduler_unlock>
2000d99c:	e24bd00c 	sub	sp, fp, #12	; 0xc
2000d9a0:	e89da800 	ldm	sp, {fp, sp, pc}
2000d9a4:	57000040 	.word	0x57000040
2000d9a8:	57000088 	.word	0x57000088
2000d9ac:	57000084 	.word	0x57000084
2000d9b0:	5700007c 	.word	0x5700007c
2000d9b4:	57000080 	.word	0x57000080
2000d9b8:	57000078 	.word	0x57000078
2000d9bc:	57000074 	.word	0x57000074
2000d9c0:	57000070 	.word	0x57000070

2000d9c4 <vh_timeInit>:
2000d9c4:	e1a0c00d 	mov	ip, sp
2000d9c8:	e92dd800 	push	{fp, ip, lr, pc}
2000d9cc:	e24cb004 	sub	fp, ip, #4	; 0x4
2000d9d0:	e24dd020 	sub	sp, sp, #32	; 0x20
2000d9d4:	e59f3044 	ldr	r3, [pc, #68]	; 2000da20 <vh_timeInit+0x5c>
2000d9d8:	e50b3028 	str	r3, [fp, #-40]
2000d9dc:	e3a03001 	mov	r3, #1	; 0x1
2000d9e0:	e50b3024 	str	r3, [fp, #-36]
2000d9e4:	e3a03001 	mov	r3, #1	; 0x1
2000d9e8:	e50b3020 	str	r3, [fp, #-32]
2000d9ec:	e3a03002 	mov	r3, #2	; 0x2
2000d9f0:	e50b301c 	str	r3, [fp, #-28]
2000d9f4:	e3a03000 	mov	r3, #0	; 0x0
2000d9f8:	e50b3018 	str	r3, [fp, #-24]
2000d9fc:	e3a03000 	mov	r3, #0	; 0x0
2000da00:	e50b3014 	str	r3, [fp, #-20]
2000da04:	e3a03000 	mov	r3, #0	; 0x0
2000da08:	e50b3010 	str	r3, [fp, #-16]
2000da0c:	e24b3028 	sub	r3, fp, #40	; 0x28
2000da10:	e1a00003 	mov	r0, r3
2000da14:	ebffff77 	bl	2000d7f8 <vh_settime>
2000da18:	e24bd00c 	sub	sp, fp, #12	; 0xc
2000da1c:	e89da800 	ldm	sp, {fp, sp, pc}
2000da20:	00002006 	.word	0x00002006

2000da24 <vh_rtc_init>:
2000da24:	e1a0c00d 	mov	ip, sp
2000da28:	e92dd800 	push	{fp, ip, lr, pc}
2000da2c:	e24cb004 	sub	fp, ip, #4	; 0x4
2000da30:	e24dd008 	sub	sp, sp, #8	; 0x8
2000da34:	e59f2058 	ldr	r2, [pc, #88]	; 2000da94 <vh_rtc_init+0x70>
2000da38:	e08f2002 	add	r2, pc, r2
2000da3c:	e3a03008 	mov	r3, #8	; 0x8
2000da40:	e50b3010 	str	r3, [fp, #-16]
2000da44:	e3a00008 	mov	r0, #8	; 0x8
2000da48:	e59f3048 	ldr	r3, [pc, #72]	; 2000da98 <vh_rtc_init+0x74>
2000da4c:	e0823003 	add	r3, r2, r3
2000da50:	e1a01003 	mov	r1, r3
2000da54:	e59f3040 	ldr	r3, [pc, #64]	; 2000da9c <vh_rtc_init+0x78>
2000da58:	e7923003 	ldr	r3, [r2, r3]
2000da5c:	e1a02003 	mov	r2, r3
2000da60:	e3a03008 	mov	r3, #8	; 0x8
2000da64:	ebffed15 	bl	20008ec0 <vu_register_dev>
2000da68:	e51b0010 	ldr	r0, [fp, #-16]
2000da6c:	ebffeee6 	bl	2000960c <vh_interrupt_unmask>
2000da70:	e59f2028 	ldr	r2, [pc, #40]	; 2000daa0 <vh_rtc_init+0x7c>
2000da74:	e3a03000 	mov	r3, #0	; 0x0
2000da78:	e5c23000 	strb	r3, [r2]
2000da7c:	e59f2020 	ldr	r2, [pc, #32]	; 2000daa4 <vh_rtc_init+0x80>
2000da80:	e3e03000 	mvn	r3, #0	; 0x0
2000da84:	e5c23000 	strb	r3, [r2]
2000da88:	ebffffcd 	bl	2000d9c4 <vh_timeInit>
2000da8c:	e24bd00c 	sub	sp, fp, #12	; 0xc
2000da90:	e89da800 	ldm	sp, {fp, sp, pc}
2000da94:	00005b48 	.word	0x00005b48
2000da98:	fffff9d8 	.word	0xfffff9d8
2000da9c:	00000074 	.word	0x00000074
2000daa0:	57000040 	.word	0x57000040
2000daa4:	57000044 	.word	0x57000044

2000daa8 <init_thread_pointer>:
2000daa8:	e1a0c00d 	mov	ip, sp
2000daac:	e92dd800 	push	{fp, ip, lr, pc}
2000dab0:	e24cb004 	sub	fp, ip, #4	; 0x4
2000dab4:	e59f2024 	ldr	r2, [pc, #36]	; 2000dae0 <init_thread_pointer+0x38>
2000dab8:	e08f2002 	add	r2, pc, r2
2000dabc:	e59f3020 	ldr	r3, [pc, #32]	; 2000dae4 <init_thread_pointer+0x3c>
2000dac0:	e7921003 	ldr	r1, [r2, r3]
2000dac4:	e3a03000 	mov	r3, #0	; 0x0
2000dac8:	e5813000 	str	r3, [r1]
2000dacc:	e59f3014 	ldr	r3, [pc, #20]	; 2000dae8 <init_thread_pointer+0x40>
2000dad0:	e7922003 	ldr	r2, [r2, r3]
2000dad4:	e3a03000 	mov	r3, #0	; 0x0
2000dad8:	e5823000 	str	r3, [r2]
2000dadc:	e89da800 	ldm	sp, {fp, sp, pc}
2000dae0:	00005ac8 	.word	0x00005ac8
2000dae4:	000000ac 	.word	0x000000ac
2000dae8:	000000c0 	.word	0x000000c0

2000daec <vk_scheduler>:
2000daec:	e1a0c00d 	mov	ip, sp
2000daf0:	e92dd800 	push	{fp, ip, lr, pc}
2000daf4:	e24cb004 	sub	fp, ip, #4	; 0x4
2000daf8:	e24dd010 	sub	sp, sp, #16	; 0x10
2000dafc:	e59f0330 	ldr	r0, [pc, #816]	; 2000de34 <vk_scheduler+0x348>
2000db00:	e50b0018 	str	r0, [fp, #-24]
2000db04:	e51b1018 	ldr	r1, [fp, #-24]
2000db08:	e08f1001 	add	r1, pc, r1
2000db0c:	e50b1018 	str	r1, [fp, #-24]
2000db10:	eb000104 	bl	2000df28 <vk_scheduler_lock>
2000db14:	eb000129 	bl	2000dfc0 <vk_thread_check>
2000db18:	e3a03000 	mov	r3, #0	; 0x0
2000db1c:	e50b3014 	str	r3, [fp, #-20]
2000db20:	e59f3310 	ldr	r3, [pc, #784]	; 2000de38 <vk_scheduler+0x34c>
2000db24:	e51b2018 	ldr	r2, [fp, #-24]
2000db28:	e7923003 	ldr	r3, [r2, r3]
2000db2c:	e5933000 	ldr	r3, [r3]
2000db30:	e3530000 	cmp	r3, #0	; 0x0
2000db34:	1a000008 	bne	2000db5c <vk_scheduler+0x70>
2000db38:	e59f32fc 	ldr	r3, [pc, #764]	; 2000de3c <vk_scheduler+0x350>
2000db3c:	e51b0018 	ldr	r0, [fp, #-24]
2000db40:	e7903003 	ldr	r3, [r0, r3]
2000db44:	e5933000 	ldr	r3, [r3]
2000db48:	e1a02003 	mov	r2, r3
2000db4c:	e59f32ec 	ldr	r3, [pc, #748]	; 2000de40 <vk_scheduler+0x354>
2000db50:	e51b1018 	ldr	r1, [fp, #-24]
2000db54:	e7913003 	ldr	r3, [r1, r3]
2000db58:	e5832000 	str	r2, [r3]
2000db5c:	e3a0301f 	mov	r3, #31	; 0x1f
2000db60:	e50b3010 	str	r3, [fp, #-16]
2000db64:	e51b0010 	ldr	r0, [fp, #-16]
2000db68:	e59f32d4 	ldr	r3, [pc, #724]	; 2000de44 <vk_scheduler+0x358>
2000db6c:	e51b1018 	ldr	r1, [fp, #-24]
2000db70:	e7912003 	ldr	r2, [r1, r3]
2000db74:	e3a01004 	mov	r1, #4	; 0x4
2000db78:	e1a03200 	lsl	r3, r0, #4
2000db7c:	e0823003 	add	r3, r2, r3
2000db80:	e0833001 	add	r3, r3, r1
2000db84:	e5933000 	ldr	r3, [r3]
2000db88:	e3530000 	cmp	r3, #0	; 0x0
2000db8c:	0a000064 	beq	2000dd24 <vk_scheduler+0x238>
2000db90:	e59f32b0 	ldr	r3, [pc, #688]	; 2000de48 <vk_scheduler+0x35c>
2000db94:	e51b2018 	ldr	r2, [fp, #-24]
2000db98:	e7923003 	ldr	r3, [r2, r3]
2000db9c:	e5933000 	ldr	r3, [r3]
2000dba0:	e50b3014 	str	r3, [fp, #-20]
2000dba4:	e59f329c 	ldr	r3, [pc, #668]	; 2000de48 <vk_scheduler+0x35c>
2000dba8:	e51b0018 	ldr	r0, [fp, #-24]
2000dbac:	e7903003 	ldr	r3, [r0, r3]
2000dbb0:	e5933000 	ldr	r3, [r3]
2000dbb4:	e5932008 	ldr	r2, [r3, #8]
2000dbb8:	e51b3010 	ldr	r3, [fp, #-16]
2000dbbc:	e1520003 	cmp	r2, r3
2000dbc0:	0a000004 	beq	2000dbd8 <vk_scheduler+0xec>
2000dbc4:	e59f327c 	ldr	r3, [pc, #636]	; 2000de48 <vk_scheduler+0x35c>
2000dbc8:	e51b1018 	ldr	r1, [fp, #-24]
2000dbcc:	e7912003 	ldr	r2, [r1, r3]
2000dbd0:	e3a03000 	mov	r3, #0	; 0x0
2000dbd4:	e5823000 	str	r3, [r2]
2000dbd8:	e59f3268 	ldr	r3, [pc, #616]	; 2000de48 <vk_scheduler+0x35c>
2000dbdc:	e51b2018 	ldr	r2, [fp, #-24]
2000dbe0:	e7923003 	ldr	r3, [r2, r3]
2000dbe4:	e5933000 	ldr	r3, [r3]
2000dbe8:	e3530000 	cmp	r3, #0	; 0x0
2000dbec:	1a000027 	bne	2000dc90 <vk_scheduler+0x1a4>
2000dbf0:	e51b2010 	ldr	r2, [fp, #-16]
2000dbf4:	e59f3248 	ldr	r3, [pc, #584]	; 2000de44 <vk_scheduler+0x358>
2000dbf8:	e51b0018 	ldr	r0, [fp, #-24]
2000dbfc:	e7901003 	ldr	r1, [r0, r3]
2000dc00:	e1a03082 	lsl	r3, r2, #1
2000dc04:	e2833001 	add	r3, r3, #1	; 0x1
2000dc08:	e7912183 	ldr	r2, [r1, r3, lsl #3]
2000dc0c:	e59f3234 	ldr	r3, [pc, #564]	; 2000de48 <vk_scheduler+0x35c>
2000dc10:	e51b1018 	ldr	r1, [fp, #-24]
2000dc14:	e7913003 	ldr	r3, [r1, r3]
2000dc18:	e5832000 	str	r2, [r3]
2000dc1c:	e59f3224 	ldr	r3, [pc, #548]	; 2000de48 <vk_scheduler+0x35c>
2000dc20:	e51b2018 	ldr	r2, [fp, #-24]
2000dc24:	e7923003 	ldr	r3, [r2, r3]
2000dc28:	e5933000 	ldr	r3, [r3]
2000dc2c:	e593303c 	ldr	r3, [r3, #60]
2000dc30:	e3530000 	cmp	r3, #0	; 0x0
2000dc34:	1a00000b 	bne	2000dc68 <vk_scheduler+0x17c>
2000dc38:	e51b2010 	ldr	r2, [fp, #-16]
2000dc3c:	e59f3200 	ldr	r3, [pc, #512]	; 2000de44 <vk_scheduler+0x358>
2000dc40:	e51b0018 	ldr	r0, [fp, #-24]
2000dc44:	e7901003 	ldr	r1, [r0, r3]
2000dc48:	e1a03082 	lsl	r3, r2, #1
2000dc4c:	e2833001 	add	r3, r3, #1	; 0x1
2000dc50:	e7912183 	ldr	r2, [r1, r3, lsl #3]
2000dc54:	e59f31f0 	ldr	r3, [pc, #496]	; 2000de4c <vk_scheduler+0x360>
2000dc58:	e51b1018 	ldr	r1, [fp, #-24]
2000dc5c:	e7913003 	ldr	r3, [r1, r3]
2000dc60:	e5832000 	str	r2, [r3]
2000dc64:	ea000032 	b	2000dd34 <vk_scheduler+0x248>
2000dc68:	e59f31d8 	ldr	r3, [pc, #472]	; 2000de48 <vk_scheduler+0x35c>
2000dc6c:	e51b2018 	ldr	r2, [fp, #-24]
2000dc70:	e7923003 	ldr	r3, [r2, r3]
2000dc74:	e5933000 	ldr	r3, [r3]
2000dc78:	e593203c 	ldr	r2, [r3, #60]
2000dc7c:	e59f31c8 	ldr	r3, [pc, #456]	; 2000de4c <vk_scheduler+0x360>
2000dc80:	e51b0018 	ldr	r0, [fp, #-24]
2000dc84:	e7903003 	ldr	r3, [r0, r3]
2000dc88:	e5832000 	str	r2, [r3]
2000dc8c:	ea000028 	b	2000dd34 <vk_scheduler+0x248>
2000dc90:	e59f31b4 	ldr	r3, [pc, #436]	; 2000de4c <vk_scheduler+0x360>
2000dc94:	e51b1018 	ldr	r1, [fp, #-24]
2000dc98:	e7913003 	ldr	r3, [r1, r3]
2000dc9c:	e5932000 	ldr	r2, [r3]
2000dca0:	e59f31a0 	ldr	r3, [pc, #416]	; 2000de48 <vk_scheduler+0x35c>
2000dca4:	e51b0018 	ldr	r0, [fp, #-24]
2000dca8:	e7903003 	ldr	r3, [r0, r3]
2000dcac:	e5832000 	str	r2, [r3]
2000dcb0:	e59f3190 	ldr	r3, [pc, #400]	; 2000de48 <vk_scheduler+0x35c>
2000dcb4:	e51b1018 	ldr	r1, [fp, #-24]
2000dcb8:	e7913003 	ldr	r3, [r1, r3]
2000dcbc:	e5933000 	ldr	r3, [r3]
2000dcc0:	e593303c 	ldr	r3, [r3, #60]
2000dcc4:	e3530000 	cmp	r3, #0	; 0x0
2000dcc8:	1a00000b 	bne	2000dcfc <vk_scheduler+0x210>
2000dccc:	e51b2010 	ldr	r2, [fp, #-16]
2000dcd0:	e59f316c 	ldr	r3, [pc, #364]	; 2000de44 <vk_scheduler+0x358>
2000dcd4:	e51b0018 	ldr	r0, [fp, #-24]
2000dcd8:	e7901003 	ldr	r1, [r0, r3]
2000dcdc:	e1a03082 	lsl	r3, r2, #1
2000dce0:	e2833001 	add	r3, r3, #1	; 0x1
2000dce4:	e7912183 	ldr	r2, [r1, r3, lsl #3]
2000dce8:	e59f315c 	ldr	r3, [pc, #348]	; 2000de4c <vk_scheduler+0x360>
2000dcec:	e51b1018 	ldr	r1, [fp, #-24]
2000dcf0:	e7913003 	ldr	r3, [r1, r3]
2000dcf4:	e5832000 	str	r2, [r3]
2000dcf8:	ea00000d 	b	2000dd34 <vk_scheduler+0x248>
2000dcfc:	e59f3144 	ldr	r3, [pc, #324]	; 2000de48 <vk_scheduler+0x35c>
2000dd00:	e51b2018 	ldr	r2, [fp, #-24]
2000dd04:	e7923003 	ldr	r3, [r2, r3]
2000dd08:	e5933000 	ldr	r3, [r3]
2000dd0c:	e593203c 	ldr	r2, [r3, #60]
2000dd10:	e59f3134 	ldr	r3, [pc, #308]	; 2000de4c <vk_scheduler+0x360>
2000dd14:	e51b0018 	ldr	r0, [fp, #-24]
2000dd18:	e7903003 	ldr	r3, [r0, r3]
2000dd1c:	e5832000 	str	r2, [r3]
2000dd20:	ea000003 	b	2000dd34 <vk_scheduler+0x248>
2000dd24:	e51b3010 	ldr	r3, [fp, #-16]
2000dd28:	e2433001 	sub	r3, r3, #1	; 0x1
2000dd2c:	e50b3010 	str	r3, [fp, #-16]
2000dd30:	eaffff8b 	b	2000db64 <vk_scheduler+0x78>
2000dd34:	e51b3014 	ldr	r3, [fp, #-20]
2000dd38:	e3530000 	cmp	r3, #0	; 0x0
2000dd3c:	1a00001a 	bne	2000ddac <vk_scheduler+0x2c0>
2000dd40:	e59f3100 	ldr	r3, [pc, #256]	; 2000de48 <vk_scheduler+0x35c>
2000dd44:	e51b1018 	ldr	r1, [fp, #-24]
2000dd48:	e7913003 	ldr	r3, [r1, r3]
2000dd4c:	e5932000 	ldr	r2, [r3]
2000dd50:	e3a03000 	mov	r3, #0	; 0x0
2000dd54:	e5823000 	str	r3, [r2]
2000dd58:	eb00008c 	bl	2000df90 <vk_scheduler_unlock>
2000dd5c:	eb000e88 	bl	20011784 <vk_timer_irq_enable>
2000dd60:	e59f30d0 	ldr	r3, [pc, #208]	; 2000de38 <vk_scheduler+0x34c>
2000dd64:	e51b2018 	ldr	r2, [fp, #-24]
2000dd68:	e7923003 	ldr	r3, [r2, r3]
2000dd6c:	e5933000 	ldr	r3, [r3]
2000dd70:	e3530001 	cmp	r3, #1	; 0x1
2000dd74:	1a000004 	bne	2000dd8c <vk_scheduler+0x2a0>
2000dd78:	e59f30b8 	ldr	r3, [pc, #184]	; 2000de38 <vk_scheduler+0x34c>
2000dd7c:	e51b0018 	ldr	r0, [fp, #-24]
2000dd80:	e7902003 	ldr	r2, [r0, r3]
2000dd84:	e3a03000 	mov	r3, #0	; 0x0
2000dd88:	e5823000 	str	r3, [r2]
2000dd8c:	e59f30b4 	ldr	r3, [pc, #180]	; 2000de48 <vk_scheduler+0x35c>
2000dd90:	e51b1018 	ldr	r1, [fp, #-24]
2000dd94:	e7913003 	ldr	r3, [r1, r3]
2000dd98:	e5933000 	ldr	r3, [r3]
2000dd9c:	e5933020 	ldr	r3, [r3, #32]
2000dda0:	e1a00003 	mov	r0, r3
2000dda4:	ebffe92d 	bl	20008260 <vh_restore_thread_ctx>
2000dda8:	ea00000d 	b	2000dde4 <vk_scheduler+0x2f8>
2000ddac:	e59f3094 	ldr	r3, [pc, #148]	; 2000de48 <vk_scheduler+0x35c>
2000ddb0:	e51b2018 	ldr	r2, [fp, #-24]
2000ddb4:	e7923003 	ldr	r3, [r2, r3]
2000ddb8:	e5932000 	ldr	r2, [r3]
2000ddbc:	e51b3014 	ldr	r3, [fp, #-20]
2000ddc0:	e1530002 	cmp	r3, r2
2000ddc4:	0a000006 	beq	2000dde4 <vk_scheduler+0x2f8>
2000ddc8:	e59f3078 	ldr	r3, [pc, #120]	; 2000de48 <vk_scheduler+0x35c>
2000ddcc:	e51b0018 	ldr	r0, [fp, #-24]
2000ddd0:	e7903003 	ldr	r3, [r0, r3]
2000ddd4:	e5933000 	ldr	r3, [r3]
2000ddd8:	e51b0014 	ldr	r0, [fp, #-20]
2000dddc:	e1a01003 	mov	r1, r3
2000dde0:	eb00001b 	bl	2000de54 <vk_thread_switch_ctx>
2000dde4:	eb000069 	bl	2000df90 <vk_scheduler_unlock>
2000dde8:	e59f3048 	ldr	r3, [pc, #72]	; 2000de38 <vk_scheduler+0x34c>
2000ddec:	e51b1018 	ldr	r1, [fp, #-24]
2000ddf0:	e7913003 	ldr	r3, [r1, r3]
2000ddf4:	e5933000 	ldr	r3, [r3]
2000ddf8:	e3530001 	cmp	r3, #1	; 0x1
2000ddfc:	1a000009 	bne	2000de28 <vk_scheduler+0x33c>
2000de00:	e59f3030 	ldr	r3, [pc, #48]	; 2000de38 <vk_scheduler+0x34c>
2000de04:	e51b0018 	ldr	r0, [fp, #-24]
2000de08:	e7902003 	ldr	r2, [r0, r3]
2000de0c:	e3a03000 	mov	r3, #0	; 0x0
2000de10:	e5823000 	str	r3, [r2]
2000de14:	e59f3034 	ldr	r3, [pc, #52]	; 2000de50 <vk_scheduler+0x364>
2000de18:	e51b1018 	ldr	r1, [fp, #-24]
2000de1c:	e7913003 	ldr	r3, [r1, r3]
2000de20:	e1a00003 	mov	r0, r3
2000de24:	ebffe918 	bl	2000828c <vh_change_ctx>
2000de28:	eb000e55 	bl	20011784 <vk_timer_irq_enable>
2000de2c:	e24bd00c 	sub	sp, fp, #12	; 0xc
2000de30:	e89da800 	ldm	sp, {fp, sp, pc}
2000de34:	00005a78 	.word	0x00005a78
2000de38:	00000084 	.word	0x00000084
2000de3c:	000000cc 	.word	0x000000cc
2000de40:	00000018 	.word	0x00000018
2000de44:	0000007c 	.word	0x0000007c
2000de48:	000000ac 	.word	0x000000ac
2000de4c:	000000c0 	.word	0x000000c0
2000de50:	0000009c 	.word	0x0000009c

2000de54 <vk_thread_switch_ctx>:
2000de54:	e1a0c00d 	mov	ip, sp
2000de58:	e92dd800 	push	{fp, ip, lr, pc}
2000de5c:	e24cb004 	sub	fp, ip, #4	; 0x4
2000de60:	e24dd018 	sub	sp, sp, #24	; 0x18
2000de64:	e59f20a0 	ldr	r2, [pc, #160]	; 2000df0c <vk_thread_switch_ctx+0xb8>
2000de68:	e50b2020 	str	r2, [fp, #-32]
2000de6c:	e51b3020 	ldr	r3, [fp, #-32]
2000de70:	e08f3003 	add	r3, pc, r3
2000de74:	e50b3020 	str	r3, [fp, #-32]
2000de78:	e50b0018 	str	r0, [fp, #-24]
2000de7c:	e50b101c 	str	r1, [fp, #-28]
2000de80:	e51b3018 	ldr	r3, [fp, #-24]
2000de84:	e5933000 	ldr	r3, [r3]
2000de88:	e3530000 	cmp	r3, #0	; 0x0
2000de8c:	1a000002 	bne	2000de9c <vk_thread_switch_ctx+0x48>
2000de90:	e51b2018 	ldr	r2, [fp, #-24]
2000de94:	e3a03001 	mov	r3, #1	; 0x1
2000de98:	e5823000 	str	r3, [r2]
2000de9c:	e51b3018 	ldr	r3, [fp, #-24]
2000dea0:	e5933020 	ldr	r3, [r3, #32]
2000dea4:	e50b3014 	str	r3, [fp, #-20]
2000dea8:	e51b0014 	ldr	r0, [fp, #-20]
2000deac:	ebffe8f9 	bl	20008298 <vh_save_thread_ctx>
2000deb0:	e51b201c 	ldr	r2, [fp, #-28]
2000deb4:	e3a03000 	mov	r3, #0	; 0x0
2000deb8:	e5823000 	str	r3, [r2]
2000debc:	e51b301c 	ldr	r3, [fp, #-28]
2000dec0:	e5933020 	ldr	r3, [r3, #32]
2000dec4:	e50b3010 	str	r3, [fp, #-16]
2000dec8:	eb000030 	bl	2000df90 <vk_scheduler_unlock>
2000decc:	eb000e2c 	bl	20011784 <vk_timer_irq_enable>
2000ded0:	e59f3038 	ldr	r3, [pc, #56]	; 2000df10 <vk_thread_switch_ctx+0xbc>
2000ded4:	e51b1020 	ldr	r1, [fp, #-32]
2000ded8:	e7913003 	ldr	r3, [r1, r3]
2000dedc:	e5933000 	ldr	r3, [r3]
2000dee0:	e3530001 	cmp	r3, #1	; 0x1
2000dee4:	1a000004 	bne	2000defc <vk_thread_switch_ctx+0xa8>
2000dee8:	e59f3020 	ldr	r3, [pc, #32]	; 2000df10 <vk_thread_switch_ctx+0xbc>
2000deec:	e51b1020 	ldr	r1, [fp, #-32]
2000def0:	e7912003 	ldr	r2, [r1, r3]
2000def4:	e3a03000 	mov	r3, #0	; 0x0
2000def8:	e5823000 	str	r3, [r2]
2000defc:	e51b0010 	ldr	r0, [fp, #-16]
2000df00:	ebffe8d6 	bl	20008260 <vh_restore_thread_ctx>
2000df04:	e24bd00c 	sub	sp, fp, #12	; 0xc
2000df08:	e89da800 	ldm	sp, {fp, sp, pc}
2000df0c:	00005710 	.word	0x00005710
2000df10:	00000084 	.word	0x00000084

2000df14 <VPOS_start>:
2000df14:	e1a0c00d 	mov	ip, sp
2000df18:	e92dd800 	push	{fp, ip, lr, pc}
2000df1c:	e24cb004 	sub	fp, ip, #4	; 0x4
2000df20:	ebffee27 	bl	200097c4 <vk_swi_scheduler>
2000df24:	e89da800 	ldm	sp, {fp, sp, pc}

2000df28 <vk_scheduler_lock>:
2000df28:	e1a0c00d 	mov	ip, sp
2000df2c:	e92dd800 	push	{fp, ip, lr, pc}
2000df30:	e24cb004 	sub	fp, ip, #4	; 0x4
2000df34:	e59f2048 	ldr	r2, [pc, #72]	; 2000df84 <vk_scheduler_lock+0x5c>
2000df38:	e08f2002 	add	r2, pc, r2
2000df3c:	e59f3044 	ldr	r3, [pc, #68]	; 2000df88 <vk_scheduler_lock+0x60>
2000df40:	e7923003 	ldr	r3, [r2, r3]
2000df44:	e5931000 	ldr	r1, [r3]
2000df48:	e591302c 	ldr	r3, [r1, #44]
2000df4c:	e2833001 	add	r3, r3, #1	; 0x1
2000df50:	e581302c 	str	r3, [r1, #44]
2000df54:	e59f302c 	ldr	r3, [pc, #44]	; 2000df88 <vk_scheduler_lock+0x60>
2000df58:	e7923003 	ldr	r3, [r2, r3]
2000df5c:	e5931000 	ldr	r1, [r3]
2000df60:	e59f3024 	ldr	r3, [pc, #36]	; 2000df8c <vk_scheduler_lock+0x64>
2000df64:	e7923003 	ldr	r3, [r2, r3]
2000df68:	e5933000 	ldr	r3, [r3]
2000df6c:	e5813010 	str	r3, [r1, #16]
2000df70:	e59f3014 	ldr	r3, [pc, #20]	; 2000df8c <vk_scheduler_lock+0x64>
2000df74:	e7922003 	ldr	r2, [r2, r3]
2000df78:	e3a03001 	mov	r3, #1	; 0x1
2000df7c:	e5823000 	str	r3, [r2]
2000df80:	e89da800 	ldm	sp, {fp, sp, pc}
2000df84:	00005648 	.word	0x00005648
2000df88:	000000ac 	.word	0x000000ac
2000df8c:	0000003c 	.word	0x0000003c

2000df90 <vk_scheduler_unlock>:
2000df90:	e1a0c00d 	mov	ip, sp
2000df94:	e92dd800 	push	{fp, ip, lr, pc}
2000df98:	e24cb004 	sub	fp, ip, #4	; 0x4
2000df9c:	e59f3014 	ldr	r3, [pc, #20]	; 2000dfb8 <vk_scheduler_unlock+0x28>
2000dfa0:	e08f3003 	add	r3, pc, r3
2000dfa4:	e59f2010 	ldr	r2, [pc, #16]	; 2000dfbc <vk_scheduler_unlock+0x2c>
2000dfa8:	e7932002 	ldr	r2, [r3, r2]
2000dfac:	e3a03000 	mov	r3, #0	; 0x0
2000dfb0:	e5823000 	str	r3, [r2]
2000dfb4:	e89da800 	ldm	sp, {fp, sp, pc}
2000dfb8:	000055e0 	.word	0x000055e0
2000dfbc:	0000003c 	.word	0x0000003c

2000dfc0 <vk_thread_check>:
2000dfc0:	e1a0c00d 	mov	ip, sp
2000dfc4:	e92dd800 	push	{fp, ip, lr, pc}
2000dfc8:	e24cb004 	sub	fp, ip, #4	; 0x4
2000dfcc:	e24dd018 	sub	sp, sp, #24	; 0x18
2000dfd0:	e59f02ac 	ldr	r0, [pc, #684]	; 2000e284 <vk_thread_check+0x2c4>
2000dfd4:	e50b0020 	str	r0, [fp, #-32]
2000dfd8:	e51b1020 	ldr	r1, [fp, #-32]
2000dfdc:	e08f1001 	add	r1, pc, r1
2000dfe0:	e50b1020 	str	r1, [fp, #-32]
2000dfe4:	e59f329c 	ldr	r3, [pc, #668]	; 2000e288 <vk_thread_check+0x2c8>
2000dfe8:	e51b2020 	ldr	r2, [fp, #-32]
2000dfec:	e7923003 	ldr	r3, [r2, r3]
2000dff0:	e5933000 	ldr	r3, [r3]
2000dff4:	e3530000 	cmp	r3, #0	; 0x0
2000dff8:	0a000093 	beq	2000e24c <vk_thread_check+0x28c>
2000dffc:	e59f3284 	ldr	r3, [pc, #644]	; 2000e288 <vk_thread_check+0x2c8>
2000e000:	e51b0020 	ldr	r0, [fp, #-32]
2000e004:	e7903003 	ldr	r3, [r0, r3]
2000e008:	e5933000 	ldr	r3, [r3]
2000e00c:	e5933000 	ldr	r3, [r3]
2000e010:	e3530003 	cmp	r3, #3	; 0x3
2000e014:	1a00008c 	bne	2000e24c <vk_thread_check+0x28c>
2000e018:	e3a03000 	mov	r3, #0	; 0x0
2000e01c:	e50b3018 	str	r3, [fp, #-24]
2000e020:	ea000069 	b	2000e1cc <vk_thread_check+0x20c>
2000e024:	e51b2018 	ldr	r2, [fp, #-24]
2000e028:	e59f325c 	ldr	r3, [pc, #604]	; 2000e28c <vk_thread_check+0x2cc>
2000e02c:	e51b0020 	ldr	r0, [fp, #-32]
2000e030:	e7901003 	ldr	r1, [r0, r3]
2000e034:	e1a03002 	mov	r3, r2
2000e038:	e1a02103 	lsl	r2, r3, #2
2000e03c:	e1a03102 	lsl	r3, r2, #2
2000e040:	e0623003 	rsb	r3, r2, r3
2000e044:	e0813003 	add	r3, r1, r3
2000e048:	e5933000 	ldr	r3, [r3]
2000e04c:	e3530001 	cmp	r3, #1	; 0x1
2000e050:	1a00005a 	bne	2000e1c0 <vk_thread_check+0x200>
2000e054:	e51b2018 	ldr	r2, [fp, #-24]
2000e058:	e59f322c 	ldr	r3, [pc, #556]	; 2000e28c <vk_thread_check+0x2cc>
2000e05c:	e51b0020 	ldr	r0, [fp, #-32]
2000e060:	e7901003 	ldr	r1, [r0, r3]
2000e064:	e3a00004 	mov	r0, #4	; 0x4
2000e068:	e1a03002 	mov	r3, r2
2000e06c:	e1a02103 	lsl	r2, r3, #2
2000e070:	e1a03102 	lsl	r3, r2, #2
2000e074:	e0623003 	rsb	r3, r2, r3
2000e078:	e0813003 	add	r3, r1, r3
2000e07c:	e0833000 	add	r3, r3, r0
2000e080:	e5932000 	ldr	r2, [r3]
2000e084:	e59f31fc 	ldr	r3, [pc, #508]	; 2000e288 <vk_thread_check+0x2c8>
2000e088:	e51b1020 	ldr	r1, [fp, #-32]
2000e08c:	e7913003 	ldr	r3, [r1, r3]
2000e090:	e5933000 	ldr	r3, [r3]
2000e094:	e1520003 	cmp	r2, r3
2000e098:	1a000048 	bne	2000e1c0 <vk_thread_check+0x200>
2000e09c:	e51b2018 	ldr	r2, [fp, #-24]
2000e0a0:	e59f31e4 	ldr	r3, [pc, #484]	; 2000e28c <vk_thread_check+0x2cc>
2000e0a4:	e51b0020 	ldr	r0, [fp, #-32]
2000e0a8:	e7901003 	ldr	r1, [r0, r3]
2000e0ac:	e3a00008 	mov	r0, #8	; 0x8
2000e0b0:	e1a03002 	mov	r3, r2
2000e0b4:	e1a02103 	lsl	r2, r3, #2
2000e0b8:	e1a03102 	lsl	r3, r2, #2
2000e0bc:	e0623003 	rsb	r3, r2, r3
2000e0c0:	e0813003 	add	r3, r1, r3
2000e0c4:	e0833000 	add	r3, r3, r0
2000e0c8:	e5933000 	ldr	r3, [r3]
2000e0cc:	e50b3010 	str	r3, [fp, #-16]
2000e0d0:	e51b2018 	ldr	r2, [fp, #-24]
2000e0d4:	e59f31b0 	ldr	r3, [pc, #432]	; 2000e28c <vk_thread_check+0x2cc>
2000e0d8:	e51b0020 	ldr	r0, [fp, #-32]
2000e0dc:	e7901003 	ldr	r1, [r0, r3]
2000e0e0:	e1a03002 	mov	r3, r2
2000e0e4:	e1a02103 	lsl	r2, r3, #2
2000e0e8:	e1a03102 	lsl	r3, r2, #2
2000e0ec:	e0623003 	rsb	r3, r2, r3
2000e0f0:	e0812003 	add	r2, r1, r3
2000e0f4:	e3a03000 	mov	r3, #0	; 0x0
2000e0f8:	e5823000 	str	r3, [r2]
2000e0fc:	e51b3018 	ldr	r3, [fp, #-24]
2000e100:	e2833001 	add	r3, r3, #1	; 0x1
2000e104:	e50b3014 	str	r3, [fp, #-20]
2000e108:	ea00001d 	b	2000e184 <vk_thread_check+0x1c4>
2000e10c:	e51b2014 	ldr	r2, [fp, #-20]
2000e110:	e59f3174 	ldr	r3, [pc, #372]	; 2000e28c <vk_thread_check+0x2cc>
2000e114:	e51b0020 	ldr	r0, [fp, #-32]
2000e118:	e7901003 	ldr	r1, [r0, r3]
2000e11c:	e1a03002 	mov	r3, r2
2000e120:	e1a02103 	lsl	r2, r3, #2
2000e124:	e1a03102 	lsl	r3, r2, #2
2000e128:	e0623003 	rsb	r3, r2, r3
2000e12c:	e0813003 	add	r3, r1, r3
2000e130:	e5933000 	ldr	r3, [r3]
2000e134:	e3530001 	cmp	r3, #1	; 0x1
2000e138:	1a00000e 	bne	2000e178 <vk_thread_check+0x1b8>
2000e13c:	e51b2014 	ldr	r2, [fp, #-20]
2000e140:	e59f3144 	ldr	r3, [pc, #324]	; 2000e28c <vk_thread_check+0x2cc>
2000e144:	e51b0020 	ldr	r0, [fp, #-32]
2000e148:	e7901003 	ldr	r1, [r0, r3]
2000e14c:	e3a00008 	mov	r0, #8	; 0x8
2000e150:	e1a03002 	mov	r3, r2
2000e154:	e1a02103 	lsl	r2, r3, #2
2000e158:	e1a03102 	lsl	r3, r2, #2
2000e15c:	e0623003 	rsb	r3, r2, r3
2000e160:	e0813003 	add	r3, r1, r3
2000e164:	e0833000 	add	r3, r3, r0
2000e168:	e5932000 	ldr	r2, [r3]
2000e16c:	e51b3010 	ldr	r3, [fp, #-16]
2000e170:	e1520003 	cmp	r2, r3
2000e174:	0a000005 	beq	2000e190 <vk_thread_check+0x1d0>
2000e178:	e51b3014 	ldr	r3, [fp, #-20]
2000e17c:	e2833001 	add	r3, r3, #1	; 0x1
2000e180:	e50b3014 	str	r3, [fp, #-20]
2000e184:	e51b3014 	ldr	r3, [fp, #-20]
2000e188:	e3530009 	cmp	r3, #9	; 0x9
2000e18c:	9affffde 	bls	2000e10c <vk_thread_check+0x14c>
2000e190:	e51b3014 	ldr	r3, [fp, #-20]
2000e194:	e353000a 	cmp	r3, #10	; 0xa
2000e198:	1a000008 	bne	2000e1c0 <vk_thread_check+0x200>
2000e19c:	e51b2010 	ldr	r2, [fp, #-16]
2000e1a0:	e3a03001 	mov	r3, #1	; 0x1
2000e1a4:	e5823000 	str	r3, [r2]
2000e1a8:	e51b0010 	ldr	r0, [fp, #-16]
2000e1ac:	e59f30dc 	ldr	r3, [pc, #220]	; 2000e290 <vk_thread_check+0x2d0>
2000e1b0:	e51b1020 	ldr	r1, [fp, #-32]
2000e1b4:	e7913003 	ldr	r3, [r1, r3]
2000e1b8:	e1a01003 	mov	r1, r3
2000e1bc:	ebfffbd0 	bl	2000d104 <vk_thread_enqueue>
2000e1c0:	e51b3018 	ldr	r3, [fp, #-24]
2000e1c4:	e2833001 	add	r3, r3, #1	; 0x1
2000e1c8:	e50b3018 	str	r3, [fp, #-24]
2000e1cc:	e51b3018 	ldr	r3, [fp, #-24]
2000e1d0:	e3530009 	cmp	r3, #9	; 0x9
2000e1d4:	9affff92 	bls	2000e024 <vk_thread_check+0x64>
2000e1d8:	e59f30a8 	ldr	r3, [pc, #168]	; 2000e288 <vk_thread_check+0x2c8>
2000e1dc:	e51b2020 	ldr	r2, [fp, #-32]
2000e1e0:	e7923003 	ldr	r3, [r2, r3]
2000e1e4:	e5933000 	ldr	r3, [r3]
2000e1e8:	e1a00003 	mov	r0, r3
2000e1ec:	e59f309c 	ldr	r3, [pc, #156]	; 2000e290 <vk_thread_check+0x2d0>
2000e1f0:	e51b1020 	ldr	r1, [fp, #-32]
2000e1f4:	e7913003 	ldr	r3, [r1, r3]
2000e1f8:	e1a01003 	mov	r1, r3
2000e1fc:	ebfffc2e 	bl	2000d2bc <vk_thread_dequeue>
2000e200:	e59f3080 	ldr	r3, [pc, #128]	; 2000e288 <vk_thread_check+0x2c8>
2000e204:	e51b2020 	ldr	r2, [fp, #-32]
2000e208:	e7923003 	ldr	r3, [r2, r3]
2000e20c:	e5933000 	ldr	r3, [r3]
2000e210:	e5933024 	ldr	r3, [r3, #36]
2000e214:	e1a00003 	mov	r0, r3
2000e218:	ebffeeee 	bl	20009dd8 <vk_free>
2000e21c:	e59f3064 	ldr	r3, [pc, #100]	; 2000e288 <vk_thread_check+0x2c8>
2000e220:	e51b0020 	ldr	r0, [fp, #-32]
2000e224:	e7903003 	ldr	r3, [r0, r3]
2000e228:	e5932000 	ldr	r2, [r3]
2000e22c:	e3a03000 	mov	r3, #0	; 0x0
2000e230:	e5823024 	str	r3, [r2, #36]
2000e234:	e59f304c 	ldr	r3, [pc, #76]	; 2000e288 <vk_thread_check+0x2c8>
2000e238:	e51b1020 	ldr	r1, [fp, #-32]
2000e23c:	e7912003 	ldr	r2, [r1, r3]
2000e240:	e3a03000 	mov	r3, #0	; 0x0
2000e244:	e5823000 	str	r3, [r2]
2000e248:	ea00000b 	b	2000e27c <vk_thread_check+0x2bc>
2000e24c:	e59f3034 	ldr	r3, [pc, #52]	; 2000e288 <vk_thread_check+0x2c8>
2000e250:	e51b2020 	ldr	r2, [fp, #-32]
2000e254:	e7923003 	ldr	r3, [r2, r3]
2000e258:	e5933000 	ldr	r3, [r3]
2000e25c:	e5933000 	ldr	r3, [r3]
2000e260:	e3530004 	cmp	r3, #4	; 0x4
2000e264:	1a000004 	bne	2000e27c <vk_thread_check+0x2bc>
2000e268:	e59f3018 	ldr	r3, [pc, #24]	; 2000e288 <vk_thread_check+0x2c8>
2000e26c:	e51b0020 	ldr	r0, [fp, #-32]
2000e270:	e7902003 	ldr	r2, [r0, r3]
2000e274:	e3a03000 	mov	r3, #0	; 0x0
2000e278:	e5823000 	str	r3, [r2]
2000e27c:	e24bd00c 	sub	sp, fp, #12	; 0xc
2000e280:	e89da800 	ldm	sp, {fp, sp, pc}
2000e284:	000055a4 	.word	0x000055a4
2000e288:	000000ac 	.word	0x000000ac
2000e28c:	000000c4 	.word	0x000000c4
2000e290:	0000007c 	.word	0x0000007c

2000e294 <sem_init>:
2000e294:	e1a0c00d 	mov	ip, sp
2000e298:	e92dd800 	push	{fp, ip, lr, pc}
2000e29c:	e24cb004 	sub	fp, ip, #4	; 0x4
2000e2a0:	e24dd018 	sub	sp, sp, #24	; 0x18
2000e2a4:	e50b0018 	str	r0, [fp, #-24]
2000e2a8:	e50b101c 	str	r1, [fp, #-28]
2000e2ac:	e50b2020 	str	r2, [fp, #-32]
2000e2b0:	e51b301c 	ldr	r3, [fp, #-28]
2000e2b4:	e3530000 	cmp	r3, #0	; 0x0
2000e2b8:	0a000002 	beq	2000e2c8 <sem_init+0x34>
2000e2bc:	e3a03001 	mov	r3, #1	; 0x1
2000e2c0:	e50b3024 	str	r3, [fp, #-36]
2000e2c4:	ea000026 	b	2000e364 <sem_init+0xd0>
2000e2c8:	e3a00040 	mov	r0, #64	; 0x40
2000e2cc:	ebffef59 	bl	2000a038 <malloc>
2000e2d0:	e1a03000 	mov	r3, r0
2000e2d4:	e50b3010 	str	r3, [fp, #-16]
2000e2d8:	e51b2010 	ldr	r2, [fp, #-16]
2000e2dc:	e3a03000 	mov	r3, #0	; 0x0
2000e2e0:	e5823004 	str	r3, [r2, #4]
2000e2e4:	e51b2010 	ldr	r2, [fp, #-16]
2000e2e8:	e3a03000 	mov	r3, #0	; 0x0
2000e2ec:	e5823008 	str	r3, [r2, #8]
2000e2f0:	e51b2020 	ldr	r2, [fp, #-32]
2000e2f4:	e51b3010 	ldr	r3, [fp, #-16]
2000e2f8:	e583200c 	str	r2, [r3, #12]
2000e2fc:	e51b2010 	ldr	r2, [fp, #-16]
2000e300:	e51b3020 	ldr	r3, [fp, #-32]
2000e304:	e5823010 	str	r3, [r2, #16]
2000e308:	e51b2010 	ldr	r2, [fp, #-16]
2000e30c:	e3a03000 	mov	r3, #0	; 0x0
2000e310:	e5823028 	str	r3, [r2, #40]
2000e314:	e51b2010 	ldr	r2, [fp, #-16]
2000e318:	e3a03000 	mov	r3, #0	; 0x0
2000e31c:	e582302c 	str	r3, [r2, #44]
2000e320:	e51b2010 	ldr	r2, [fp, #-16]
2000e324:	e3a03000 	mov	r3, #0	; 0x0
2000e328:	e5823030 	str	r3, [r2, #48]
2000e32c:	e51b2010 	ldr	r2, [fp, #-16]
2000e330:	e3a03000 	mov	r3, #0	; 0x0
2000e334:	e5823034 	str	r3, [r2, #52]
2000e338:	e51b2010 	ldr	r2, [fp, #-16]
2000e33c:	e3a03000 	mov	r3, #0	; 0x0
2000e340:	e5823038 	str	r3, [r2, #56]
2000e344:	e51b2010 	ldr	r2, [fp, #-16]
2000e348:	e3a03000 	mov	r3, #0	; 0x0
2000e34c:	e582303c 	str	r3, [r2, #60]
2000e350:	e51b2018 	ldr	r2, [fp, #-24]
2000e354:	e51b3010 	ldr	r3, [fp, #-16]
2000e358:	e5823000 	str	r3, [r2]
2000e35c:	e3a03000 	mov	r3, #0	; 0x0
2000e360:	e50b3024 	str	r3, [fp, #-36]
2000e364:	e51b3024 	ldr	r3, [fp, #-36]
2000e368:	e1a00003 	mov	r0, r3
2000e36c:	e24bd00c 	sub	sp, fp, #12	; 0xc
2000e370:	e89da800 	ldm	sp, {fp, sp, pc}

2000e374 <sem_destory>:
2000e374:	e1a0c00d 	mov	ip, sp
2000e378:	e92dd800 	push	{fp, ip, lr, pc}
2000e37c:	e24cb004 	sub	fp, ip, #4	; 0x4
2000e380:	e24dd018 	sub	sp, sp, #24	; 0x18
2000e384:	e59f10d4 	ldr	r1, [pc, #212]	; 2000e460 <sem_destory+0xec>
2000e388:	e50b1020 	str	r1, [fp, #-32]
2000e38c:	e51b2020 	ldr	r2, [fp, #-32]
2000e390:	e08f2002 	add	r2, pc, r2
2000e394:	e50b2020 	str	r2, [fp, #-32]
2000e398:	e50b0018 	str	r0, [fp, #-24]
2000e39c:	ebffecf3 	bl	20009770 <vk_disable_interrupt>
2000e3a0:	e51b3018 	ldr	r3, [fp, #-24]
2000e3a4:	e5933000 	ldr	r3, [r3]
2000e3a8:	e50b3010 	str	r3, [fp, #-16]
2000e3ac:	e51b3010 	ldr	r3, [fp, #-16]
2000e3b0:	e5933008 	ldr	r3, [r3, #8]
2000e3b4:	e3530000 	cmp	r3, #0	; 0x0
2000e3b8:	1a00000b 	bne	2000e3ec <sem_destory+0x78>
2000e3bc:	e51b3010 	ldr	r3, [fp, #-16]
2000e3c0:	e593300c 	ldr	r3, [r3, #12]
2000e3c4:	e1a02003 	mov	r2, r3
2000e3c8:	e51b3010 	ldr	r3, [fp, #-16]
2000e3cc:	e5933010 	ldr	r3, [r3, #16]
2000e3d0:	e1520003 	cmp	r2, r3
2000e3d4:	1a000004 	bne	2000e3ec <sem_destory+0x78>
2000e3d8:	e51b0010 	ldr	r0, [fp, #-16]
2000e3dc:	ebffef33 	bl	2000a0b0 <free>
2000e3e0:	e3a03000 	mov	r3, #0	; 0x0
2000e3e4:	e50b301c 	str	r3, [fp, #-28]
2000e3e8:	ea000018 	b	2000e450 <sem_destory+0xdc>
2000e3ec:	e51b3010 	ldr	r3, [fp, #-16]
2000e3f0:	e5932008 	ldr	r2, [r3, #8]
2000e3f4:	e59f3068 	ldr	r3, [pc, #104]	; 2000e464 <sem_destory+0xf0>
2000e3f8:	e51b0020 	ldr	r0, [fp, #-32]
2000e3fc:	e0803003 	add	r3, r0, r3
2000e400:	e1a00003 	mov	r0, r3
2000e404:	e1a01002 	mov	r1, r2
2000e408:	ebfff9bb 	bl	2000cafc <printk>
2000e40c:	e51b3010 	ldr	r3, [fp, #-16]
2000e410:	e593100c 	ldr	r1, [r3, #12]
2000e414:	e51b3010 	ldr	r3, [fp, #-16]
2000e418:	e5932010 	ldr	r2, [r3, #16]
2000e41c:	e59f3044 	ldr	r3, [pc, #68]	; 2000e468 <sem_destory+0xf4>
2000e420:	e51b0020 	ldr	r0, [fp, #-32]
2000e424:	e0803003 	add	r3, r0, r3
2000e428:	e1a00003 	mov	r0, r3
2000e42c:	ebfff9b2 	bl	2000cafc <printk>
2000e430:	e59f3034 	ldr	r3, [pc, #52]	; 2000e46c <sem_destory+0xf8>
2000e434:	e51b1020 	ldr	r1, [fp, #-32]
2000e438:	e0813003 	add	r3, r1, r3
2000e43c:	e1a00003 	mov	r0, r3
2000e440:	ebfff9ad 	bl	2000cafc <printk>
2000e444:	ebffecb4 	bl	2000971c <vk_enable_interrupt>
2000e448:	e3a02001 	mov	r2, #1	; 0x1
2000e44c:	e50b201c 	str	r2, [fp, #-28]
2000e450:	e51b301c 	ldr	r3, [fp, #-28]
2000e454:	e1a00003 	mov	r0, r3
2000e458:	e24bd00c 	sub	sp, fp, #12	; 0xc
2000e45c:	e89da800 	ldm	sp, {fp, sp, pc}
2000e460:	000051f0 	.word	0x000051f0
2000e464:	fffff9e4 	.word	0xfffff9e4
2000e468:	fffff9f8 	.word	0xfffff9f8
2000e46c:	fffffa18 	.word	0xfffffa18

2000e470 <sem_trywait>:
2000e470:	e1a0c00d 	mov	ip, sp
2000e474:	e92dd800 	push	{fp, ip, lr, pc}
2000e478:	e24cb004 	sub	fp, ip, #4	; 0x4
2000e47c:	e24dd010 	sub	sp, sp, #16	; 0x10
2000e480:	e50b0018 	str	r0, [fp, #-24]
2000e484:	e51b3018 	ldr	r3, [fp, #-24]
2000e488:	e5933000 	ldr	r3, [r3]
2000e48c:	e50b3010 	str	r3, [fp, #-16]
2000e490:	ebffecb6 	bl	20009770 <vk_disable_interrupt>
2000e494:	e51b3010 	ldr	r3, [fp, #-16]
2000e498:	e593300c 	ldr	r3, [r3, #12]
2000e49c:	e3530000 	cmp	r3, #0	; 0x0
2000e4a0:	da000006 	ble	2000e4c0 <sem_trywait+0x50>
2000e4a4:	e51b0018 	ldr	r0, [fp, #-24]
2000e4a8:	eb00000b 	bl	2000e4dc <sem_wait>
2000e4ac:	e1a03000 	mov	r3, r0
2000e4b0:	e50b3014 	str	r3, [fp, #-20]
2000e4b4:	e51b3014 	ldr	r3, [fp, #-20]
2000e4b8:	e50b301c 	str	r3, [fp, #-28]
2000e4bc:	ea000002 	b	2000e4cc <sem_trywait+0x5c>
2000e4c0:	ebffec95 	bl	2000971c <vk_enable_interrupt>
2000e4c4:	e3a03001 	mov	r3, #1	; 0x1
2000e4c8:	e50b301c 	str	r3, [fp, #-28]
2000e4cc:	e51b301c 	ldr	r3, [fp, #-28]
2000e4d0:	e1a00003 	mov	r0, r3
2000e4d4:	e24bd00c 	sub	sp, fp, #12	; 0xc
2000e4d8:	e89da800 	ldm	sp, {fp, sp, pc}

2000e4dc <sem_wait>:
2000e4dc:	e1a0c00d 	mov	ip, sp
2000e4e0:	e92dd800 	push	{fp, ip, lr, pc}
2000e4e4:	e24cb004 	sub	fp, ip, #4	; 0x4
2000e4e8:	e24dd018 	sub	sp, sp, #24	; 0x18
2000e4ec:	e59f1338 	ldr	r1, [pc, #824]	; 2000e82c <sem_wait+0x350>
2000e4f0:	e50b1020 	str	r1, [fp, #-32]
2000e4f4:	e51b2020 	ldr	r2, [fp, #-32]
2000e4f8:	e08f2002 	add	r2, pc, r2
2000e4fc:	e50b2020 	str	r2, [fp, #-32]
2000e500:	e50b0018 	str	r0, [fp, #-24]
2000e504:	ebffec99 	bl	20009770 <vk_disable_interrupt>
2000e508:	e51b3018 	ldr	r3, [fp, #-24]
2000e50c:	e5933000 	ldr	r3, [r3]
2000e510:	e50b3014 	str	r3, [fp, #-20]
2000e514:	ea000095 	b	2000e770 <sem_wait+0x294>
2000e518:	e51b3014 	ldr	r3, [fp, #-20]
2000e51c:	e5933028 	ldr	r3, [r3, #40]
2000e520:	e3530000 	cmp	r3, #0	; 0x0
2000e524:	1a000006 	bne	2000e544 <sem_wait+0x68>
2000e528:	e59f3300 	ldr	r3, [pc, #768]	; 2000e830 <sem_wait+0x354>
2000e52c:	e51b1020 	ldr	r1, [fp, #-32]
2000e530:	e7913003 	ldr	r3, [r1, r3]
2000e534:	e5932000 	ldr	r2, [r3]
2000e538:	e51b3014 	ldr	r3, [fp, #-20]
2000e53c:	e5832028 	str	r2, [r3, #40]
2000e540:	ea00001d 	b	2000e5bc <sem_wait+0xe0>
2000e544:	e51b3014 	ldr	r3, [fp, #-20]
2000e548:	e593302c 	ldr	r3, [r3, #44]
2000e54c:	e3530000 	cmp	r3, #0	; 0x0
2000e550:	1a000006 	bne	2000e570 <sem_wait+0x94>
2000e554:	e59f32d4 	ldr	r3, [pc, #724]	; 2000e830 <sem_wait+0x354>
2000e558:	e51b2020 	ldr	r2, [fp, #-32]
2000e55c:	e7923003 	ldr	r3, [r2, r3]
2000e560:	e5932000 	ldr	r2, [r3]
2000e564:	e51b3014 	ldr	r3, [fp, #-20]
2000e568:	e583202c 	str	r2, [r3, #44]
2000e56c:	ea000012 	b	2000e5bc <sem_wait+0xe0>
2000e570:	e51b3014 	ldr	r3, [fp, #-20]
2000e574:	e5933030 	ldr	r3, [r3, #48]
2000e578:	e3530000 	cmp	r3, #0	; 0x0
2000e57c:	1a000006 	bne	2000e59c <sem_wait+0xc0>
2000e580:	e59f32a8 	ldr	r3, [pc, #680]	; 2000e830 <sem_wait+0x354>
2000e584:	e51b1020 	ldr	r1, [fp, #-32]
2000e588:	e7913003 	ldr	r3, [r1, r3]
2000e58c:	e5932000 	ldr	r2, [r3]
2000e590:	e51b3014 	ldr	r3, [fp, #-20]
2000e594:	e5832030 	str	r2, [r3, #48]
2000e598:	ea000007 	b	2000e5bc <sem_wait+0xe0>
2000e59c:	e59f3290 	ldr	r3, [pc, #656]	; 2000e834 <sem_wait+0x358>
2000e5a0:	e51b2020 	ldr	r2, [fp, #-32]
2000e5a4:	e0823003 	add	r3, r2, r3
2000e5a8:	e1a00003 	mov	r0, r3
2000e5ac:	ebfff952 	bl	2000cafc <printk>
2000e5b0:	e3e03000 	mvn	r3, #0	; 0x0
2000e5b4:	e50b301c 	str	r3, [fp, #-28]
2000e5b8:	ea000097 	b	2000e81c <sem_wait+0x340>
2000e5bc:	e59f326c 	ldr	r3, [pc, #620]	; 2000e830 <sem_wait+0x354>
2000e5c0:	e51b1020 	ldr	r1, [fp, #-32]
2000e5c4:	e7913003 	ldr	r3, [r1, r3]
2000e5c8:	e5932000 	ldr	r2, [r3]
2000e5cc:	e3a03002 	mov	r3, #2	; 0x2
2000e5d0:	e5823000 	str	r3, [r2]
2000e5d4:	e59f3254 	ldr	r3, [pc, #596]	; 2000e830 <sem_wait+0x354>
2000e5d8:	e51b2020 	ldr	r2, [fp, #-32]
2000e5dc:	e7923003 	ldr	r3, [r2, r3]
2000e5e0:	e5933000 	ldr	r3, [r3]
2000e5e4:	e1a00003 	mov	r0, r3
2000e5e8:	e59f3248 	ldr	r3, [pc, #584]	; 2000e838 <sem_wait+0x35c>
2000e5ec:	e51b1020 	ldr	r1, [fp, #-32]
2000e5f0:	e7913003 	ldr	r3, [r1, r3]
2000e5f4:	e1a01003 	mov	r1, r3
2000e5f8:	ebfffb2f 	bl	2000d2bc <vk_thread_dequeue>
2000e5fc:	e51b3014 	ldr	r3, [fp, #-20]
2000e600:	e5933008 	ldr	r3, [r3, #8]
2000e604:	e2832001 	add	r2, r3, #1	; 0x1
2000e608:	e51b3014 	ldr	r3, [fp, #-20]
2000e60c:	e5832008 	str	r2, [r3, #8]
2000e610:	e59f3218 	ldr	r3, [pc, #536]	; 2000e830 <sem_wait+0x354>
2000e614:	e51b2020 	ldr	r2, [fp, #-32]
2000e618:	e7923003 	ldr	r3, [r2, r3]
2000e61c:	e5933000 	ldr	r3, [r3]
2000e620:	e5932008 	ldr	r2, [r3, #8]
2000e624:	e51b3014 	ldr	r3, [fp, #-20]
2000e628:	e5933004 	ldr	r3, [r3, #4]
2000e62c:	e1520003 	cmp	r2, r3
2000e630:	9a000006 	bls	2000e650 <sem_wait+0x174>
2000e634:	e59f31f4 	ldr	r3, [pc, #500]	; 2000e830 <sem_wait+0x354>
2000e638:	e51b1020 	ldr	r1, [fp, #-32]
2000e63c:	e7913003 	ldr	r3, [r1, r3]
2000e640:	e5933000 	ldr	r3, [r3]
2000e644:	e5932008 	ldr	r2, [r3, #8]
2000e648:	e51b3014 	ldr	r3, [fp, #-20]
2000e64c:	e5832004 	str	r2, [r3, #4]
2000e650:	e3a03000 	mov	r3, #0	; 0x0
2000e654:	e50b3010 	str	r3, [fp, #-16]
2000e658:	ea000040 	b	2000e760 <sem_wait+0x284>
2000e65c:	e51b3010 	ldr	r3, [fp, #-16]
2000e660:	e51b1014 	ldr	r1, [fp, #-20]
2000e664:	e283300c 	add	r3, r3, #12	; 0xc
2000e668:	e3a02004 	mov	r2, #4	; 0x4
2000e66c:	e1a03103 	lsl	r3, r3, #2
2000e670:	e0813003 	add	r3, r1, r3
2000e674:	e0833002 	add	r3, r3, r2
2000e678:	e5933000 	ldr	r3, [r3]
2000e67c:	e3530000 	cmp	r3, #0	; 0x0
2000e680:	0a000033 	beq	2000e754 <sem_wait+0x278>
2000e684:	e51b3010 	ldr	r3, [fp, #-16]
2000e688:	e51b1014 	ldr	r1, [fp, #-20]
2000e68c:	e283300c 	add	r3, r3, #12	; 0xc
2000e690:	e3a02004 	mov	r2, #4	; 0x4
2000e694:	e1a03103 	lsl	r3, r3, #2
2000e698:	e0813003 	add	r3, r1, r3
2000e69c:	e0833002 	add	r3, r3, r2
2000e6a0:	e5933000 	ldr	r3, [r3]
2000e6a4:	e5932008 	ldr	r2, [r3, #8]
2000e6a8:	e51b3014 	ldr	r3, [fp, #-20]
2000e6ac:	e5933004 	ldr	r3, [r3, #4]
2000e6b0:	e1520003 	cmp	r2, r3
2000e6b4:	2a000026 	bcs	2000e754 <sem_wait+0x278>
2000e6b8:	e51b3010 	ldr	r3, [fp, #-16]
2000e6bc:	e51b1014 	ldr	r1, [fp, #-20]
2000e6c0:	e283300c 	add	r3, r3, #12	; 0xc
2000e6c4:	e3a02004 	mov	r2, #4	; 0x4
2000e6c8:	e1a03103 	lsl	r3, r3, #2
2000e6cc:	e0813003 	add	r3, r1, r3
2000e6d0:	e0833002 	add	r3, r3, r2
2000e6d4:	e5933000 	ldr	r3, [r3]
2000e6d8:	e1a00003 	mov	r0, r3
2000e6dc:	e59f3154 	ldr	r3, [pc, #340]	; 2000e838 <sem_wait+0x35c>
2000e6e0:	e51b2020 	ldr	r2, [fp, #-32]
2000e6e4:	e7923003 	ldr	r3, [r2, r3]
2000e6e8:	e1a01003 	mov	r1, r3
2000e6ec:	ebfffaf2 	bl	2000d2bc <vk_thread_dequeue>
2000e6f0:	e51b3010 	ldr	r3, [fp, #-16]
2000e6f4:	e51b1014 	ldr	r1, [fp, #-20]
2000e6f8:	e283300c 	add	r3, r3, #12	; 0xc
2000e6fc:	e3a02004 	mov	r2, #4	; 0x4
2000e700:	e1a03103 	lsl	r3, r3, #2
2000e704:	e0813003 	add	r3, r1, r3
2000e708:	e0833002 	add	r3, r3, r2
2000e70c:	e5932000 	ldr	r2, [r3]
2000e710:	e51b3014 	ldr	r3, [fp, #-20]
2000e714:	e5933004 	ldr	r3, [r3, #4]
2000e718:	e5823008 	str	r3, [r2, #8]
2000e71c:	e51b3010 	ldr	r3, [fp, #-16]
2000e720:	e51b1014 	ldr	r1, [fp, #-20]
2000e724:	e283300c 	add	r3, r3, #12	; 0xc
2000e728:	e3a02004 	mov	r2, #4	; 0x4
2000e72c:	e1a03103 	lsl	r3, r3, #2
2000e730:	e0813003 	add	r3, r1, r3
2000e734:	e0833002 	add	r3, r3, r2
2000e738:	e5933000 	ldr	r3, [r3]
2000e73c:	e1a00003 	mov	r0, r3
2000e740:	e59f30f0 	ldr	r3, [pc, #240]	; 2000e838 <sem_wait+0x35c>
2000e744:	e51b1020 	ldr	r1, [fp, #-32]
2000e748:	e7913003 	ldr	r3, [r1, r3]
2000e74c:	e1a01003 	mov	r1, r3
2000e750:	ebfffa6b 	bl	2000d104 <vk_thread_enqueue>
2000e754:	e51b3010 	ldr	r3, [fp, #-16]
2000e758:	e2833001 	add	r3, r3, #1	; 0x1
2000e75c:	e50b3010 	str	r3, [fp, #-16]
2000e760:	e51b3010 	ldr	r3, [fp, #-16]
2000e764:	e3530002 	cmp	r3, #2	; 0x2
2000e768:	9affffbb 	bls	2000e65c <sem_wait+0x180>
2000e76c:	ebffec14 	bl	200097c4 <vk_swi_scheduler>
2000e770:	e51b3014 	ldr	r3, [fp, #-20]
2000e774:	e593300c 	ldr	r3, [r3, #12]
2000e778:	e3530000 	cmp	r3, #0	; 0x0
2000e77c:	daffff65 	ble	2000e518 <sem_wait+0x3c>
2000e780:	e51b3014 	ldr	r3, [fp, #-20]
2000e784:	e593300c 	ldr	r3, [r3, #12]
2000e788:	e2432001 	sub	r2, r3, #1	; 0x1
2000e78c:	e51b3014 	ldr	r3, [fp, #-20]
2000e790:	e583200c 	str	r2, [r3, #12]
2000e794:	e3a03000 	mov	r3, #0	; 0x0
2000e798:	e50b3010 	str	r3, [fp, #-16]
2000e79c:	ea000018 	b	2000e804 <sem_wait+0x328>
2000e7a0:	e51b3010 	ldr	r3, [fp, #-16]
2000e7a4:	e51b1014 	ldr	r1, [fp, #-20]
2000e7a8:	e283300c 	add	r3, r3, #12	; 0xc
2000e7ac:	e3a02004 	mov	r2, #4	; 0x4
2000e7b0:	e1a03103 	lsl	r3, r3, #2
2000e7b4:	e0813003 	add	r3, r1, r3
2000e7b8:	e0833002 	add	r3, r3, r2
2000e7bc:	e5933000 	ldr	r3, [r3]
2000e7c0:	e3530000 	cmp	r3, #0	; 0x0
2000e7c4:	1a00000b 	bne	2000e7f8 <sem_wait+0x31c>
2000e7c8:	e51b2010 	ldr	r2, [fp, #-16]
2000e7cc:	e59f305c 	ldr	r3, [pc, #92]	; 2000e830 <sem_wait+0x354>
2000e7d0:	e51b1020 	ldr	r1, [fp, #-32]
2000e7d4:	e7913003 	ldr	r3, [r1, r3]
2000e7d8:	e5930000 	ldr	r0, [r3]
2000e7dc:	e51b1014 	ldr	r1, [fp, #-20]
2000e7e0:	e282300c 	add	r3, r2, #12	; 0xc
2000e7e4:	e3a02004 	mov	r2, #4	; 0x4
2000e7e8:	e1a03103 	lsl	r3, r3, #2
2000e7ec:	e0813003 	add	r3, r1, r3
2000e7f0:	e0833002 	add	r3, r3, r2
2000e7f4:	e5830000 	str	r0, [r3]
2000e7f8:	e51b3010 	ldr	r3, [fp, #-16]
2000e7fc:	e2833001 	add	r3, r3, #1	; 0x1
2000e800:	e50b3010 	str	r3, [fp, #-16]
2000e804:	e51b3010 	ldr	r3, [fp, #-16]
2000e808:	e3530002 	cmp	r3, #2	; 0x2
2000e80c:	9affffe3 	bls	2000e7a0 <sem_wait+0x2c4>
2000e810:	ebffebc1 	bl	2000971c <vk_enable_interrupt>
2000e814:	e3a02000 	mov	r2, #0	; 0x0
2000e818:	e50b201c 	str	r2, [fp, #-28]
2000e81c:	e51b301c 	ldr	r3, [fp, #-28]
2000e820:	e1a00003 	mov	r0, r3
2000e824:	e24bd00c 	sub	sp, fp, #12	; 0xc
2000e828:	e89da800 	ldm	sp, {fp, sp, pc}
2000e82c:	00005088 	.word	0x00005088
2000e830:	000000ac 	.word	0x000000ac
2000e834:	fffffa80 	.word	0xfffffa80
2000e838:	0000007c 	.word	0x0000007c

2000e83c <sem_post>:
2000e83c:	e1a0c00d 	mov	ip, sp
2000e840:	e92dd800 	push	{fp, ip, lr, pc}
2000e844:	e24cb004 	sub	fp, ip, #4	; 0x4
2000e848:	e24dd010 	sub	sp, sp, #16	; 0x10
2000e84c:	e59f1264 	ldr	r1, [pc, #612]	; 2000eab8 <sem_post+0x27c>
2000e850:	e50b101c 	str	r1, [fp, #-28]
2000e854:	e51b201c 	ldr	r2, [fp, #-28]
2000e858:	e08f2002 	add	r2, pc, r2
2000e85c:	e50b201c 	str	r2, [fp, #-28]
2000e860:	e50b0018 	str	r0, [fp, #-24]
2000e864:	ebffebc1 	bl	20009770 <vk_disable_interrupt>
2000e868:	e51b3018 	ldr	r3, [fp, #-24]
2000e86c:	e5933000 	ldr	r3, [r3]
2000e870:	e50b3010 	str	r3, [fp, #-16]
2000e874:	e51b3010 	ldr	r3, [fp, #-16]
2000e878:	e593300c 	ldr	r3, [r3, #12]
2000e87c:	e2832001 	add	r2, r3, #1	; 0x1
2000e880:	e51b3010 	ldr	r3, [fp, #-16]
2000e884:	e583200c 	str	r2, [r3, #12]
2000e888:	e51b3010 	ldr	r3, [fp, #-16]
2000e88c:	e5933028 	ldr	r3, [r3, #40]
2000e890:	e3530000 	cmp	r3, #0	; 0x0
2000e894:	0a00000e 	beq	2000e8d4 <sem_post+0x98>
2000e898:	e51b3010 	ldr	r3, [fp, #-16]
2000e89c:	e5932028 	ldr	r2, [r3, #40]
2000e8a0:	e3a03001 	mov	r3, #1	; 0x1
2000e8a4:	e5823000 	str	r3, [r2]
2000e8a8:	e51b3010 	ldr	r3, [fp, #-16]
2000e8ac:	e5933028 	ldr	r3, [r3, #40]
2000e8b0:	e1a00003 	mov	r0, r3
2000e8b4:	e59f3200 	ldr	r3, [pc, #512]	; 2000eabc <sem_post+0x280>
2000e8b8:	e51b101c 	ldr	r1, [fp, #-28]
2000e8bc:	e7913003 	ldr	r3, [r1, r3]
2000e8c0:	e1a01003 	mov	r1, r3
2000e8c4:	ebfffa0e 	bl	2000d104 <vk_thread_enqueue>
2000e8c8:	e51b2010 	ldr	r2, [fp, #-16]
2000e8cc:	e3a03000 	mov	r3, #0	; 0x0
2000e8d0:	e5823028 	str	r3, [r2, #40]
2000e8d4:	e51b3010 	ldr	r3, [fp, #-16]
2000e8d8:	e593302c 	ldr	r3, [r3, #44]
2000e8dc:	e3530000 	cmp	r3, #0	; 0x0
2000e8e0:	0a00000e 	beq	2000e920 <sem_post+0xe4>
2000e8e4:	e51b3010 	ldr	r3, [fp, #-16]
2000e8e8:	e593202c 	ldr	r2, [r3, #44]
2000e8ec:	e3a03001 	mov	r3, #1	; 0x1
2000e8f0:	e5823000 	str	r3, [r2]
2000e8f4:	e51b3010 	ldr	r3, [fp, #-16]
2000e8f8:	e593302c 	ldr	r3, [r3, #44]
2000e8fc:	e1a00003 	mov	r0, r3
2000e900:	e59f31b4 	ldr	r3, [pc, #436]	; 2000eabc <sem_post+0x280>
2000e904:	e51b201c 	ldr	r2, [fp, #-28]
2000e908:	e7923003 	ldr	r3, [r2, r3]
2000e90c:	e1a01003 	mov	r1, r3
2000e910:	ebfff9fb 	bl	2000d104 <vk_thread_enqueue>
2000e914:	e51b2010 	ldr	r2, [fp, #-16]
2000e918:	e3a03000 	mov	r3, #0	; 0x0
2000e91c:	e582302c 	str	r3, [r2, #44]
2000e920:	e51b3010 	ldr	r3, [fp, #-16]
2000e924:	e5933030 	ldr	r3, [r3, #48]
2000e928:	e3530000 	cmp	r3, #0	; 0x0
2000e92c:	0a00000e 	beq	2000e96c <sem_post+0x130>
2000e930:	e51b3010 	ldr	r3, [fp, #-16]
2000e934:	e5932030 	ldr	r2, [r3, #48]
2000e938:	e3a03001 	mov	r3, #1	; 0x1
2000e93c:	e5823000 	str	r3, [r2]
2000e940:	e51b3010 	ldr	r3, [fp, #-16]
2000e944:	e5933030 	ldr	r3, [r3, #48]
2000e948:	e1a00003 	mov	r0, r3
2000e94c:	e59f3168 	ldr	r3, [pc, #360]	; 2000eabc <sem_post+0x280>
2000e950:	e51b101c 	ldr	r1, [fp, #-28]
2000e954:	e7913003 	ldr	r3, [r1, r3]
2000e958:	e1a01003 	mov	r1, r3
2000e95c:	ebfff9e8 	bl	2000d104 <vk_thread_enqueue>
2000e960:	e51b2010 	ldr	r2, [fp, #-16]
2000e964:	e3a03000 	mov	r3, #0	; 0x0
2000e968:	e5823030 	str	r3, [r2, #48]
2000e96c:	e51b3010 	ldr	r3, [fp, #-16]
2000e970:	e3a02000 	mov	r2, #0	; 0x0
2000e974:	e5832008 	str	r2, [r3, #8]
2000e978:	e3a03000 	mov	r3, #0	; 0x0
2000e97c:	e50b3014 	str	r3, [fp, #-20]
2000e980:	ea000019 	b	2000e9ec <sem_post+0x1b0>
2000e984:	e51b3014 	ldr	r3, [fp, #-20]
2000e988:	e51b1010 	ldr	r1, [fp, #-16]
2000e98c:	e283300c 	add	r3, r3, #12	; 0xc
2000e990:	e3a02004 	mov	r2, #4	; 0x4
2000e994:	e1a03103 	lsl	r3, r3, #2
2000e998:	e0813003 	add	r3, r1, r3
2000e99c:	e0833002 	add	r3, r3, r2
2000e9a0:	e5932000 	ldr	r2, [r3]
2000e9a4:	e59f3114 	ldr	r3, [pc, #276]	; 2000eac0 <sem_post+0x284>
2000e9a8:	e51b101c 	ldr	r1, [fp, #-28]
2000e9ac:	e7913003 	ldr	r3, [r1, r3]
2000e9b0:	e5933000 	ldr	r3, [r3]
2000e9b4:	e1520003 	cmp	r2, r3
2000e9b8:	1a000008 	bne	2000e9e0 <sem_post+0x1a4>
2000e9bc:	e51b3014 	ldr	r3, [fp, #-20]
2000e9c0:	e51b1010 	ldr	r1, [fp, #-16]
2000e9c4:	e283300c 	add	r3, r3, #12	; 0xc
2000e9c8:	e3a02004 	mov	r2, #4	; 0x4
2000e9cc:	e1a03103 	lsl	r3, r3, #2
2000e9d0:	e0813003 	add	r3, r1, r3
2000e9d4:	e0832002 	add	r2, r3, r2
2000e9d8:	e3a03000 	mov	r3, #0	; 0x0
2000e9dc:	e5823000 	str	r3, [r2]
2000e9e0:	e51b3014 	ldr	r3, [fp, #-20]
2000e9e4:	e2833001 	add	r3, r3, #1	; 0x1
2000e9e8:	e50b3014 	str	r3, [fp, #-20]
2000e9ec:	e51b3014 	ldr	r3, [fp, #-20]
2000e9f0:	e3530002 	cmp	r3, #2	; 0x2
2000e9f4:	9affffe2 	bls	2000e984 <sem_post+0x148>
2000e9f8:	e59f30c0 	ldr	r3, [pc, #192]	; 2000eac0 <sem_post+0x284>
2000e9fc:	e51b201c 	ldr	r2, [fp, #-28]
2000ea00:	e7923003 	ldr	r3, [r2, r3]
2000ea04:	e5933000 	ldr	r3, [r3]
2000ea08:	e5932008 	ldr	r2, [r3, #8]
2000ea0c:	e59f30ac 	ldr	r3, [pc, #172]	; 2000eac0 <sem_post+0x284>
2000ea10:	e51b101c 	ldr	r1, [fp, #-28]
2000ea14:	e7913003 	ldr	r3, [r1, r3]
2000ea18:	e5933000 	ldr	r3, [r3]
2000ea1c:	e593300c 	ldr	r3, [r3, #12]
2000ea20:	e1520003 	cmp	r2, r3
2000ea24:	0a00001d 	beq	2000eaa0 <sem_post+0x264>
2000ea28:	e59f3090 	ldr	r3, [pc, #144]	; 2000eac0 <sem_post+0x284>
2000ea2c:	e51b201c 	ldr	r2, [fp, #-28]
2000ea30:	e7923003 	ldr	r3, [r2, r3]
2000ea34:	e5933000 	ldr	r3, [r3]
2000ea38:	e1a00003 	mov	r0, r3
2000ea3c:	e59f3078 	ldr	r3, [pc, #120]	; 2000eabc <sem_post+0x280>
2000ea40:	e51b101c 	ldr	r1, [fp, #-28]
2000ea44:	e7913003 	ldr	r3, [r1, r3]
2000ea48:	e1a01003 	mov	r1, r3
2000ea4c:	ebfffa1a 	bl	2000d2bc <vk_thread_dequeue>
2000ea50:	e59f3068 	ldr	r3, [pc, #104]	; 2000eac0 <sem_post+0x284>
2000ea54:	e51b201c 	ldr	r2, [fp, #-28]
2000ea58:	e7923003 	ldr	r3, [r2, r3]
2000ea5c:	e5932000 	ldr	r2, [r3]
2000ea60:	e59f3058 	ldr	r3, [pc, #88]	; 2000eac0 <sem_post+0x284>
2000ea64:	e51b101c 	ldr	r1, [fp, #-28]
2000ea68:	e7913003 	ldr	r3, [r1, r3]
2000ea6c:	e5933000 	ldr	r3, [r3]
2000ea70:	e593300c 	ldr	r3, [r3, #12]
2000ea74:	e5823008 	str	r3, [r2, #8]
2000ea78:	e59f3040 	ldr	r3, [pc, #64]	; 2000eac0 <sem_post+0x284>
2000ea7c:	e51b201c 	ldr	r2, [fp, #-28]
2000ea80:	e7923003 	ldr	r3, [r2, r3]
2000ea84:	e5933000 	ldr	r3, [r3]
2000ea88:	e1a00003 	mov	r0, r3
2000ea8c:	e59f3028 	ldr	r3, [pc, #40]	; 2000eabc <sem_post+0x280>
2000ea90:	e51b101c 	ldr	r1, [fp, #-28]
2000ea94:	e7913003 	ldr	r3, [r1, r3]
2000ea98:	e1a01003 	mov	r1, r3
2000ea9c:	ebfff998 	bl	2000d104 <vk_thread_enqueue>
2000eaa0:	ebffeb47 	bl	200097c4 <vk_swi_scheduler>
2000eaa4:	ebffeb1c 	bl	2000971c <vk_enable_interrupt>
2000eaa8:	e3a03000 	mov	r3, #0	; 0x0
2000eaac:	e1a00003 	mov	r0, r3
2000eab0:	e24bd00c 	sub	sp, fp, #12	; 0xc
2000eab4:	e89da800 	ldm	sp, {fp, sp, pc}
2000eab8:	00004d28 	.word	0x00004d28
2000eabc:	0000007c 	.word	0x0000007c
2000eac0:	000000ac 	.word	0x000000ac

2000eac4 <sem_getvalue>:
2000eac4:	e1a0c00d 	mov	ip, sp
2000eac8:	e92dd800 	push	{fp, ip, lr, pc}
2000eacc:	e24cb004 	sub	fp, ip, #4	; 0x4
2000ead0:	e24dd018 	sub	sp, sp, #24	; 0x18
2000ead4:	e50b0018 	str	r0, [fp, #-24]
2000ead8:	e50b101c 	str	r1, [fp, #-28]
2000eadc:	e51b3018 	ldr	r3, [fp, #-24]
2000eae0:	e5933000 	ldr	r3, [r3]
2000eae4:	e50b3010 	str	r3, [fp, #-16]
2000eae8:	e51b301c 	ldr	r3, [fp, #-28]
2000eaec:	e3530000 	cmp	r3, #0	; 0x0
2000eaf0:	0a000002 	beq	2000eb00 <sem_getvalue+0x3c>
2000eaf4:	e51b3018 	ldr	r3, [fp, #-24]
2000eaf8:	e3530000 	cmp	r3, #0	; 0x0
2000eafc:	1a000002 	bne	2000eb0c <sem_getvalue+0x48>
2000eb00:	e3a03001 	mov	r3, #1	; 0x1
2000eb04:	e50b3020 	str	r3, [fp, #-32]
2000eb08:	ea000005 	b	2000eb24 <sem_getvalue+0x60>
2000eb0c:	e51b3010 	ldr	r3, [fp, #-16]
2000eb10:	e593200c 	ldr	r2, [r3, #12]
2000eb14:	e51b301c 	ldr	r3, [fp, #-28]
2000eb18:	e5832000 	str	r2, [r3]
2000eb1c:	e3a03000 	mov	r3, #0	; 0x0
2000eb20:	e50b3020 	str	r3, [fp, #-32]
2000eb24:	e51b3020 	ldr	r3, [fp, #-32]
2000eb28:	e1a00003 	mov	r0, r3
2000eb2c:	e24bd00c 	sub	sp, fp, #12	; 0xc
2000eb30:	e89da800 	ldm	sp, {fp, sp, pc}

2000eb34 <getc>:
2000eb34:	e1a0c00d 	mov	ip, sp
2000eb38:	e92dd800 	push	{fp, ip, lr, pc}
2000eb3c:	e24cb004 	sub	fp, ip, #4	; 0x4
2000eb40:	e24dd010 	sub	sp, sp, #16	; 0x10
2000eb44:	e59f107c 	ldr	r1, [pc, #124]	; 2000ebc8 <getc+0x94>
2000eb48:	e50b1018 	str	r1, [fp, #-24]
2000eb4c:	e51b2018 	ldr	r2, [fp, #-24]
2000eb50:	e08f2002 	add	r2, pc, r2
2000eb54:	e50b2018 	str	r2, [fp, #-24]
2000eb58:	e59f306c 	ldr	r3, [pc, #108]	; 2000ebcc <getc+0x98>
2000eb5c:	e51b1018 	ldr	r1, [fp, #-24]
2000eb60:	e7913003 	ldr	r3, [r1, r3]
2000eb64:	e5932000 	ldr	r2, [r3]
2000eb68:	e59f3060 	ldr	r3, [pc, #96]	; 2000ebd0 <getc+0x9c>
2000eb6c:	e51b1018 	ldr	r1, [fp, #-24]
2000eb70:	e7913003 	ldr	r3, [r1, r3]
2000eb74:	e5933000 	ldr	r3, [r3]
2000eb78:	e1520003 	cmp	r2, r3
2000eb7c:	0afffff5 	beq	2000eb58 <getc+0x24>
2000eb80:	e59f3044 	ldr	r3, [pc, #68]	; 2000ebcc <getc+0x98>
2000eb84:	e51b2018 	ldr	r2, [fp, #-24]
2000eb88:	e7923003 	ldr	r3, [r2, r3]
2000eb8c:	e5932000 	ldr	r2, [r3]
2000eb90:	e59f303c 	ldr	r3, [pc, #60]	; 2000ebd4 <getc+0xa0>
2000eb94:	e51b1018 	ldr	r1, [fp, #-24]
2000eb98:	e7913003 	ldr	r3, [r1, r3]
2000eb9c:	e7d33002 	ldrb	r3, [r3, r2]
2000eba0:	e54b3011 	strb	r3, [fp, #-17]
2000eba4:	e2822001 	add	r2, r2, #1	; 0x1
2000eba8:	e59f301c 	ldr	r3, [pc, #28]	; 2000ebcc <getc+0x98>
2000ebac:	e51b1018 	ldr	r1, [fp, #-24]
2000ebb0:	e7913003 	ldr	r3, [r1, r3]
2000ebb4:	e5832000 	str	r2, [r3]
2000ebb8:	e55b3011 	ldrb	r3, [fp, #-17]
2000ebbc:	e1a00003 	mov	r0, r3
2000ebc0:	e24bd00c 	sub	sp, fp, #12	; 0xc
2000ebc4:	e89da800 	ldm	sp, {fp, sp, pc}
2000ebc8:	00004a30 	.word	0x00004a30
2000ebcc:	00000064 	.word	0x00000064
2000ebd0:	0000005c 	.word	0x0000005c
2000ebd4:	00000078 	.word	0x00000078

2000ebd8 <putc>:
2000ebd8:	e1a0c00d 	mov	ip, sp
2000ebdc:	e92dd800 	push	{fp, ip, lr, pc}
2000ebe0:	e24cb004 	sub	fp, ip, #4	; 0x4
2000ebe4:	e24dd008 	sub	sp, sp, #8	; 0x8
2000ebe8:	e1a03000 	mov	r3, r0
2000ebec:	e54b300d 	strb	r3, [fp, #-13]
2000ebf0:	e59f3024 	ldr	r3, [pc, #36]	; 2000ec1c <putc+0x44>
2000ebf4:	e5933000 	ldr	r3, [r3]
2000ebf8:	e2033004 	and	r3, r3, #4	; 0x4
2000ebfc:	e3530000 	cmp	r3, #0	; 0x0
2000ec00:	0afffffa 	beq	2000ebf0 <putc+0x18>
2000ec04:	e59f2014 	ldr	r2, [pc, #20]	; 2000ec20 <putc+0x48>
2000ec08:	e55b300d 	ldrb	r3, [fp, #-13]
2000ec0c:	e5c23000 	strb	r3, [r2]
2000ec10:	e5d22000 	ldrb	r2, [r2]
2000ec14:	e24bd00c 	sub	sp, fp, #12	; 0xc
2000ec18:	e89da800 	ldm	sp, {fp, sp, pc}
2000ec1c:	ec000410 	.word	0xec000410
2000ec20:	ec000420 	.word	0xec000420

2000ec24 <tstc>:
2000ec24:	e1a0c00d 	mov	ip, sp
2000ec28:	e92dd800 	push	{fp, ip, lr, pc}
2000ec2c:	e24cb004 	sub	fp, ip, #4	; 0x4
2000ec30:	e59f300c 	ldr	r3, [pc, #12]	; 2000ec44 <tstc+0x20>
2000ec34:	e5933000 	ldr	r3, [r3]
2000ec38:	e2033001 	and	r3, r3, #1	; 0x1
2000ec3c:	e1a00003 	mov	r0, r3
2000ec40:	e89da800 	ldm	sp, {fp, sp, pc}
2000ec44:	ec000410 	.word	0xec000410

2000ec48 <vh_serial_init>:
2000ec48:	e1a0c00d 	mov	ip, sp
2000ec4c:	e92dd800 	push	{fp, ip, lr, pc}
2000ec50:	e24cb004 	sub	fp, ip, #4	; 0x4
2000ec54:	e24dd010 	sub	sp, sp, #16	; 0x10
2000ec58:	e59f00d8 	ldr	r0, [pc, #216]	; 2000ed38 <vh_serial_init+0xf0>
2000ec5c:	e50b0018 	str	r0, [fp, #-24]
2000ec60:	e51b1018 	ldr	r1, [fp, #-24]
2000ec64:	e08f1001 	add	r1, pc, r1
2000ec68:	e50b1018 	str	r1, [fp, #-24]
2000ec6c:	e59f20c8 	ldr	r2, [pc, #200]	; 2000ed3c <vh_serial_init+0xf4>
2000ec70:	e3a03822 	mov	r3, #2228224	; 0x220000
2000ec74:	e5823000 	str	r3, [r2]
2000ec78:	e59f20c0 	ldr	r2, [pc, #192]	; 2000ed40 <vh_serial_init+0xf8>
2000ec7c:	e3a03c0a 	mov	r3, #2560	; 0xa00
2000ec80:	e5823000 	str	r3, [r2]
2000ec84:	e59f20b8 	ldr	r2, [pc, #184]	; 2000ed44 <vh_serial_init+0xfc>
2000ec88:	e3a03003 	mov	r3, #3	; 0x3
2000ec8c:	e5823000 	str	r3, [r2]
2000ec90:	e59f20b0 	ldr	r2, [pc, #176]	; 2000ed48 <vh_serial_init+0x100>
2000ec94:	e59f30b0 	ldr	r3, [pc, #176]	; 2000ed4c <vh_serial_init+0x104>
2000ec98:	e5823000 	str	r3, [r2]
2000ec9c:	e59f20ac 	ldr	r2, [pc, #172]	; 2000ed50 <vh_serial_init+0x108>
2000eca0:	e3a030c7 	mov	r3, #199	; 0xc7
2000eca4:	e5823000 	str	r3, [r2]
2000eca8:	e59f20a4 	ldr	r2, [pc, #164]	; 2000ed54 <vh_serial_init+0x10c>
2000ecac:	e3a0300e 	mov	r3, #14	; 0xe
2000ecb0:	e5823000 	str	r3, [r2]
2000ecb4:	e59f209c 	ldr	r2, [pc, #156]	; 2000ed58 <vh_serial_init+0x110>
2000ecb8:	e3a0300f 	mov	r3, #15	; 0xf
2000ecbc:	e5823000 	str	r3, [r2]
2000ecc0:	e59f2094 	ldr	r2, [pc, #148]	; 2000ed5c <vh_serial_init+0x114>
2000ecc4:	e3a03022 	mov	r3, #34	; 0x22
2000ecc8:	e5823000 	str	r3, [r2]
2000eccc:	e59f308c 	ldr	r3, [pc, #140]	; 2000ed60 <vh_serial_init+0x118>
2000ecd0:	e51b0018 	ldr	r0, [fp, #-24]
2000ecd4:	e7902003 	ldr	r2, [r0, r3]
2000ecd8:	e3a03000 	mov	r3, #0	; 0x0
2000ecdc:	e5823000 	str	r3, [r2]
2000ece0:	e59f307c 	ldr	r3, [pc, #124]	; 2000ed64 <vh_serial_init+0x11c>
2000ece4:	e51b1018 	ldr	r1, [fp, #-24]
2000ece8:	e7912003 	ldr	r2, [r1, r3]
2000ecec:	e3a03000 	mov	r3, #0	; 0x0
2000ecf0:	e5823000 	str	r3, [r2]
2000ecf4:	e3a03000 	mov	r3, #0	; 0x0
2000ecf8:	e50b3010 	str	r3, [fp, #-16]
2000ecfc:	ea000008 	b	2000ed24 <vh_serial_init+0xdc>
2000ed00:	e51b1010 	ldr	r1, [fp, #-16]
2000ed04:	e59f305c 	ldr	r3, [pc, #92]	; 2000ed68 <vh_serial_init+0x120>
2000ed08:	e51b0018 	ldr	r0, [fp, #-24]
2000ed0c:	e7902003 	ldr	r2, [r0, r3]
2000ed10:	e3a03000 	mov	r3, #0	; 0x0
2000ed14:	e7c23001 	strb	r3, [r2, r1]
2000ed18:	e51b3010 	ldr	r3, [fp, #-16]
2000ed1c:	e2833001 	add	r3, r3, #1	; 0x1
2000ed20:	e50b3010 	str	r3, [fp, #-16]
2000ed24:	e51b3010 	ldr	r3, [fp, #-16]
2000ed28:	e3530063 	cmp	r3, #99	; 0x63
2000ed2c:	dafffff3 	ble	2000ed00 <vh_serial_init+0xb8>
2000ed30:	e24bd00c 	sub	sp, fp, #12	; 0xc
2000ed34:	e89da800 	ldm	sp, {fp, sp, pc}
2000ed38:	0000491c 	.word	0x0000491c
2000ed3c:	e0300000 	.word	0xe0300000
2000ed40:	e0300008 	.word	0xe0300008
2000ed44:	ec000400 	.word	0xec000400
2000ed48:	ec000404 	.word	0xec000404
2000ed4c:	00000245 	.word	0x00000245
2000ed50:	ec000408 	.word	0xec000408
2000ed54:	ec000438 	.word	0xec000438
2000ed58:	ec000430 	.word	0xec000430
2000ed5c:	ec000428 	.word	0xec000428
2000ed60:	0000005c 	.word	0x0000005c
2000ed64:	00000064 	.word	0x00000064
2000ed68:	00000078 	.word	0x00000078

2000ed6c <vh_serial_irq_enable>:
2000ed6c:	e1a0c00d 	mov	ip, sp
2000ed70:	e92dd800 	push	{fp, ip, lr, pc}
2000ed74:	e24cb004 	sub	fp, ip, #4	; 0x4
2000ed78:	e59f3048 	ldr	r3, [pc, #72]	; 2000edc8 <vh_serial_irq_enable+0x5c>
2000ed7c:	e08f3003 	add	r3, pc, r3
2000ed80:	e59f1044 	ldr	r1, [pc, #68]	; 2000edcc <vh_serial_irq_enable+0x60>
2000ed84:	e59f2044 	ldr	r2, [pc, #68]	; 2000edd0 <vh_serial_irq_enable+0x64>
2000ed88:	e7933002 	ldr	r3, [r3, r2]
2000ed8c:	e5813000 	str	r3, [r1]
2000ed90:	e59f203c 	ldr	r2, [pc, #60]	; 2000edd4 <vh_serial_irq_enable+0x68>
2000ed94:	e59f3038 	ldr	r3, [pc, #56]	; 2000edd4 <vh_serial_irq_enable+0x68>
2000ed98:	e5933000 	ldr	r3, [r3]
2000ed9c:	e3833b02 	orr	r3, r3, #2048	; 0x800
2000eda0:	e5823000 	str	r3, [r2]
2000eda4:	e59f202c 	ldr	r2, [pc, #44]	; 2000edd8 <vh_serial_irq_enable+0x6c>
2000eda8:	e59f3028 	ldr	r3, [pc, #40]	; 2000edd8 <vh_serial_irq_enable+0x6c>
2000edac:	e5933000 	ldr	r3, [r3]
2000edb0:	e3c33b02 	bic	r3, r3, #2048	; 0x800
2000edb4:	e5823000 	str	r3, [r2]
2000edb8:	e59f201c 	ldr	r2, [pc, #28]	; 2000eddc <vh_serial_irq_enable+0x70>
2000edbc:	e59f301c 	ldr	r3, [pc, #28]	; 2000ede0 <vh_serial_irq_enable+0x74>
2000edc0:	e5823000 	str	r3, [r2]
2000edc4:	e89da800 	ldm	sp, {fp, sp, pc}
2000edc8:	00004804 	.word	0x00004804
2000edcc:	e410012c 	.word	0xe410012c
2000edd0:	000000b0 	.word	0x000000b0
2000edd4:	e4100010 	.word	0xe4100010
2000edd8:	e410000c 	.word	0xe410000c
2000eddc:	e4100024 	.word	0xe4100024
2000ede0:	0000ffff 	.word	0x0000ffff

2000ede4 <vk_serial_push>:
2000ede4:	e1a0c00d 	mov	ip, sp
2000ede8:	e92dd800 	push	{fp, ip, lr, pc}
2000edec:	e24cb004 	sub	fp, ip, #4	; 0x4
2000edf0:	e24dd010 	sub	sp, sp, #16	; 0x10
2000edf4:	e59f008c 	ldr	r0, [pc, #140]	; 2000ee88 <vk_serial_push+0xa4>
2000edf8:	e50b0018 	str	r0, [fp, #-24]
2000edfc:	e51b1018 	ldr	r1, [fp, #-24]
2000ee00:	e08f1001 	add	r1, pc, r1
2000ee04:	e50b1018 	str	r1, [fp, #-24]
2000ee08:	e3a03000 	mov	r3, #0	; 0x0
2000ee0c:	e50b3010 	str	r3, [fp, #-16]
2000ee10:	e59f3074 	ldr	r3, [pc, #116]	; 2000ee8c <vk_serial_push+0xa8>
2000ee14:	e5933000 	ldr	r3, [r3]
2000ee18:	e54b3011 	strb	r3, [fp, #-17]
2000ee1c:	e59f306c 	ldr	r3, [pc, #108]	; 2000ee90 <vk_serial_push+0xac>
2000ee20:	e51b2018 	ldr	r2, [fp, #-24]
2000ee24:	e7923003 	ldr	r3, [r2, r3]
2000ee28:	e5933000 	ldr	r3, [r3]
2000ee2c:	e3530064 	cmp	r3, #100	; 0x64
2000ee30:	1a000004 	bne	2000ee48 <vk_serial_push+0x64>
2000ee34:	e59f3054 	ldr	r3, [pc, #84]	; 2000ee90 <vk_serial_push+0xac>
2000ee38:	e51b0018 	ldr	r0, [fp, #-24]
2000ee3c:	e7902003 	ldr	r2, [r0, r3]
2000ee40:	e3a03000 	mov	r3, #0	; 0x0
2000ee44:	e5823000 	str	r3, [r2]
2000ee48:	e59f3040 	ldr	r3, [pc, #64]	; 2000ee90 <vk_serial_push+0xac>
2000ee4c:	e51b1018 	ldr	r1, [fp, #-24]
2000ee50:	e7913003 	ldr	r3, [r1, r3]
2000ee54:	e5931000 	ldr	r1, [r3]
2000ee58:	e59f3034 	ldr	r3, [pc, #52]	; 2000ee94 <vk_serial_push+0xb0>
2000ee5c:	e51b0018 	ldr	r0, [fp, #-24]
2000ee60:	e7902003 	ldr	r2, [r0, r3]
2000ee64:	e55b3011 	ldrb	r3, [fp, #-17]
2000ee68:	e7c23001 	strb	r3, [r2, r1]
2000ee6c:	e2812001 	add	r2, r1, #1	; 0x1
2000ee70:	e59f3018 	ldr	r3, [pc, #24]	; 2000ee90 <vk_serial_push+0xac>
2000ee74:	e51b1018 	ldr	r1, [fp, #-24]
2000ee78:	e7913003 	ldr	r3, [r1, r3]
2000ee7c:	e5832000 	str	r2, [r3]
2000ee80:	e24bd00c 	sub	sp, fp, #12	; 0xc
2000ee84:	e89da800 	ldm	sp, {fp, sp, pc}
2000ee88:	00004780 	.word	0x00004780
2000ee8c:	ec000424 	.word	0xec000424
2000ee90:	0000005c 	.word	0x0000005c
2000ee94:	00000078 	.word	0x00000078

2000ee98 <vh_serial_interrupt_handler>:
2000ee98:	e1a0c00d 	mov	ip, sp
2000ee9c:	e92dd800 	push	{fp, ip, lr, pc}
2000eea0:	e24cb004 	sub	fp, ip, #4	; 0x4
2000eea4:	ebffffce 	bl	2000ede4 <vk_serial_push>
2000eea8:	e59f2030 	ldr	r2, [pc, #48]	; 2000eee0 <vh_serial_interrupt_handler+0x48>
2000eeac:	e59f302c 	ldr	r3, [pc, #44]	; 2000eee0 <vh_serial_interrupt_handler+0x48>
2000eeb0:	e5933000 	ldr	r3, [r3]
2000eeb4:	e3833b02 	orr	r3, r3, #2048	; 0x800
2000eeb8:	e5823000 	str	r3, [r2]
2000eebc:	e59f2020 	ldr	r2, [pc, #32]	; 2000eee4 <vh_serial_interrupt_handler+0x4c>
2000eec0:	e59f301c 	ldr	r3, [pc, #28]	; 2000eee4 <vh_serial_interrupt_handler+0x4c>
2000eec4:	e5933000 	ldr	r3, [r3]
2000eec8:	e3833b02 	orr	r3, r3, #2048	; 0x800
2000eecc:	e5823000 	str	r3, [r2]
2000eed0:	e59f2010 	ldr	r2, [pc, #16]	; 2000eee8 <vh_serial_interrupt_handler+0x50>
2000eed4:	e3a0300f 	mov	r3, #15	; 0xf
2000eed8:	e5823000 	str	r3, [r2]
2000eedc:	e89da800 	ldm	sp, {fp, sp, pc}
2000eee0:	e4100014 	.word	0xe4100014
2000eee4:	e4100010 	.word	0xe4100010
2000eee8:	ec000430 	.word	0xec000430

2000eeec <vh_seven_init>:
2000eeec:	e1a0c00d 	mov	ip, sp
2000eef0:	e92dd810 	push	{r4, fp, ip, lr, pc}
2000eef4:	e24cb004 	sub	fp, ip, #4	; 0x4
2000eef8:	e24dd00c 	sub	sp, sp, #12	; 0xc
2000eefc:	e59f40c4 	ldr	r4, [pc, #196]	; 2000efc8 <vh_seven_init+0xdc>
2000ef00:	e08f4004 	add	r4, pc, r4
2000ef04:	e59f20c0 	ldr	r2, [pc, #192]	; 2000efcc <vh_seven_init+0xe0>
2000ef08:	e59f30bc 	ldr	r3, [pc, #188]	; 2000efcc <vh_seven_init+0xe0>
2000ef0c:	e5933000 	ldr	r3, [r3]
2000ef10:	e3c3360f 	bic	r3, r3, #15728640	; 0xf00000
2000ef14:	e5823000 	str	r3, [r2]
2000ef18:	e59f20ac 	ldr	r2, [pc, #172]	; 2000efcc <vh_seven_init+0xe0>
2000ef1c:	e59f30a8 	ldr	r3, [pc, #168]	; 2000efcc <vh_seven_init+0xe0>
2000ef20:	e5933000 	ldr	r3, [r3]
2000ef24:	e3833602 	orr	r3, r3, #2097152	; 0x200000
2000ef28:	e5823000 	str	r3, [r2]
2000ef2c:	e59f309c 	ldr	r3, [pc, #156]	; 2000efd0 <vh_seven_init+0xe4>
2000ef30:	e5933000 	ldr	r3, [r3]
2000ef34:	e59f2094 	ldr	r2, [pc, #148]	; 2000efd0 <vh_seven_init+0xe4>
2000ef38:	e3a03000 	mov	r3, #0	; 0x0
2000ef3c:	e5823000 	str	r3, [r2]
2000ef40:	e59f2088 	ldr	r2, [pc, #136]	; 2000efd0 <vh_seven_init+0xe4>
2000ef44:	e59f3084 	ldr	r3, [pc, #132]	; 2000efd0 <vh_seven_init+0xe4>
2000ef48:	e5933000 	ldr	r3, [r3]
2000ef4c:	e3833902 	orr	r3, r3, #32768	; 0x8000
2000ef50:	e3833007 	orr	r3, r3, #7	; 0x7
2000ef54:	e5823000 	str	r3, [r2]
2000ef58:	e59f2074 	ldr	r2, [pc, #116]	; 2000efd4 <vh_seven_init+0xe8>
2000ef5c:	e59f3070 	ldr	r3, [pc, #112]	; 2000efd4 <vh_seven_init+0xe8>
2000ef60:	e5933000 	ldr	r3, [r3]
2000ef64:	e3833050 	orr	r3, r3, #80	; 0x50
2000ef68:	e5823000 	str	r3, [r2]
2000ef6c:	e3a034e7 	mov	r3, #-419430400	; 0xe7000000
2000ef70:	e5932000 	ldr	r2, [r3]
2000ef74:	e59f305c 	ldr	r3, [pc, #92]	; 2000efd8 <vh_seven_init+0xec>
2000ef78:	e0843003 	add	r3, r4, r3
2000ef7c:	e1a00003 	mov	r0, r3
2000ef80:	e1a01002 	mov	r1, r2
2000ef84:	ebfff6dc 	bl	2000cafc <printk>
2000ef88:	e59f3040 	ldr	r3, [pc, #64]	; 2000efd0 <vh_seven_init+0xe4>
2000ef8c:	e5932000 	ldr	r2, [r3]
2000ef90:	e59f3044 	ldr	r3, [pc, #68]	; 2000efdc <vh_seven_init+0xf0>
2000ef94:	e0843003 	add	r3, r4, r3
2000ef98:	e1a00003 	mov	r0, r3
2000ef9c:	e1a01002 	mov	r1, r2
2000efa0:	ebfff6d5 	bl	2000cafc <printk>
2000efa4:	e59f3028 	ldr	r3, [pc, #40]	; 2000efd4 <vh_seven_init+0xe8>
2000efa8:	e5932000 	ldr	r2, [r3]
2000efac:	e59f302c 	ldr	r3, [pc, #44]	; 2000efe0 <vh_seven_init+0xf4>
2000efb0:	e0843003 	add	r3, r4, r3
2000efb4:	e1a00003 	mov	r0, r3
2000efb8:	e1a01002 	mov	r1, r2
2000efbc:	ebfff6ce 	bl	2000cafc <printk>
2000efc0:	e24bd010 	sub	sp, fp, #16	; 0x10
2000efc4:	e89da810 	ldm	sp, {r4, fp, sp, pc}
2000efc8:	00004680 	.word	0x00004680
2000efcc:	e03002a0 	.word	0xe03002a0
2000efd0:	a800c080 	.word	0xa800c080
2000efd4:	a800c084 	.word	0xa800c084
2000efd8:	fffffabc 	.word	0xfffffabc
2000efdc:	fffffacc 	.word	0xfffffacc
2000efe0:	fffffae0 	.word	0xfffffae0

2000efe4 <strcasecmp>:
2000efe4:	e1a0c00d 	mov	ip, sp
2000efe8:	e92dd800 	push	{fp, ip, lr, pc}
2000efec:	e24cb004 	sub	fp, ip, #4	; 0x4
2000eff0:	e24dd018 	sub	sp, sp, #24	; 0x18
2000eff4:	e50b0018 	str	r0, [fp, #-24]
2000eff8:	e50b101c 	str	r1, [fp, #-28]
2000effc:	ea000033 	b	2000f0d0 <strcasecmp+0xec>
2000f000:	e51b3018 	ldr	r3, [fp, #-24]
2000f004:	e5d33000 	ldrb	r3, [r3]
2000f008:	e3530060 	cmp	r3, #96	; 0x60
2000f00c:	9a000008 	bls	2000f034 <strcasecmp+0x50>
2000f010:	e51b3018 	ldr	r3, [fp, #-24]
2000f014:	e5d33000 	ldrb	r3, [r3]
2000f018:	e353007a 	cmp	r3, #122	; 0x7a
2000f01c:	8a000004 	bhi	2000f034 <strcasecmp+0x50>
2000f020:	e51b3018 	ldr	r3, [fp, #-24]
2000f024:	e5d33000 	ldrb	r3, [r3]
2000f028:	e2433020 	sub	r3, r3, #32	; 0x20
2000f02c:	e50b3014 	str	r3, [fp, #-20]
2000f030:	ea000002 	b	2000f040 <strcasecmp+0x5c>
2000f034:	e51b3018 	ldr	r3, [fp, #-24]
2000f038:	e5d33000 	ldrb	r3, [r3]
2000f03c:	e50b3014 	str	r3, [fp, #-20]
2000f040:	e51b301c 	ldr	r3, [fp, #-28]
2000f044:	e5d33000 	ldrb	r3, [r3]
2000f048:	e3530060 	cmp	r3, #96	; 0x60
2000f04c:	9a000008 	bls	2000f074 <strcasecmp+0x90>
2000f050:	e51b301c 	ldr	r3, [fp, #-28]
2000f054:	e5d33000 	ldrb	r3, [r3]
2000f058:	e353007a 	cmp	r3, #122	; 0x7a
2000f05c:	8a000004 	bhi	2000f074 <strcasecmp+0x90>
2000f060:	e51b301c 	ldr	r3, [fp, #-28]
2000f064:	e5d33000 	ldrb	r3, [r3]
2000f068:	e2433020 	sub	r3, r3, #32	; 0x20
2000f06c:	e50b3010 	str	r3, [fp, #-16]
2000f070:	ea000002 	b	2000f080 <strcasecmp+0x9c>
2000f074:	e51b301c 	ldr	r3, [fp, #-28]
2000f078:	e5d33000 	ldrb	r3, [r3]
2000f07c:	e50b3010 	str	r3, [fp, #-16]
2000f080:	e51b2014 	ldr	r2, [fp, #-20]
2000f084:	e51b3010 	ldr	r3, [fp, #-16]
2000f088:	e1520003 	cmp	r2, r3
2000f08c:	da000002 	ble	2000f09c <strcasecmp+0xb8>
2000f090:	e3a03001 	mov	r3, #1	; 0x1
2000f094:	e50b3020 	str	r3, [fp, #-32]
2000f098:	ea000024 	b	2000f130 <strcasecmp+0x14c>
2000f09c:	e51b2014 	ldr	r2, [fp, #-20]
2000f0a0:	e51b3010 	ldr	r3, [fp, #-16]
2000f0a4:	e1520003 	cmp	r2, r3
2000f0a8:	aa000002 	bge	2000f0b8 <strcasecmp+0xd4>
2000f0ac:	e3e03000 	mvn	r3, #0	; 0x0
2000f0b0:	e50b3020 	str	r3, [fp, #-32]
2000f0b4:	ea00001d 	b	2000f130 <strcasecmp+0x14c>
2000f0b8:	e51b3018 	ldr	r3, [fp, #-24]
2000f0bc:	e2833001 	add	r3, r3, #1	; 0x1
2000f0c0:	e50b3018 	str	r3, [fp, #-24]
2000f0c4:	e51b301c 	ldr	r3, [fp, #-28]
2000f0c8:	e2833001 	add	r3, r3, #1	; 0x1
2000f0cc:	e50b301c 	str	r3, [fp, #-28]
2000f0d0:	e51b3018 	ldr	r3, [fp, #-24]
2000f0d4:	e5d33000 	ldrb	r3, [r3]
2000f0d8:	e3530000 	cmp	r3, #0	; 0x0
2000f0dc:	0a000003 	beq	2000f0f0 <strcasecmp+0x10c>
2000f0e0:	e51b301c 	ldr	r3, [fp, #-28]
2000f0e4:	e5d33000 	ldrb	r3, [r3]
2000f0e8:	e3530000 	cmp	r3, #0	; 0x0
2000f0ec:	1affffc3 	bne	2000f000 <strcasecmp+0x1c>
2000f0f0:	e51b3018 	ldr	r3, [fp, #-24]
2000f0f4:	e5d33000 	ldrb	r3, [r3]
2000f0f8:	e3530000 	cmp	r3, #0	; 0x0
2000f0fc:	0a000002 	beq	2000f10c <strcasecmp+0x128>
2000f100:	e3a03001 	mov	r3, #1	; 0x1
2000f104:	e50b3020 	str	r3, [fp, #-32]
2000f108:	ea000008 	b	2000f130 <strcasecmp+0x14c>
2000f10c:	e51b301c 	ldr	r3, [fp, #-28]
2000f110:	e5d33000 	ldrb	r3, [r3]
2000f114:	e3530000 	cmp	r3, #0	; 0x0
2000f118:	0a000002 	beq	2000f128 <strcasecmp+0x144>
2000f11c:	e3e03000 	mvn	r3, #0	; 0x0
2000f120:	e50b3020 	str	r3, [fp, #-32]
2000f124:	ea000001 	b	2000f130 <strcasecmp+0x14c>
2000f128:	e3a03000 	mov	r3, #0	; 0x0
2000f12c:	e50b3020 	str	r3, [fp, #-32]
2000f130:	e51b3020 	ldr	r3, [fp, #-32]
2000f134:	e1a00003 	mov	r0, r3
2000f138:	e24bd00c 	sub	sp, fp, #12	; 0xc
2000f13c:	e89da800 	ldm	sp, {fp, sp, pc}

2000f140 <TOLOWER>:
2000f140:	e1a0c00d 	mov	ip, sp
2000f144:	e92dd800 	push	{fp, ip, lr, pc}
2000f148:	e24cb004 	sub	fp, ip, #4	; 0x4
2000f14c:	e24dd008 	sub	sp, sp, #8	; 0x8
2000f150:	e1a03000 	mov	r3, r0
2000f154:	e54b300d 	strb	r3, [fp, #-13]
2000f158:	e55b300d 	ldrb	r3, [fp, #-13]
2000f15c:	e3530040 	cmp	r3, #64	; 0x40
2000f160:	9a000007 	bls	2000f184 <TOLOWER+0x44>
2000f164:	e55b300d 	ldrb	r3, [fp, #-13]
2000f168:	e353005a 	cmp	r3, #90	; 0x5a
2000f16c:	8a000004 	bhi	2000f184 <TOLOWER+0x44>
2000f170:	e55b300d 	ldrb	r3, [fp, #-13]
2000f174:	e2833020 	add	r3, r3, #32	; 0x20
2000f178:	e20330ff 	and	r3, r3, #255	; 0xff
2000f17c:	e50b3014 	str	r3, [fp, #-20]
2000f180:	ea000001 	b	2000f18c <TOLOWER+0x4c>
2000f184:	e55b300d 	ldrb	r3, [fp, #-13]
2000f188:	e50b3014 	str	r3, [fp, #-20]
2000f18c:	e51b3014 	ldr	r3, [fp, #-20]
2000f190:	e1a00003 	mov	r0, r3
2000f194:	e24bd00c 	sub	sp, fp, #12	; 0xc
2000f198:	e89da800 	ldm	sp, {fp, sp, pc}

2000f19c <strncasecmp>:
2000f19c:	e1a0c00d 	mov	ip, sp
2000f1a0:	e92dd800 	push	{fp, ip, lr, pc}
2000f1a4:	e24cb004 	sub	fp, ip, #4	; 0x4
2000f1a8:	e24dd020 	sub	sp, sp, #32	; 0x20
2000f1ac:	e50b0020 	str	r0, [fp, #-32]
2000f1b0:	e50b1024 	str	r1, [fp, #-36]
2000f1b4:	e50b2028 	str	r2, [fp, #-40]
2000f1b8:	e51b3020 	ldr	r3, [fp, #-32]
2000f1bc:	e50b3018 	str	r3, [fp, #-24]
2000f1c0:	e51b3024 	ldr	r3, [fp, #-36]
2000f1c4:	e50b3014 	str	r3, [fp, #-20]
2000f1c8:	e51b2018 	ldr	r2, [fp, #-24]
2000f1cc:	e51b3014 	ldr	r3, [fp, #-20]
2000f1d0:	e1520003 	cmp	r2, r3
2000f1d4:	0a000002 	beq	2000f1e4 <strncasecmp+0x48>
2000f1d8:	e51b3028 	ldr	r3, [fp, #-40]
2000f1dc:	e3530000 	cmp	r3, #0	; 0x0
2000f1e0:	1a000002 	bne	2000f1f0 <strncasecmp+0x54>
2000f1e4:	e3a03000 	mov	r3, #0	; 0x0
2000f1e8:	e50b302c 	str	r3, [fp, #-44]
2000f1ec:	ea000027 	b	2000f290 <strncasecmp+0xf4>
2000f1f0:	e51b3018 	ldr	r3, [fp, #-24]
2000f1f4:	e5d32000 	ldrb	r2, [r3]
2000f1f8:	e51b3018 	ldr	r3, [fp, #-24]
2000f1fc:	e2833001 	add	r3, r3, #1	; 0x1
2000f200:	e50b3018 	str	r3, [fp, #-24]
2000f204:	e1a00002 	mov	r0, r2
2000f208:	ebffffcc 	bl	2000f140 <TOLOWER>
2000f20c:	e1a03000 	mov	r3, r0
2000f210:	e54b300e 	strb	r3, [fp, #-14]
2000f214:	e51b3014 	ldr	r3, [fp, #-20]
2000f218:	e5d32000 	ldrb	r2, [r3]
2000f21c:	e51b3014 	ldr	r3, [fp, #-20]
2000f220:	e2833001 	add	r3, r3, #1	; 0x1
2000f224:	e50b3014 	str	r3, [fp, #-20]
2000f228:	e1a00002 	mov	r0, r2
2000f22c:	ebffffc3 	bl	2000f140 <TOLOWER>
2000f230:	e1a03000 	mov	r3, r0
2000f234:	e54b300d 	strb	r3, [fp, #-13]
2000f238:	e55b300e 	ldrb	r3, [fp, #-14]
2000f23c:	e3530000 	cmp	r3, #0	; 0x0
2000f240:	0a000003 	beq	2000f254 <strncasecmp+0xb8>
2000f244:	e55b200e 	ldrb	r2, [fp, #-14]
2000f248:	e55b300d 	ldrb	r3, [fp, #-13]
2000f24c:	e1520003 	cmp	r2, r3
2000f250:	0a000004 	beq	2000f268 <strncasecmp+0xcc>
2000f254:	e55b200e 	ldrb	r2, [fp, #-14]
2000f258:	e55b300d 	ldrb	r3, [fp, #-13]
2000f25c:	e0632002 	rsb	r2, r3, r2
2000f260:	e50b202c 	str	r2, [fp, #-44]
2000f264:	ea000009 	b	2000f290 <strncasecmp+0xf4>
2000f268:	e51b3028 	ldr	r3, [fp, #-40]
2000f26c:	e2433001 	sub	r3, r3, #1	; 0x1
2000f270:	e50b3028 	str	r3, [fp, #-40]
2000f274:	e51b3028 	ldr	r3, [fp, #-40]
2000f278:	e3530000 	cmp	r3, #0	; 0x0
2000f27c:	caffffdb 	bgt	2000f1f0 <strncasecmp+0x54>
2000f280:	e55b200e 	ldrb	r2, [fp, #-14]
2000f284:	e55b300d 	ldrb	r3, [fp, #-13]
2000f288:	e0632002 	rsb	r2, r3, r2
2000f28c:	e50b202c 	str	r2, [fp, #-44]
2000f290:	e51b302c 	ldr	r3, [fp, #-44]
2000f294:	e1a00003 	mov	r0, r3
2000f298:	e24bd00c 	sub	sp, fp, #12	; 0xc
2000f29c:	e89da800 	ldm	sp, {fp, sp, pc}

2000f2a0 <abs>:
2000f2a0:	e1a0c00d 	mov	ip, sp
2000f2a4:	e92dd800 	push	{fp, ip, lr, pc}
2000f2a8:	e24cb004 	sub	fp, ip, #4	; 0x4
2000f2ac:	e24dd008 	sub	sp, sp, #8	; 0x8
2000f2b0:	e50b0010 	str	r0, [fp, #-16]
2000f2b4:	e51b3010 	ldr	r3, [fp, #-16]
2000f2b8:	e3530000 	cmp	r3, #0	; 0x0
2000f2bc:	aa000003 	bge	2000f2d0 <abs+0x30>
2000f2c0:	e51b3010 	ldr	r3, [fp, #-16]
2000f2c4:	e2633000 	rsb	r3, r3, #0	; 0x0
2000f2c8:	e50b3014 	str	r3, [fp, #-20]
2000f2cc:	ea000001 	b	2000f2d8 <abs+0x38>
2000f2d0:	e51b3010 	ldr	r3, [fp, #-16]
2000f2d4:	e50b3014 	str	r3, [fp, #-20]
2000f2d8:	e51b3014 	ldr	r3, [fp, #-20]
2000f2dc:	e1a00003 	mov	r0, r3
2000f2e0:	e24bd00c 	sub	sp, fp, #12	; 0xc
2000f2e4:	e89da800 	ldm	sp, {fp, sp, pc}

2000f2e8 <atoi>:
2000f2e8:	e1a0c00d 	mov	ip, sp
2000f2ec:	e92dd800 	push	{fp, ip, lr, pc}
2000f2f0:	e24cb004 	sub	fp, ip, #4	; 0x4
2000f2f4:	e24dd008 	sub	sp, sp, #8	; 0x8
2000f2f8:	e50b0010 	str	r0, [fp, #-16]
2000f2fc:	e51b0010 	ldr	r0, [fp, #-16]
2000f300:	e3a01000 	mov	r1, #0	; 0x0
2000f304:	e3a02000 	mov	r2, #0	; 0x0
2000f308:	e3a03000 	mov	r3, #0	; 0x0
2000f30c:	eb0001dd 	bl	2000fa88 <strtoul>
2000f310:	e1a03000 	mov	r3, r0
2000f314:	e1a00003 	mov	r0, r3
2000f318:	e24bd00c 	sub	sp, fp, #12	; 0xc
2000f31c:	e89da800 	ldm	sp, {fp, sp, pc}

2000f320 <atol>:
2000f320:	e1a0c00d 	mov	ip, sp
2000f324:	e92dd800 	push	{fp, ip, lr, pc}
2000f328:	e24cb004 	sub	fp, ip, #4	; 0x4
2000f32c:	e24dd008 	sub	sp, sp, #8	; 0x8
2000f330:	e50b0010 	str	r0, [fp, #-16]
2000f334:	e51b0010 	ldr	r0, [fp, #-16]
2000f338:	e3a01000 	mov	r1, #0	; 0x0
2000f33c:	e3a02000 	mov	r2, #0	; 0x0
2000f340:	e3a03000 	mov	r3, #0	; 0x0
2000f344:	eb0001cf 	bl	2000fa88 <strtoul>
2000f348:	e1a03000 	mov	r3, r0
2000f34c:	e1a00003 	mov	r0, r3
2000f350:	e24bd00c 	sub	sp, fp, #12	; 0xc
2000f354:	e89da800 	ldm	sp, {fp, sp, pc}

2000f358 <itoa>:
2000f358:	e1a0c00d 	mov	ip, sp
2000f35c:	e92dd800 	push	{fp, ip, lr, pc}
2000f360:	e24cb004 	sub	fp, ip, #4	; 0x4
2000f364:	e24dd028 	sub	sp, sp, #40	; 0x28
2000f368:	e50b0028 	str	r0, [fp, #-40]
2000f36c:	e50b102c 	str	r1, [fp, #-44]
2000f370:	e3a03000 	mov	r3, #0	; 0x0
2000f374:	e50b301c 	str	r3, [fp, #-28]
2000f378:	e3a03000 	mov	r3, #0	; 0x0
2000f37c:	e50b3018 	str	r3, [fp, #-24]
2000f380:	e3a03000 	mov	r3, #0	; 0x0
2000f384:	e50b3010 	str	r3, [fp, #-16]
2000f388:	e51b3028 	ldr	r3, [fp, #-40]
2000f38c:	e3530009 	cmp	r3, #9	; 0x9
2000f390:	8a000016 	bhi	2000f3f0 <itoa+0x98>
2000f394:	e51b0018 	ldr	r0, [fp, #-24]
2000f398:	e51b1028 	ldr	r1, [fp, #-40]
2000f39c:	e59f3184 	ldr	r3, [pc, #388]	; 2000f528 <itoa+0x1d0>
2000f3a0:	e0832391 	umull	r2, r3, r1, r3
2000f3a4:	e1a031a3 	lsr	r3, r3, #3
2000f3a8:	e50b3034 	str	r3, [fp, #-52]
2000f3ac:	e51b3034 	ldr	r3, [fp, #-52]
2000f3b0:	e1a03083 	lsl	r3, r3, #1
2000f3b4:	e1a02103 	lsl	r2, r3, #2
2000f3b8:	e0833002 	add	r3, r3, r2
2000f3bc:	e0633001 	rsb	r3, r3, r1
2000f3c0:	e50b3034 	str	r3, [fp, #-52]
2000f3c4:	e51bc034 	ldr	ip, [fp, #-52]
2000f3c8:	e20c30ff 	and	r3, ip, #255	; 0xff
2000f3cc:	e2833030 	add	r3, r3, #48	; 0x30
2000f3d0:	e20310ff 	and	r1, r3, #255	; 0xff
2000f3d4:	e3e02015 	mvn	r2, #21	; 0x15
2000f3d8:	e24bc00c 	sub	ip, fp, #12	; 0xc
2000f3dc:	e08c3000 	add	r3, ip, r0
2000f3e0:	e0832002 	add	r2, r3, r2
2000f3e4:	e1a03001 	mov	r3, r1
2000f3e8:	e5c23000 	strb	r3, [r2]
2000f3ec:	ea000030 	b	2000f4b4 <itoa+0x15c>
2000f3f0:	e51b1028 	ldr	r1, [fp, #-40]
2000f3f4:	e59f312c 	ldr	r3, [pc, #300]	; 2000f528 <itoa+0x1d0>
2000f3f8:	e0830391 	umull	r0, r3, r1, r3
2000f3fc:	e1a031a3 	lsr	r3, r3, #3
2000f400:	e50b3030 	str	r3, [fp, #-48]
2000f404:	e51b3030 	ldr	r3, [fp, #-48]
2000f408:	e1a03083 	lsl	r3, r3, #1
2000f40c:	e1a02103 	lsl	r2, r3, #2
2000f410:	e0833002 	add	r3, r3, r2
2000f414:	e0633001 	rsb	r3, r3, r1
2000f418:	e50b3030 	str	r3, [fp, #-48]
2000f41c:	e51b1030 	ldr	r1, [fp, #-48]
2000f420:	e50b101c 	str	r1, [fp, #-28]
2000f424:	e51b0018 	ldr	r0, [fp, #-24]
2000f428:	e51b301c 	ldr	r3, [fp, #-28]
2000f42c:	e20330ff 	and	r3, r3, #255	; 0xff
2000f430:	e2833030 	add	r3, r3, #48	; 0x30
2000f434:	e20310ff 	and	r1, r3, #255	; 0xff
2000f438:	e3e02015 	mvn	r2, #21	; 0x15
2000f43c:	e24bc00c 	sub	ip, fp, #12	; 0xc
2000f440:	e08c3000 	add	r3, ip, r0
2000f444:	e0832002 	add	r2, r3, r2
2000f448:	e1a03001 	mov	r3, r1
2000f44c:	e5c23000 	strb	r3, [r2]
2000f450:	e51b3018 	ldr	r3, [fp, #-24]
2000f454:	e2833001 	add	r3, r3, #1	; 0x1
2000f458:	e50b3018 	str	r3, [fp, #-24]
2000f45c:	e51b2028 	ldr	r2, [fp, #-40]
2000f460:	e59f30c0 	ldr	r3, [pc, #192]	; 2000f528 <itoa+0x1d0>
2000f464:	e0830392 	umull	r0, r3, r2, r3
2000f468:	e1a031a3 	lsr	r3, r3, #3
2000f46c:	e50b3028 	str	r3, [fp, #-40]
2000f470:	e51b3028 	ldr	r3, [fp, #-40]
2000f474:	e353000a 	cmp	r3, #10	; 0xa
2000f478:	8affffdc 	bhi	2000f3f0 <itoa+0x98>
2000f47c:	e51b3028 	ldr	r3, [fp, #-40]
2000f480:	e3530000 	cmp	r3, #0	; 0x0
2000f484:	0a00000a 	beq	2000f4b4 <itoa+0x15c>
2000f488:	e51b0018 	ldr	r0, [fp, #-24]
2000f48c:	e51b3028 	ldr	r3, [fp, #-40]
2000f490:	e20330ff 	and	r3, r3, #255	; 0xff
2000f494:	e2833030 	add	r3, r3, #48	; 0x30
2000f498:	e20310ff 	and	r1, r3, #255	; 0xff
2000f49c:	e3e02015 	mvn	r2, #21	; 0x15
2000f4a0:	e24bc00c 	sub	ip, fp, #12	; 0xc
2000f4a4:	e08c3000 	add	r3, ip, r0
2000f4a8:	e0832002 	add	r2, r3, r2
2000f4ac:	e1a03001 	mov	r3, r1
2000f4b0:	e5c23000 	strb	r3, [r2]
2000f4b4:	e51b3018 	ldr	r3, [fp, #-24]
2000f4b8:	e50b3014 	str	r3, [fp, #-20]
2000f4bc:	ea00000f 	b	2000f500 <itoa+0x1a8>
2000f4c0:	e51b2010 	ldr	r2, [fp, #-16]
2000f4c4:	e51b302c 	ldr	r3, [fp, #-44]
2000f4c8:	e0831002 	add	r1, r3, r2
2000f4cc:	e51b3014 	ldr	r3, [fp, #-20]
2000f4d0:	e3e02015 	mvn	r2, #21	; 0x15
2000f4d4:	e24b000c 	sub	r0, fp, #12	; 0xc
2000f4d8:	e0803003 	add	r3, r0, r3
2000f4dc:	e0833002 	add	r3, r3, r2
2000f4e0:	e5d33000 	ldrb	r3, [r3]
2000f4e4:	e5c13000 	strb	r3, [r1]
2000f4e8:	e51b3010 	ldr	r3, [fp, #-16]
2000f4ec:	e2833001 	add	r3, r3, #1	; 0x1
2000f4f0:	e50b3010 	str	r3, [fp, #-16]
2000f4f4:	e51b3014 	ldr	r3, [fp, #-20]
2000f4f8:	e2433001 	sub	r3, r3, #1	; 0x1
2000f4fc:	e50b3014 	str	r3, [fp, #-20]
2000f500:	e51b3014 	ldr	r3, [fp, #-20]
2000f504:	e3530000 	cmp	r3, #0	; 0x0
2000f508:	aaffffec 	bge	2000f4c0 <itoa+0x168>
2000f50c:	e51b2010 	ldr	r2, [fp, #-16]
2000f510:	e51b302c 	ldr	r3, [fp, #-44]
2000f514:	e0832002 	add	r2, r3, r2
2000f518:	e3a03000 	mov	r3, #0	; 0x0
2000f51c:	e5c23000 	strb	r3, [r2]
2000f520:	e24bd00c 	sub	sp, fp, #12	; 0xc
2000f524:	e89da800 	ldm	sp, {fp, sp, pc}
2000f528:	cccccccd 	.word	0xcccccccd

2000f52c <itoa16>:
2000f52c:	e1a0c00d 	mov	ip, sp
2000f530:	e92dd800 	push	{fp, ip, lr, pc}
2000f534:	e24cb004 	sub	fp, ip, #4	; 0x4
2000f538:	e24dd020 	sub	sp, sp, #32	; 0x20
2000f53c:	e50b0028 	str	r0, [fp, #-40]
2000f540:	e50b102c 	str	r1, [fp, #-44]
2000f544:	e3a03000 	mov	r3, #0	; 0x0
2000f548:	e50b301c 	str	r3, [fp, #-28]
2000f54c:	e3a03000 	mov	r3, #0	; 0x0
2000f550:	e50b3018 	str	r3, [fp, #-24]
2000f554:	e3a03000 	mov	r3, #0	; 0x0
2000f558:	e50b3010 	str	r3, [fp, #-16]
2000f55c:	e51b3028 	ldr	r3, [fp, #-40]
2000f560:	e3530009 	cmp	r3, #9	; 0x9
2000f564:	8a00000c 	bhi	2000f59c <itoa16+0x70>
2000f568:	e51b0018 	ldr	r0, [fp, #-24]
2000f56c:	e51b3028 	ldr	r3, [fp, #-40]
2000f570:	e20330ff 	and	r3, r3, #255	; 0xff
2000f574:	e203300f 	and	r3, r3, #15	; 0xf
2000f578:	e2833030 	add	r3, r3, #48	; 0x30
2000f57c:	e20310ff 	and	r1, r3, #255	; 0xff
2000f580:	e3e02015 	mvn	r2, #21	; 0x15
2000f584:	e24bc00c 	sub	ip, fp, #12	; 0xc
2000f588:	e08c3000 	add	r3, ip, r0
2000f58c:	e0832002 	add	r2, r3, r2
2000f590:	e1a03001 	mov	r3, r1
2000f594:	e5c23000 	strb	r3, [r2]
2000f598:	ea000024 	b	2000f630 <itoa16+0x104>
2000f59c:	e51b3028 	ldr	r3, [fp, #-40]
2000f5a0:	e203300f 	and	r3, r3, #15	; 0xf
2000f5a4:	e50b301c 	str	r3, [fp, #-28]
2000f5a8:	e51b0018 	ldr	r0, [fp, #-24]
2000f5ac:	e51b301c 	ldr	r3, [fp, #-28]
2000f5b0:	e20330ff 	and	r3, r3, #255	; 0xff
2000f5b4:	e2833030 	add	r3, r3, #48	; 0x30
2000f5b8:	e20310ff 	and	r1, r3, #255	; 0xff
2000f5bc:	e3e02015 	mvn	r2, #21	; 0x15
2000f5c0:	e24bc00c 	sub	ip, fp, #12	; 0xc
2000f5c4:	e08c3000 	add	r3, ip, r0
2000f5c8:	e0832002 	add	r2, r3, r2
2000f5cc:	e1a03001 	mov	r3, r1
2000f5d0:	e5c23000 	strb	r3, [r2]
2000f5d4:	e51b3018 	ldr	r3, [fp, #-24]
2000f5d8:	e2833001 	add	r3, r3, #1	; 0x1
2000f5dc:	e50b3018 	str	r3, [fp, #-24]
2000f5e0:	e51b3028 	ldr	r3, [fp, #-40]
2000f5e4:	e1a03223 	lsr	r3, r3, #4
2000f5e8:	e50b3028 	str	r3, [fp, #-40]
2000f5ec:	e51b3028 	ldr	r3, [fp, #-40]
2000f5f0:	e3530010 	cmp	r3, #16	; 0x10
2000f5f4:	8affffe8 	bhi	2000f59c <itoa16+0x70>
2000f5f8:	e51b3028 	ldr	r3, [fp, #-40]
2000f5fc:	e3530000 	cmp	r3, #0	; 0x0
2000f600:	0a00000a 	beq	2000f630 <itoa16+0x104>
2000f604:	e51b0018 	ldr	r0, [fp, #-24]
2000f608:	e51b3028 	ldr	r3, [fp, #-40]
2000f60c:	e20330ff 	and	r3, r3, #255	; 0xff
2000f610:	e2833030 	add	r3, r3, #48	; 0x30
2000f614:	e20310ff 	and	r1, r3, #255	; 0xff
2000f618:	e3e02015 	mvn	r2, #21	; 0x15
2000f61c:	e24bc00c 	sub	ip, fp, #12	; 0xc
2000f620:	e08c3000 	add	r3, ip, r0
2000f624:	e0832002 	add	r2, r3, r2
2000f628:	e1a03001 	mov	r3, r1
2000f62c:	e5c23000 	strb	r3, [r2]
2000f630:	e51b3018 	ldr	r3, [fp, #-24]
2000f634:	e50b3014 	str	r3, [fp, #-20]
2000f638:	ea00000f 	b	2000f67c <itoa16+0x150>
2000f63c:	e51b2010 	ldr	r2, [fp, #-16]
2000f640:	e51b302c 	ldr	r3, [fp, #-44]
2000f644:	e0831002 	add	r1, r3, r2
2000f648:	e51b3014 	ldr	r3, [fp, #-20]
2000f64c:	e3e02015 	mvn	r2, #21	; 0x15
2000f650:	e24b000c 	sub	r0, fp, #12	; 0xc
2000f654:	e0803003 	add	r3, r0, r3
2000f658:	e0833002 	add	r3, r3, r2
2000f65c:	e5d33000 	ldrb	r3, [r3]
2000f660:	e5c13000 	strb	r3, [r1]
2000f664:	e51b3010 	ldr	r3, [fp, #-16]
2000f668:	e2833001 	add	r3, r3, #1	; 0x1
2000f66c:	e50b3010 	str	r3, [fp, #-16]
2000f670:	e51b3014 	ldr	r3, [fp, #-20]
2000f674:	e2433001 	sub	r3, r3, #1	; 0x1
2000f678:	e50b3014 	str	r3, [fp, #-20]
2000f67c:	e51b3014 	ldr	r3, [fp, #-20]
2000f680:	e3530000 	cmp	r3, #0	; 0x0
2000f684:	aaffffec 	bge	2000f63c <itoa16+0x110>
2000f688:	e51b2010 	ldr	r2, [fp, #-16]
2000f68c:	e51b302c 	ldr	r3, [fp, #-44]
2000f690:	e0832002 	add	r2, r3, r2
2000f694:	e3a03000 	mov	r3, #0	; 0x0
2000f698:	e5c23000 	strb	r3, [r2]
2000f69c:	e24bd00c 	sub	sp, fp, #12	; 0xc
2000f6a0:	e89da800 	ldm	sp, {fp, sp, pc}

2000f6a4 <UpperStr>:
2000f6a4:	e1a0c00d 	mov	ip, sp
2000f6a8:	e92dd800 	push	{fp, ip, lr, pc}
2000f6ac:	e24cb004 	sub	fp, ip, #4	; 0x4
2000f6b0:	e24dd008 	sub	sp, sp, #8	; 0x8
2000f6b4:	e50b0010 	str	r0, [fp, #-16]
2000f6b8:	ea000009 	b	2000f6e4 <UpperStr+0x40>
2000f6bc:	e51b3010 	ldr	r3, [fp, #-16]
2000f6c0:	e5d33000 	ldrb	r3, [r3]
2000f6c4:	e1a00003 	mov	r0, r3
2000f6c8:	eb00000b 	bl	2000f6fc <__toupper>
2000f6cc:	e1a03000 	mov	r3, r0
2000f6d0:	e51b2010 	ldr	r2, [fp, #-16]
2000f6d4:	e5c23000 	strb	r3, [r2]
2000f6d8:	e51b3010 	ldr	r3, [fp, #-16]
2000f6dc:	e2833001 	add	r3, r3, #1	; 0x1
2000f6e0:	e50b3010 	str	r3, [fp, #-16]
2000f6e4:	e51b3010 	ldr	r3, [fp, #-16]
2000f6e8:	e5d33000 	ldrb	r3, [r3]
2000f6ec:	e3530000 	cmp	r3, #0	; 0x0
2000f6f0:	1afffff1 	bne	2000f6bc <UpperStr+0x18>
2000f6f4:	e24bd00c 	sub	sp, fp, #12	; 0xc
2000f6f8:	e89da800 	ldm	sp, {fp, sp, pc}

2000f6fc <__toupper>:
2000f6fc:	e1a0c00d 	mov	ip, sp
2000f700:	e92dd800 	push	{fp, ip, lr, pc}
2000f704:	e24cb004 	sub	fp, ip, #4	; 0x4
2000f708:	e24dd008 	sub	sp, sp, #8	; 0x8
2000f70c:	e59f2040 	ldr	r2, [pc, #64]	; 2000f754 <__toupper+0x58>
2000f710:	e08f2002 	add	r2, pc, r2
2000f714:	e1a03000 	mov	r3, r0
2000f718:	e54b300d 	strb	r3, [fp, #-13]
2000f71c:	e55b100d 	ldrb	r1, [fp, #-13]
2000f720:	e59f3030 	ldr	r3, [pc, #48]	; 2000f758 <__toupper+0x5c>
2000f724:	e7923003 	ldr	r3, [r2, r3]
2000f728:	e7d33001 	ldrb	r3, [r3, r1]
2000f72c:	e2033002 	and	r3, r3, #2	; 0x2
2000f730:	e3530000 	cmp	r3, #0	; 0x0
2000f734:	0a000002 	beq	2000f744 <__toupper+0x48>
2000f738:	e55b300d 	ldrb	r3, [fp, #-13]
2000f73c:	e2433020 	sub	r3, r3, #32	; 0x20
2000f740:	e54b300d 	strb	r3, [fp, #-13]
2000f744:	e55b300d 	ldrb	r3, [fp, #-13]
2000f748:	e1a00003 	mov	r0, r3
2000f74c:	e24bd00c 	sub	sp, fp, #12	; 0xc
2000f750:	e89da800 	ldm	sp, {fp, sp, pc}
2000f754:	00003e70 	.word	0x00003e70
2000f758:	0000006c 	.word	0x0000006c

2000f75c <LowerStr>:
2000f75c:	e1a0c00d 	mov	ip, sp
2000f760:	e92dd800 	push	{fp, ip, lr, pc}
2000f764:	e24cb004 	sub	fp, ip, #4	; 0x4
2000f768:	e24dd008 	sub	sp, sp, #8	; 0x8
2000f76c:	e50b0010 	str	r0, [fp, #-16]
2000f770:	ea000009 	b	2000f79c <LowerStr+0x40>
2000f774:	e51b3010 	ldr	r3, [fp, #-16]
2000f778:	e5d33000 	ldrb	r3, [r3]
2000f77c:	e1a00003 	mov	r0, r3
2000f780:	eb00000b 	bl	2000f7b4 <__tolower>
2000f784:	e1a03000 	mov	r3, r0
2000f788:	e51b2010 	ldr	r2, [fp, #-16]
2000f78c:	e5c23000 	strb	r3, [r2]
2000f790:	e51b3010 	ldr	r3, [fp, #-16]
2000f794:	e2833001 	add	r3, r3, #1	; 0x1
2000f798:	e50b3010 	str	r3, [fp, #-16]
2000f79c:	e51b3010 	ldr	r3, [fp, #-16]
2000f7a0:	e5d33000 	ldrb	r3, [r3]
2000f7a4:	e3530000 	cmp	r3, #0	; 0x0
2000f7a8:	1afffff1 	bne	2000f774 <LowerStr+0x18>
2000f7ac:	e24bd00c 	sub	sp, fp, #12	; 0xc
2000f7b0:	e89da800 	ldm	sp, {fp, sp, pc}

2000f7b4 <__tolower>:
2000f7b4:	e1a0c00d 	mov	ip, sp
2000f7b8:	e92dd800 	push	{fp, ip, lr, pc}
2000f7bc:	e24cb004 	sub	fp, ip, #4	; 0x4
2000f7c0:	e24dd008 	sub	sp, sp, #8	; 0x8
2000f7c4:	e59f2044 	ldr	r2, [pc, #68]	; 2000f810 <__tolower+0x5c>
2000f7c8:	e08f2002 	add	r2, pc, r2
2000f7cc:	e1a03000 	mov	r3, r0
2000f7d0:	e54b300d 	strb	r3, [fp, #-13]
2000f7d4:	e55b100d 	ldrb	r1, [fp, #-13]
2000f7d8:	e59f3034 	ldr	r3, [pc, #52]	; 2000f814 <__tolower+0x60>
2000f7dc:	e7923003 	ldr	r3, [r2, r3]
2000f7e0:	e7d33001 	ldrb	r3, [r3, r1]
2000f7e4:	e2033001 	and	r3, r3, #1	; 0x1
2000f7e8:	e20330ff 	and	r3, r3, #255	; 0xff
2000f7ec:	e3530000 	cmp	r3, #0	; 0x0
2000f7f0:	0a000002 	beq	2000f800 <__tolower+0x4c>
2000f7f4:	e55b300d 	ldrb	r3, [fp, #-13]
2000f7f8:	e2833020 	add	r3, r3, #32	; 0x20
2000f7fc:	e54b300d 	strb	r3, [fp, #-13]
2000f800:	e55b300d 	ldrb	r3, [fp, #-13]
2000f804:	e1a00003 	mov	r0, r3
2000f808:	e24bd00c 	sub	sp, fp, #12	; 0xc
2000f80c:	e89da800 	ldm	sp, {fp, sp, pc}
2000f810:	00003db8 	.word	0x00003db8
2000f814:	0000006c 	.word	0x0000006c

2000f818 <u32todecimal>:
2000f818:	e1a0c00d 	mov	ip, sp
2000f81c:	e92dd800 	push	{fp, ip, lr, pc}
2000f820:	e24cb004 	sub	fp, ip, #4	; 0x4
2000f824:	e24dd030 	sub	sp, sp, #48	; 0x30
2000f828:	e59f2140 	ldr	r2, [pc, #320]	; 2000f970 <u32todecimal+0x158>
2000f82c:	e50b2038 	str	r2, [fp, #-56]
2000f830:	e51b3038 	ldr	r3, [fp, #-56]
2000f834:	e08f3003 	add	r3, pc, r3
2000f838:	e50b3038 	str	r3, [fp, #-56]
2000f83c:	e50b0030 	str	r0, [fp, #-48]
2000f840:	e50b1034 	str	r1, [fp, #-52]
2000f844:	e3a03000 	mov	r3, #0	; 0x0
2000f848:	e50b3018 	str	r3, [fp, #-24]
2000f84c:	e3a03000 	mov	r3, #0	; 0x0
2000f850:	e50b3014 	str	r3, [fp, #-20]
2000f854:	e51b3034 	ldr	r3, [fp, #-52]
2000f858:	e3530000 	cmp	r3, #0	; 0x0
2000f85c:	0a00003a 	beq	2000f94c <u32todecimal+0x134>
2000f860:	ea00001c 	b	2000f8d8 <u32todecimal+0xc0>
2000f864:	e51b1034 	ldr	r1, [fp, #-52]
2000f868:	e59f3104 	ldr	r3, [pc, #260]	; 2000f974 <u32todecimal+0x15c>
2000f86c:	e083c391 	umull	ip, r3, r1, r3
2000f870:	e1a031a3 	lsr	r3, r3, #3
2000f874:	e1a03083 	lsl	r3, r3, #1
2000f878:	e1a02103 	lsl	r2, r3, #2
2000f87c:	e0833002 	add	r3, r3, r2
2000f880:	e0633001 	rsb	r3, r3, r1
2000f884:	e50b3010 	str	r3, [fp, #-16]
2000f888:	e51b0018 	ldr	r0, [fp, #-24]
2000f88c:	e51b2010 	ldr	r2, [fp, #-16]
2000f890:	e59f30e0 	ldr	r3, [pc, #224]	; 2000f978 <u32todecimal+0x160>
2000f894:	e51b1038 	ldr	r1, [fp, #-56]
2000f898:	e0813003 	add	r3, r1, r3
2000f89c:	e7d31002 	ldrb	r1, [r3, r2]
2000f8a0:	e3e0201b 	mvn	r2, #27	; 0x1b
2000f8a4:	e24bc00c 	sub	ip, fp, #12	; 0xc
2000f8a8:	e08c3000 	add	r3, ip, r0
2000f8ac:	e0832002 	add	r2, r3, r2
2000f8b0:	e1a03001 	mov	r3, r1
2000f8b4:	e5c23000 	strb	r3, [r2]
2000f8b8:	e51b3018 	ldr	r3, [fp, #-24]
2000f8bc:	e2833001 	add	r3, r3, #1	; 0x1
2000f8c0:	e50b3018 	str	r3, [fp, #-24]
2000f8c4:	e51b2034 	ldr	r2, [fp, #-52]
2000f8c8:	e59f30a4 	ldr	r3, [pc, #164]	; 2000f974 <u32todecimal+0x15c>
2000f8cc:	e0830392 	umull	r0, r3, r2, r3
2000f8d0:	e1a031a3 	lsr	r3, r3, #3
2000f8d4:	e50b3034 	str	r3, [fp, #-52]
2000f8d8:	e51b3034 	ldr	r3, [fp, #-52]
2000f8dc:	e3530000 	cmp	r3, #0	; 0x0
2000f8e0:	1affffdf 	bne	2000f864 <u32todecimal+0x4c>
2000f8e4:	ea00000f 	b	2000f928 <u32todecimal+0x110>
2000f8e8:	e51b3018 	ldr	r3, [fp, #-24]
2000f8ec:	e2433001 	sub	r3, r3, #1	; 0x1
2000f8f0:	e50b3018 	str	r3, [fp, #-24]
2000f8f4:	e51b2014 	ldr	r2, [fp, #-20]
2000f8f8:	e51b3030 	ldr	r3, [fp, #-48]
2000f8fc:	e0831002 	add	r1, r3, r2
2000f900:	e51b3018 	ldr	r3, [fp, #-24]
2000f904:	e3e0201b 	mvn	r2, #27	; 0x1b
2000f908:	e24bc00c 	sub	ip, fp, #12	; 0xc
2000f90c:	e08c3003 	add	r3, ip, r3
2000f910:	e0833002 	add	r3, r3, r2
2000f914:	e5d33000 	ldrb	r3, [r3]
2000f918:	e5c13000 	strb	r3, [r1]
2000f91c:	e51b3014 	ldr	r3, [fp, #-20]
2000f920:	e2833001 	add	r3, r3, #1	; 0x1
2000f924:	e50b3014 	str	r3, [fp, #-20]
2000f928:	e51b3018 	ldr	r3, [fp, #-24]
2000f92c:	e3530000 	cmp	r3, #0	; 0x0
2000f930:	caffffec 	bgt	2000f8e8 <u32todecimal+0xd0>
2000f934:	e51b2014 	ldr	r2, [fp, #-20]
2000f938:	e51b3030 	ldr	r3, [fp, #-48]
2000f93c:	e0832002 	add	r2, r3, r2
2000f940:	e3a03000 	mov	r3, #0	; 0x0
2000f944:	e5c23000 	strb	r3, [r2]
2000f948:	ea000006 	b	2000f968 <u32todecimal+0x150>
2000f94c:	e51b2030 	ldr	r2, [fp, #-48]
2000f950:	e3a03030 	mov	r3, #48	; 0x30
2000f954:	e5c23000 	strb	r3, [r2]
2000f958:	e51b3030 	ldr	r3, [fp, #-48]
2000f95c:	e2832001 	add	r2, r3, #1	; 0x1
2000f960:	e3a03000 	mov	r3, #0	; 0x0
2000f964:	e5c23000 	strb	r3, [r2]
2000f968:	e24bd00c 	sub	sp, fp, #12	; 0xc
2000f96c:	e89da800 	ldm	sp, {fp, sp, pc}
2000f970:	00003d4c 	.word	0x00003d4c
2000f974:	cccccccd 	.word	0xcccccccd
2000f978:	ffffff08 	.word	0xffffff08

2000f97c <binarytohex>:
2000f97c:	e1a0c00d 	mov	ip, sp
2000f980:	e92dd800 	push	{fp, ip, lr, pc}
2000f984:	e24cb004 	sub	fp, ip, #4	; 0x4
2000f988:	e24dd018 	sub	sp, sp, #24	; 0x18
2000f98c:	e59f30e8 	ldr	r3, [pc, #232]	; 2000fa7c <binarytohex+0x100>
2000f990:	e50b3024 	str	r3, [fp, #-36]
2000f994:	e51b3024 	ldr	r3, [fp, #-36]
2000f998:	e08f3003 	add	r3, pc, r3
2000f99c:	e50b3024 	str	r3, [fp, #-36]
2000f9a0:	e50b0018 	str	r0, [fp, #-24]
2000f9a4:	e50b101c 	str	r1, [fp, #-28]
2000f9a8:	e50b2020 	str	r2, [fp, #-32]
2000f9ac:	e51b3020 	ldr	r3, [fp, #-32]
2000f9b0:	e1a03083 	lsl	r3, r3, #1
2000f9b4:	e2633000 	rsb	r3, r3, #0	; 0x0
2000f9b8:	e1e03003 	mvn	r3, r3
2000f9bc:	e1a03103 	lsl	r3, r3, #2
2000f9c0:	e50b3010 	str	r3, [fp, #-16]
2000f9c4:	e59f30b4 	ldr	r3, [pc, #180]	; 2000fa80 <binarytohex+0x104>
2000f9c8:	e51b0024 	ldr	r0, [fp, #-36]
2000f9cc:	e0803003 	add	r3, r0, r3
2000f9d0:	e5d33000 	ldrb	r3, [r3]
2000f9d4:	e3530030 	cmp	r3, #48	; 0x30
2000f9d8:	0a000004 	beq	2000f9f0 <binarytohex+0x74>
2000f9dc:	e59f30a0 	ldr	r3, [pc, #160]	; 2000fa84 <binarytohex+0x108>
2000f9e0:	e51b2024 	ldr	r2, [fp, #-36]
2000f9e4:	e0823003 	add	r3, r2, r3
2000f9e8:	e1a00003 	mov	r0, r3
2000f9ec:	eb0000b9 	bl	2000fcd8 <putstr>
2000f9f0:	e3a03000 	mov	r3, #0	; 0x0
2000f9f4:	e50b3014 	str	r3, [fp, #-20]
2000f9f8:	ea000011 	b	2000fa44 <binarytohex+0xc8>
2000f9fc:	e51b2014 	ldr	r2, [fp, #-20]
2000fa00:	e51b3018 	ldr	r3, [fp, #-24]
2000fa04:	e0831002 	add	r1, r3, r2
2000fa08:	e51b201c 	ldr	r2, [fp, #-28]
2000fa0c:	e51b3010 	ldr	r3, [fp, #-16]
2000fa10:	e1a03352 	asr	r3, r2, r3
2000fa14:	e203200f 	and	r2, r3, #15	; 0xf
2000fa18:	e59f3060 	ldr	r3, [pc, #96]	; 2000fa80 <binarytohex+0x104>
2000fa1c:	e51b0024 	ldr	r0, [fp, #-36]
2000fa20:	e0803003 	add	r3, r0, r3
2000fa24:	e7d33002 	ldrb	r3, [r3, r2]
2000fa28:	e5c13000 	strb	r3, [r1]
2000fa2c:	e51b3010 	ldr	r3, [fp, #-16]
2000fa30:	e2433004 	sub	r3, r3, #4	; 0x4
2000fa34:	e50b3010 	str	r3, [fp, #-16]
2000fa38:	e51b3014 	ldr	r3, [fp, #-20]
2000fa3c:	e2833001 	add	r3, r3, #1	; 0x1
2000fa40:	e50b3014 	str	r3, [fp, #-20]
2000fa44:	e51b3020 	ldr	r3, [fp, #-32]
2000fa48:	e1a02083 	lsl	r2, r3, #1
2000fa4c:	e51b3014 	ldr	r3, [fp, #-20]
2000fa50:	e1520003 	cmp	r2, r3
2000fa54:	caffffe8 	bgt	2000f9fc <binarytohex+0x80>
2000fa58:	e51b3020 	ldr	r3, [fp, #-32]
2000fa5c:	e1a03083 	lsl	r3, r3, #1
2000fa60:	e1a02003 	mov	r2, r3
2000fa64:	e51b3018 	ldr	r3, [fp, #-24]
2000fa68:	e0832002 	add	r2, r3, r2
2000fa6c:	e3a03000 	mov	r3, #0	; 0x0
2000fa70:	e5c23000 	strb	r3, [r2]
2000fa74:	e24bd00c 	sub	sp, fp, #12	; 0xc
2000fa78:	e89da800 	ldm	sp, {fp, sp, pc}
2000fa7c:	00003be8 	.word	0x00003be8
2000fa80:	ffffff08 	.word	0xffffff08
2000fa84:	fffffaf4 	.word	0xfffffaf4

2000fa88 <strtoul>:
2000fa88:	e1a0c00d 	mov	ip, sp
2000fa8c:	e92dd800 	push	{fp, ip, lr, pc}
2000fa90:	e24cb004 	sub	fp, ip, #4	; 0x4
2000fa94:	e24dd030 	sub	sp, sp, #48	; 0x30
2000fa98:	e50b0028 	str	r0, [fp, #-40]
2000fa9c:	e50b102c 	str	r1, [fp, #-44]
2000faa0:	e50b2030 	str	r2, [fp, #-48]
2000faa4:	e50b3034 	str	r3, [fp, #-52]
2000faa8:	e3a03000 	mov	r3, #0	; 0x0
2000faac:	e50b3020 	str	r3, [fp, #-32]
2000fab0:	e3a0300a 	mov	r3, #10	; 0xa
2000fab4:	e50b3018 	str	r3, [fp, #-24]
2000fab8:	e3a03000 	mov	r3, #0	; 0x0
2000fabc:	e50b3014 	str	r3, [fp, #-20]
2000fac0:	e3a03000 	mov	r3, #0	; 0x0
2000fac4:	e50b3010 	str	r3, [fp, #-16]
2000fac8:	e51b2034 	ldr	r2, [fp, #-52]
2000facc:	e3a03000 	mov	r3, #0	; 0x0
2000fad0:	e5823000 	str	r3, [r2]
2000fad4:	ea000056 	b	2000fc34 <strtoul+0x1ac>
2000fad8:	e51b3014 	ldr	r3, [fp, #-20]
2000fadc:	e3530000 	cmp	r3, #0	; 0x0
2000fae0:	1a000005 	bne	2000fafc <strtoul+0x74>
2000fae4:	e55b301a 	ldrb	r3, [fp, #-26]
2000fae8:	e3530030 	cmp	r3, #48	; 0x30
2000faec:	1a000002 	bne	2000fafc <strtoul+0x74>
2000faf0:	e3a03001 	mov	r3, #1	; 0x1
2000faf4:	e50b3010 	str	r3, [fp, #-16]
2000faf8:	ea000047 	b	2000fc1c <strtoul+0x194>
2000fafc:	e51b3010 	ldr	r3, [fp, #-16]
2000fb00:	e3530000 	cmp	r3, #0	; 0x0
2000fb04:	0a00000e 	beq	2000fb44 <strtoul+0xbc>
2000fb08:	e51b3014 	ldr	r3, [fp, #-20]
2000fb0c:	e3530001 	cmp	r3, #1	; 0x1
2000fb10:	1a00000b 	bne	2000fb44 <strtoul+0xbc>
2000fb14:	e55b301a 	ldrb	r3, [fp, #-26]
2000fb18:	e3530078 	cmp	r3, #120	; 0x78
2000fb1c:	1a000002 	bne	2000fb2c <strtoul+0xa4>
2000fb20:	e3a03010 	mov	r3, #16	; 0x10
2000fb24:	e50b3018 	str	r3, [fp, #-24]
2000fb28:	ea00003b 	b	2000fc1c <strtoul+0x194>
2000fb2c:	e55b301a 	ldrb	r3, [fp, #-26]
2000fb30:	e353006f 	cmp	r3, #111	; 0x6f
2000fb34:	1a000002 	bne	2000fb44 <strtoul+0xbc>
2000fb38:	e3a03008 	mov	r3, #8	; 0x8
2000fb3c:	e50b3018 	str	r3, [fp, #-24]
2000fb40:	ea000035 	b	2000fc1c <strtoul+0x194>
2000fb44:	e55b301a 	ldrb	r3, [fp, #-26]
2000fb48:	e353002f 	cmp	r3, #47	; 0x2f
2000fb4c:	9a000006 	bls	2000fb6c <strtoul+0xe4>
2000fb50:	e55b301a 	ldrb	r3, [fp, #-26]
2000fb54:	e3530039 	cmp	r3, #57	; 0x39
2000fb58:	8a000003 	bhi	2000fb6c <strtoul+0xe4>
2000fb5c:	e55b301a 	ldrb	r3, [fp, #-26]
2000fb60:	e2433030 	sub	r3, r3, #48	; 0x30
2000fb64:	e54b3019 	strb	r3, [fp, #-25]
2000fb68:	ea000019 	b	2000fbd4 <strtoul+0x14c>
2000fb6c:	e55b301a 	ldrb	r3, [fp, #-26]
2000fb70:	e3530060 	cmp	r3, #96	; 0x60
2000fb74:	9a000006 	bls	2000fb94 <strtoul+0x10c>
2000fb78:	e55b301a 	ldrb	r3, [fp, #-26]
2000fb7c:	e353007a 	cmp	r3, #122	; 0x7a
2000fb80:	8a000003 	bhi	2000fb94 <strtoul+0x10c>
2000fb84:	e55b301a 	ldrb	r3, [fp, #-26]
2000fb88:	e2433057 	sub	r3, r3, #87	; 0x57
2000fb8c:	e54b3019 	strb	r3, [fp, #-25]
2000fb90:	ea00000f 	b	2000fbd4 <strtoul+0x14c>
2000fb94:	e55b301a 	ldrb	r3, [fp, #-26]
2000fb98:	e3530040 	cmp	r3, #64	; 0x40
2000fb9c:	9a000006 	bls	2000fbbc <strtoul+0x134>
2000fba0:	e55b301a 	ldrb	r3, [fp, #-26]
2000fba4:	e353005a 	cmp	r3, #90	; 0x5a
2000fba8:	8a000003 	bhi	2000fbbc <strtoul+0x134>
2000fbac:	e55b301a 	ldrb	r3, [fp, #-26]
2000fbb0:	e2433037 	sub	r3, r3, #55	; 0x37
2000fbb4:	e54b3019 	strb	r3, [fp, #-25]
2000fbb8:	ea000005 	b	2000fbd4 <strtoul+0x14c>
2000fbbc:	e51b2034 	ldr	r2, [fp, #-52]
2000fbc0:	e3a03003 	mov	r3, #3	; 0x3
2000fbc4:	e5823000 	str	r3, [r2]
2000fbc8:	e3a03000 	mov	r3, #0	; 0x0
2000fbcc:	e50b3038 	str	r3, [fp, #-56]
2000fbd0:	ea00001f 	b	2000fc54 <strtoul+0x1cc>
2000fbd4:	e55b2019 	ldrb	r2, [fp, #-25]
2000fbd8:	e51b3018 	ldr	r3, [fp, #-24]
2000fbdc:	e1520003 	cmp	r2, r3
2000fbe0:	ba000005 	blt	2000fbfc <strtoul+0x174>
2000fbe4:	e51b2034 	ldr	r2, [fp, #-52]
2000fbe8:	e3a03004 	mov	r3, #4	; 0x4
2000fbec:	e5823000 	str	r3, [r2]
2000fbf0:	e3a03000 	mov	r3, #0	; 0x0
2000fbf4:	e50b3038 	str	r3, [fp, #-56]
2000fbf8:	ea000015 	b	2000fc54 <strtoul+0x1cc>
2000fbfc:	e51b2018 	ldr	r2, [fp, #-24]
2000fc00:	e51b3020 	ldr	r3, [fp, #-32]
2000fc04:	e0030392 	mul	r3, r2, r3
2000fc08:	e50b3020 	str	r3, [fp, #-32]
2000fc0c:	e55b2019 	ldrb	r2, [fp, #-25]
2000fc10:	e51b3020 	ldr	r3, [fp, #-32]
2000fc14:	e0833002 	add	r3, r3, r2
2000fc18:	e50b3020 	str	r3, [fp, #-32]
2000fc1c:	e51b3028 	ldr	r3, [fp, #-40]
2000fc20:	e2833001 	add	r3, r3, #1	; 0x1
2000fc24:	e50b3028 	str	r3, [fp, #-40]
2000fc28:	e51b3014 	ldr	r3, [fp, #-20]
2000fc2c:	e2833001 	add	r3, r3, #1	; 0x1
2000fc30:	e50b3014 	str	r3, [fp, #-20]
2000fc34:	e51b3028 	ldr	r3, [fp, #-40]
2000fc38:	e5d33000 	ldrb	r3, [r3]
2000fc3c:	e54b301a 	strb	r3, [fp, #-26]
2000fc40:	e55b301a 	ldrb	r3, [fp, #-26]
2000fc44:	e3530000 	cmp	r3, #0	; 0x0
2000fc48:	1affffa2 	bne	2000fad8 <strtoul+0x50>
2000fc4c:	e51b3020 	ldr	r3, [fp, #-32]
2000fc50:	e50b3038 	str	r3, [fp, #-56]
2000fc54:	e51b3038 	ldr	r3, [fp, #-56]
2000fc58:	e1a00003 	mov	r0, r3
2000fc5c:	e24bd00c 	sub	sp, fp, #12	; 0xc
2000fc60:	e89da800 	ldm	sp, {fp, sp, pc}

2000fc64 <putnstr>:
2000fc64:	e1a0c00d 	mov	ip, sp
2000fc68:	e92dd800 	push	{fp, ip, lr, pc}
2000fc6c:	e24cb004 	sub	fp, ip, #4	; 0x4
2000fc70:	e24dd008 	sub	sp, sp, #8	; 0x8
2000fc74:	e50b0010 	str	r0, [fp, #-16]
2000fc78:	e50b1014 	str	r1, [fp, #-20]
2000fc7c:	e51b3010 	ldr	r3, [fp, #-16]
2000fc80:	e3530000 	cmp	r3, #0	; 0x0
2000fc84:	0a000011 	beq	2000fcd0 <putnstr+0x6c>
2000fc88:	ea000009 	b	2000fcb4 <putnstr+0x50>
2000fc8c:	e51b3010 	ldr	r3, [fp, #-16]
2000fc90:	e5d33000 	ldrb	r3, [r3]
2000fc94:	e1a00003 	mov	r0, r3
2000fc98:	ebfffbce 	bl	2000ebd8 <putc>
2000fc9c:	e51b3010 	ldr	r3, [fp, #-16]
2000fca0:	e2833001 	add	r3, r3, #1	; 0x1
2000fca4:	e50b3010 	str	r3, [fp, #-16]
2000fca8:	e51b3014 	ldr	r3, [fp, #-20]
2000fcac:	e2433001 	sub	r3, r3, #1	; 0x1
2000fcb0:	e50b3014 	str	r3, [fp, #-20]
2000fcb4:	e51b3014 	ldr	r3, [fp, #-20]
2000fcb8:	e3530000 	cmp	r3, #0	; 0x0
2000fcbc:	0a000003 	beq	2000fcd0 <putnstr+0x6c>
2000fcc0:	e51b3010 	ldr	r3, [fp, #-16]
2000fcc4:	e5d33000 	ldrb	r3, [r3]
2000fcc8:	e3530000 	cmp	r3, #0	; 0x0
2000fccc:	1affffee 	bne	2000fc8c <putnstr+0x28>
2000fcd0:	e24bd00c 	sub	sp, fp, #12	; 0xc
2000fcd4:	e89da800 	ldm	sp, {fp, sp, pc}

2000fcd8 <putstr>:
2000fcd8:	e1a0c00d 	mov	ip, sp
2000fcdc:	e92dd800 	push	{fp, ip, lr, pc}
2000fce0:	e24cb004 	sub	fp, ip, #4	; 0x4
2000fce4:	e24dd008 	sub	sp, sp, #8	; 0x8
2000fce8:	e50b0010 	str	r0, [fp, #-16]
2000fcec:	e51b0010 	ldr	r0, [fp, #-16]
2000fcf0:	eb000206 	bl	20010510 <strlen>
2000fcf4:	e1a03000 	mov	r3, r0
2000fcf8:	e51b0010 	ldr	r0, [fp, #-16]
2000fcfc:	e1a01003 	mov	r1, r3
2000fd00:	ebffffd7 	bl	2000fc64 <putnstr>
2000fd04:	e24bd00c 	sub	sp, fp, #12	; 0xc
2000fd08:	e89da800 	ldm	sp, {fp, sp, pc}

2000fd0c <putstr_hex>:
2000fd0c:	e1a0c00d 	mov	ip, sp
2000fd10:	e92dd810 	push	{r4, fp, ip, lr, pc}
2000fd14:	e24cb004 	sub	fp, ip, #4	; 0x4
2000fd18:	e24dd01c 	sub	sp, sp, #28	; 0x1c
2000fd1c:	e59f404c 	ldr	r4, [pc, #76]	; 2000fd70 <putstr_hex+0x64>
2000fd20:	e08f4004 	add	r4, pc, r4
2000fd24:	e50b0028 	str	r0, [fp, #-40]
2000fd28:	e50b102c 	str	r1, [fp, #-44]
2000fd2c:	e51b202c 	ldr	r2, [fp, #-44]
2000fd30:	e24b301d 	sub	r3, fp, #29	; 0x1d
2000fd34:	e1a00003 	mov	r0, r3
2000fd38:	e1a01002 	mov	r1, r2
2000fd3c:	e3a02004 	mov	r2, #4	; 0x4
2000fd40:	ebffff0d 	bl	2000f97c <binarytohex>
2000fd44:	e51b0028 	ldr	r0, [fp, #-40]
2000fd48:	ebffffe2 	bl	2000fcd8 <putstr>
2000fd4c:	e24b301d 	sub	r3, fp, #29	; 0x1d
2000fd50:	e1a00003 	mov	r0, r3
2000fd54:	ebffffdf 	bl	2000fcd8 <putstr>
2000fd58:	e59f3014 	ldr	r3, [pc, #20]	; 2000fd74 <putstr_hex+0x68>
2000fd5c:	e0843003 	add	r3, r4, r3
2000fd60:	e1a00003 	mov	r0, r3
2000fd64:	ebffffdb 	bl	2000fcd8 <putstr>
2000fd68:	e24bd010 	sub	sp, fp, #16	; 0x10
2000fd6c:	e89da810 	ldm	sp, {r4, fp, sp, pc}
2000fd70:	00003860 	.word	0x00003860
2000fd74:	fffffb14 	.word	0xfffffb14

2000fd78 <gets>:
2000fd78:	e1a0c00d 	mov	ip, sp
2000fd7c:	e92dd800 	push	{fp, ip, lr, pc}
2000fd80:	e24cb004 	sub	fp, ip, #4	; 0x4
2000fd84:	e24dd010 	sub	sp, sp, #16	; 0x10
2000fd88:	e59f10e4 	ldr	r1, [pc, #228]	; 2000fe74 <gets+0xfc>
2000fd8c:	e50b101c 	str	r1, [fp, #-28]
2000fd90:	e51b201c 	ldr	r2, [fp, #-28]
2000fd94:	e08f2002 	add	r2, pc, r2
2000fd98:	e50b201c 	str	r2, [fp, #-28]
2000fd9c:	e50b0018 	str	r0, [fp, #-24]
2000fda0:	e3a03000 	mov	r3, #0	; 0x0
2000fda4:	e50b3014 	str	r3, [fp, #-20]
2000fda8:	ea000024 	b	2000fe40 <gets+0xc8>
2000fdac:	e55b300d 	ldrb	r3, [fp, #-13]
2000fdb0:	e3530008 	cmp	r3, #8	; 0x8
2000fdb4:	0a000010 	beq	2000fdfc <gets+0x84>
2000fdb8:	e51b3014 	ldr	r3, [fp, #-20]
2000fdbc:	e2833001 	add	r3, r3, #1	; 0x1
2000fdc0:	e50b3014 	str	r3, [fp, #-20]
2000fdc4:	e51b2018 	ldr	r2, [fp, #-24]
2000fdc8:	e55b300d 	ldrb	r3, [fp, #-13]
2000fdcc:	e5c23000 	strb	r3, [r2]
2000fdd0:	e51b3018 	ldr	r3, [fp, #-24]
2000fdd4:	e2833001 	add	r3, r3, #1	; 0x1
2000fdd8:	e50b3018 	str	r3, [fp, #-24]
2000fddc:	e55b200d 	ldrb	r2, [fp, #-13]
2000fde0:	e59f3090 	ldr	r3, [pc, #144]	; 2000fe78 <gets+0x100>
2000fde4:	e51b101c 	ldr	r1, [fp, #-28]
2000fde8:	e0813003 	add	r3, r1, r3
2000fdec:	e1a00003 	mov	r0, r3
2000fdf0:	e1a01002 	mov	r1, r2
2000fdf4:	ebfff340 	bl	2000cafc <printk>
2000fdf8:	ea000010 	b	2000fe40 <gets+0xc8>
2000fdfc:	e51b3014 	ldr	r3, [fp, #-20]
2000fe00:	e3530000 	cmp	r3, #0	; 0x0
2000fe04:	da00000d 	ble	2000fe40 <gets+0xc8>
2000fe08:	e51b3014 	ldr	r3, [fp, #-20]
2000fe0c:	e2433001 	sub	r3, r3, #1	; 0x1
2000fe10:	e50b3014 	str	r3, [fp, #-20]
2000fe14:	e51b2018 	ldr	r2, [fp, #-24]
2000fe18:	e3a03020 	mov	r3, #32	; 0x20
2000fe1c:	e5c23000 	strb	r3, [r2]
2000fe20:	e51b3018 	ldr	r3, [fp, #-24]
2000fe24:	e2433001 	sub	r3, r3, #1	; 0x1
2000fe28:	e50b3018 	str	r3, [fp, #-24]
2000fe2c:	e59f3048 	ldr	r3, [pc, #72]	; 2000fe7c <gets+0x104>
2000fe30:	e51b201c 	ldr	r2, [fp, #-28]
2000fe34:	e0823003 	add	r3, r2, r3
2000fe38:	e1a00003 	mov	r0, r3
2000fe3c:	ebfff32e 	bl	2000cafc <printk>
2000fe40:	ebfffb3b 	bl	2000eb34 <getc>
2000fe44:	e1a03000 	mov	r3, r0
2000fe48:	e54b300d 	strb	r3, [fp, #-13]
2000fe4c:	e55b300d 	ldrb	r3, [fp, #-13]
2000fe50:	e353000d 	cmp	r3, #13	; 0xd
2000fe54:	1affffd4 	bne	2000fdac <gets+0x34>
2000fe58:	e51b2018 	ldr	r2, [fp, #-24]
2000fe5c:	e3a03000 	mov	r3, #0	; 0x0
2000fe60:	e5c23000 	strb	r3, [r2]
2000fe64:	e51b3014 	ldr	r3, [fp, #-20]
2000fe68:	e1a00003 	mov	r0, r3
2000fe6c:	e24bd00c 	sub	sp, fp, #12	; 0xc
2000fe70:	e89da800 	ldm	sp, {fp, sp, pc}
2000fe74:	000037ec 	.word	0x000037ec
2000fe78:	fffffb18 	.word	0xfffffb18
2000fe7c:	fffffb1c 	.word	0xfffffb1c

2000fe80 <get_cmd>:
2000fe80:	e1a0c00d 	mov	ip, sp
2000fe84:	e92dd800 	push	{fp, ip, lr, pc}
2000fe88:	e24cb004 	sub	fp, ip, #4	; 0x4
2000fe8c:	e24dd010 	sub	sp, sp, #16	; 0x10
2000fe90:	e59f1168 	ldr	r1, [pc, #360]	; 20010000 <get_cmd+0x180>
2000fe94:	e50b101c 	str	r1, [fp, #-28]
2000fe98:	e51b201c 	ldr	r2, [fp, #-28]
2000fe9c:	e08f2002 	add	r2, pc, r2
2000fea0:	e50b201c 	str	r2, [fp, #-28]
2000fea4:	e50b0018 	str	r0, [fp, #-24]
2000fea8:	e3a03000 	mov	r3, #0	; 0x0
2000feac:	e50b3014 	str	r3, [fp, #-20]
2000feb0:	ea000045 	b	2000ffcc <get_cmd+0x14c>
2000feb4:	e55b300d 	ldrb	r3, [fp, #-13]
2000feb8:	e353001b 	cmp	r3, #27	; 0x1b
2000febc:	1a00001d 	bne	2000ff38 <get_cmd+0xb8>
2000fec0:	e51b3018 	ldr	r3, [fp, #-24]
2000fec4:	e5d33000 	ldrb	r3, [r3]
2000fec8:	e353002a 	cmp	r3, #42	; 0x2a
2000fecc:	0a00003e 	beq	2000ffcc <get_cmd+0x14c>
2000fed0:	e51b3018 	ldr	r3, [fp, #-24]
2000fed4:	e5d33000 	ldrb	r3, [r3]
2000fed8:	e3530000 	cmp	r3, #0	; 0x0
2000fedc:	0a00003a 	beq	2000ffcc <get_cmd+0x14c>
2000fee0:	e51b3014 	ldr	r3, [fp, #-20]
2000fee4:	e3530000 	cmp	r3, #0	; 0x0
2000fee8:	1a000037 	bne	2000ffcc <get_cmd+0x14c>
2000feec:	e59f3110 	ldr	r3, [pc, #272]	; 20010004 <get_cmd+0x184>
2000fef0:	e51b101c 	ldr	r1, [fp, #-28]
2000fef4:	e0813003 	add	r3, r1, r3
2000fef8:	e1a00003 	mov	r0, r3
2000fefc:	e51b1018 	ldr	r1, [fp, #-24]
2000ff00:	ebfff2fd 	bl	2000cafc <printk>
2000ff04:	ea000005 	b	2000ff20 <get_cmd+0xa0>
2000ff08:	e51b3018 	ldr	r3, [fp, #-24]
2000ff0c:	e2833001 	add	r3, r3, #1	; 0x1
2000ff10:	e50b3018 	str	r3, [fp, #-24]
2000ff14:	e51b3014 	ldr	r3, [fp, #-20]
2000ff18:	e2833001 	add	r3, r3, #1	; 0x1
2000ff1c:	e50b3014 	str	r3, [fp, #-20]
2000ff20:	e51b3018 	ldr	r3, [fp, #-24]
2000ff24:	e5d33000 	ldrb	r3, [r3]
2000ff28:	e3530000 	cmp	r3, #0	; 0x0
2000ff2c:	1afffff5 	bne	2000ff08 <get_cmd+0x88>
2000ff30:	ebfffaff 	bl	2000eb34 <getc>
2000ff34:	ea000024 	b	2000ffcc <get_cmd+0x14c>
2000ff38:	e55b300d 	ldrb	r3, [fp, #-13]
2000ff3c:	e3530008 	cmp	r3, #8	; 0x8
2000ff40:	0a000010 	beq	2000ff88 <get_cmd+0x108>
2000ff44:	e51b3014 	ldr	r3, [fp, #-20]
2000ff48:	e2833001 	add	r3, r3, #1	; 0x1
2000ff4c:	e50b3014 	str	r3, [fp, #-20]
2000ff50:	e51b2018 	ldr	r2, [fp, #-24]
2000ff54:	e55b300d 	ldrb	r3, [fp, #-13]
2000ff58:	e5c23000 	strb	r3, [r2]
2000ff5c:	e51b3018 	ldr	r3, [fp, #-24]
2000ff60:	e2833001 	add	r3, r3, #1	; 0x1
2000ff64:	e50b3018 	str	r3, [fp, #-24]
2000ff68:	e55b200d 	ldrb	r2, [fp, #-13]
2000ff6c:	e59f3094 	ldr	r3, [pc, #148]	; 20010008 <get_cmd+0x188>
2000ff70:	e51b101c 	ldr	r1, [fp, #-28]
2000ff74:	e0813003 	add	r3, r1, r3
2000ff78:	e1a00003 	mov	r0, r3
2000ff7c:	e1a01002 	mov	r1, r2
2000ff80:	ebfff2dd 	bl	2000cafc <printk>
2000ff84:	ea000010 	b	2000ffcc <get_cmd+0x14c>
2000ff88:	e51b3014 	ldr	r3, [fp, #-20]
2000ff8c:	e3530000 	cmp	r3, #0	; 0x0
2000ff90:	da00000d 	ble	2000ffcc <get_cmd+0x14c>
2000ff94:	e51b3014 	ldr	r3, [fp, #-20]
2000ff98:	e2433001 	sub	r3, r3, #1	; 0x1
2000ff9c:	e50b3014 	str	r3, [fp, #-20]
2000ffa0:	e51b2018 	ldr	r2, [fp, #-24]
2000ffa4:	e3a03020 	mov	r3, #32	; 0x20
2000ffa8:	e5c23000 	strb	r3, [r2]
2000ffac:	e51b3018 	ldr	r3, [fp, #-24]
2000ffb0:	e2433001 	sub	r3, r3, #1	; 0x1
2000ffb4:	e50b3018 	str	r3, [fp, #-24]
2000ffb8:	e59f304c 	ldr	r3, [pc, #76]	; 2001000c <get_cmd+0x18c>
2000ffbc:	e51b201c 	ldr	r2, [fp, #-28]
2000ffc0:	e0823003 	add	r3, r2, r3
2000ffc4:	e1a00003 	mov	r0, r3
2000ffc8:	ebfff2cb 	bl	2000cafc <printk>
2000ffcc:	ebfffad8 	bl	2000eb34 <getc>
2000ffd0:	e1a03000 	mov	r3, r0
2000ffd4:	e54b300d 	strb	r3, [fp, #-13]
2000ffd8:	e55b300d 	ldrb	r3, [fp, #-13]
2000ffdc:	e353000d 	cmp	r3, #13	; 0xd
2000ffe0:	1affffb3 	bne	2000feb4 <get_cmd+0x34>
2000ffe4:	e51b2018 	ldr	r2, [fp, #-24]
2000ffe8:	e3a03000 	mov	r3, #0	; 0x0
2000ffec:	e5c23000 	strb	r3, [r2]
2000fff0:	e51b3014 	ldr	r3, [fp, #-20]
2000fff4:	e1a00003 	mov	r0, r3
2000fff8:	e24bd00c 	sub	sp, fp, #12	; 0xc
2000fffc:	e89da800 	ldm	sp, {fp, sp, pc}
20010000:	000036e4 	.word	0x000036e4
20010004:	fffffb20 	.word	0xfffffb20
20010008:	fffffb18 	.word	0xfffffb18
2001000c:	fffffb1c 	.word	0xfffffb1c

20010010 <strnicmp>:
20010010:	e1a0c00d 	mov	ip, sp
20010014:	e92dd800 	push	{fp, ip, lr, pc}
20010018:	e24cb004 	sub	fp, ip, #4	; 0x4
2001001c:	e24dd018 	sub	sp, sp, #24	; 0x18
20010020:	e50b0018 	str	r0, [fp, #-24]
20010024:	e50b101c 	str	r1, [fp, #-28]
20010028:	e50b2020 	str	r2, [fp, #-32]
2001002c:	e3a03000 	mov	r3, #0	; 0x0
20010030:	e54b300e 	strb	r3, [fp, #-14]
20010034:	e3a03000 	mov	r3, #0	; 0x0
20010038:	e54b300d 	strb	r3, [fp, #-13]
2001003c:	e51b3020 	ldr	r3, [fp, #-32]
20010040:	e3530000 	cmp	r3, #0	; 0x0
20010044:	0a000029 	beq	200100f0 <strnicmp+0xe0>
20010048:	e51b3018 	ldr	r3, [fp, #-24]
2001004c:	e5d33000 	ldrb	r3, [r3]
20010050:	e54b300e 	strb	r3, [fp, #-14]
20010054:	e51b301c 	ldr	r3, [fp, #-28]
20010058:	e5d33000 	ldrb	r3, [r3]
2001005c:	e54b300d 	strb	r3, [fp, #-13]
20010060:	e51b3018 	ldr	r3, [fp, #-24]
20010064:	e2833001 	add	r3, r3, #1	; 0x1
20010068:	e50b3018 	str	r3, [fp, #-24]
2001006c:	e51b301c 	ldr	r3, [fp, #-28]
20010070:	e2833001 	add	r3, r3, #1	; 0x1
20010074:	e50b301c 	str	r3, [fp, #-28]
20010078:	e55b300e 	ldrb	r3, [fp, #-14]
2001007c:	e3530000 	cmp	r3, #0	; 0x0
20010080:	0a00001a 	beq	200100f0 <strnicmp+0xe0>
20010084:	e55b300d 	ldrb	r3, [fp, #-13]
20010088:	e3530000 	cmp	r3, #0	; 0x0
2001008c:	0a000017 	beq	200100f0 <strnicmp+0xe0>
20010090:	e55b200e 	ldrb	r2, [fp, #-14]
20010094:	e55b300d 	ldrb	r3, [fp, #-13]
20010098:	e1520003 	cmp	r2, r3
2001009c:	0a00000d 	beq	200100d8 <strnicmp+0xc8>
200100a0:	e55b300e 	ldrb	r3, [fp, #-14]
200100a4:	e1a00003 	mov	r0, r3
200100a8:	ebfffdc1 	bl	2000f7b4 <__tolower>
200100ac:	e1a03000 	mov	r3, r0
200100b0:	e54b300e 	strb	r3, [fp, #-14]
200100b4:	e55b300d 	ldrb	r3, [fp, #-13]
200100b8:	e1a00003 	mov	r0, r3
200100bc:	ebfffdbc 	bl	2000f7b4 <__tolower>
200100c0:	e1a03000 	mov	r3, r0
200100c4:	e54b300d 	strb	r3, [fp, #-13]
200100c8:	e55b200e 	ldrb	r2, [fp, #-14]
200100cc:	e55b300d 	ldrb	r3, [fp, #-13]
200100d0:	e1520003 	cmp	r2, r3
200100d4:	1a000005 	bne	200100f0 <strnicmp+0xe0>
200100d8:	e51b3020 	ldr	r3, [fp, #-32]
200100dc:	e2433001 	sub	r3, r3, #1	; 0x1
200100e0:	e50b3020 	str	r3, [fp, #-32]
200100e4:	e51b3020 	ldr	r3, [fp, #-32]
200100e8:	e3530000 	cmp	r3, #0	; 0x0
200100ec:	1affffd5 	bne	20010048 <strnicmp+0x38>
200100f0:	e55b200e 	ldrb	r2, [fp, #-14]
200100f4:	e55b300d 	ldrb	r3, [fp, #-13]
200100f8:	e0633002 	rsb	r3, r3, r2
200100fc:	e1a00003 	mov	r0, r3
20010100:	e24bd00c 	sub	sp, fp, #12	; 0xc
20010104:	e89da800 	ldm	sp, {fp, sp, pc}

20010108 <strcpy>:
20010108:	e1a0c00d 	mov	ip, sp
2001010c:	e92dd800 	push	{fp, ip, lr, pc}
20010110:	e24cb004 	sub	fp, ip, #4	; 0x4
20010114:	e24dd010 	sub	sp, sp, #16	; 0x10
20010118:	e50b0018 	str	r0, [fp, #-24]
2001011c:	e50b101c 	str	r1, [fp, #-28]
20010120:	e51b3018 	ldr	r3, [fp, #-24]
20010124:	e50b3010 	str	r3, [fp, #-16]
20010128:	e51b301c 	ldr	r3, [fp, #-28]
2001012c:	e5d33000 	ldrb	r3, [r3]
20010130:	e51b2018 	ldr	r2, [fp, #-24]
20010134:	e5c23000 	strb	r3, [r2]
20010138:	e51b3018 	ldr	r3, [fp, #-24]
2001013c:	e5d33000 	ldrb	r3, [r3]
20010140:	e3530000 	cmp	r3, #0	; 0x0
20010144:	03a03000 	moveq	r3, #0	; 0x0
20010148:	13a03001 	movne	r3, #1	; 0x1
2001014c:	e20320ff 	and	r2, r3, #255	; 0xff
20010150:	e51b3018 	ldr	r3, [fp, #-24]
20010154:	e2833001 	add	r3, r3, #1	; 0x1
20010158:	e50b3018 	str	r3, [fp, #-24]
2001015c:	e51b301c 	ldr	r3, [fp, #-28]
20010160:	e2833001 	add	r3, r3, #1	; 0x1
20010164:	e50b301c 	str	r3, [fp, #-28]
20010168:	e3520000 	cmp	r2, #0	; 0x0
2001016c:	1affffed 	bne	20010128 <strcpy+0x20>
20010170:	e51b3010 	ldr	r3, [fp, #-16]
20010174:	e1a00003 	mov	r0, r3
20010178:	e24bd00c 	sub	sp, fp, #12	; 0xc
2001017c:	e89da800 	ldm	sp, {fp, sp, pc}

20010180 <strncpy>:
20010180:	e1a0c00d 	mov	ip, sp
20010184:	e92dd800 	push	{fp, ip, lr, pc}
20010188:	e24cb004 	sub	fp, ip, #4	; 0x4
2001018c:	e24dd018 	sub	sp, sp, #24	; 0x18
20010190:	e50b0018 	str	r0, [fp, #-24]
20010194:	e50b101c 	str	r1, [fp, #-28]
20010198:	e50b2020 	str	r2, [fp, #-32]
2001019c:	e51b3018 	ldr	r3, [fp, #-24]
200101a0:	e50b3010 	str	r3, [fp, #-16]
200101a4:	e51b3020 	ldr	r3, [fp, #-32]
200101a8:	e3530000 	cmp	r3, #0	; 0x0
200101ac:	03a03000 	moveq	r3, #0	; 0x0
200101b0:	13a03001 	movne	r3, #1	; 0x1
200101b4:	e20320ff 	and	r2, r3, #255	; 0xff
200101b8:	e51b3020 	ldr	r3, [fp, #-32]
200101bc:	e2433001 	sub	r3, r3, #1	; 0x1
200101c0:	e50b3020 	str	r3, [fp, #-32]
200101c4:	e2223001 	eor	r3, r2, #1	; 0x1
200101c8:	e20330ff 	and	r3, r3, #255	; 0xff
200101cc:	e3530000 	cmp	r3, #0	; 0x0
200101d0:	1a000011 	bne	2001021c <strncpy+0x9c>
200101d4:	e51b301c 	ldr	r3, [fp, #-28]
200101d8:	e5d33000 	ldrb	r3, [r3]
200101dc:	e51b2018 	ldr	r2, [fp, #-24]
200101e0:	e5c23000 	strb	r3, [r2]
200101e4:	e51b3018 	ldr	r3, [fp, #-24]
200101e8:	e5d33000 	ldrb	r3, [r3]
200101ec:	e3530000 	cmp	r3, #0	; 0x0
200101f0:	03a03000 	moveq	r3, #0	; 0x0
200101f4:	13a03001 	movne	r3, #1	; 0x1
200101f8:	e20320ff 	and	r2, r3, #255	; 0xff
200101fc:	e51b3018 	ldr	r3, [fp, #-24]
20010200:	e2833001 	add	r3, r3, #1	; 0x1
20010204:	e50b3018 	str	r3, [fp, #-24]
20010208:	e51b301c 	ldr	r3, [fp, #-28]
2001020c:	e2833001 	add	r3, r3, #1	; 0x1
20010210:	e50b301c 	str	r3, [fp, #-28]
20010214:	e3520000 	cmp	r2, #0	; 0x0
20010218:	1affffe1 	bne	200101a4 <strncpy+0x24>
2001021c:	e51b3010 	ldr	r3, [fp, #-16]
20010220:	e1a00003 	mov	r0, r3
20010224:	e24bd00c 	sub	sp, fp, #12	; 0xc
20010228:	e89da800 	ldm	sp, {fp, sp, pc}

2001022c <strcat>:
2001022c:	e1a0c00d 	mov	ip, sp
20010230:	e92dd800 	push	{fp, ip, lr, pc}
20010234:	e24cb004 	sub	fp, ip, #4	; 0x4
20010238:	e24dd010 	sub	sp, sp, #16	; 0x10
2001023c:	e50b0018 	str	r0, [fp, #-24]
20010240:	e50b101c 	str	r1, [fp, #-28]
20010244:	e51b3018 	ldr	r3, [fp, #-24]
20010248:	e50b3010 	str	r3, [fp, #-16]
2001024c:	ea000002 	b	2001025c <strcat+0x30>
20010250:	e51b3018 	ldr	r3, [fp, #-24]
20010254:	e2833001 	add	r3, r3, #1	; 0x1
20010258:	e50b3018 	str	r3, [fp, #-24]
2001025c:	e51b3018 	ldr	r3, [fp, #-24]
20010260:	e5d33000 	ldrb	r3, [r3]
20010264:	e3530000 	cmp	r3, #0	; 0x0
20010268:	1afffff8 	bne	20010250 <strcat+0x24>
2001026c:	e51b301c 	ldr	r3, [fp, #-28]
20010270:	e5d33000 	ldrb	r3, [r3]
20010274:	e51b2018 	ldr	r2, [fp, #-24]
20010278:	e5c23000 	strb	r3, [r2]
2001027c:	e51b3018 	ldr	r3, [fp, #-24]
20010280:	e5d33000 	ldrb	r3, [r3]
20010284:	e3530000 	cmp	r3, #0	; 0x0
20010288:	03a03000 	moveq	r3, #0	; 0x0
2001028c:	13a03001 	movne	r3, #1	; 0x1
20010290:	e20320ff 	and	r2, r3, #255	; 0xff
20010294:	e51b3018 	ldr	r3, [fp, #-24]
20010298:	e2833001 	add	r3, r3, #1	; 0x1
2001029c:	e50b3018 	str	r3, [fp, #-24]
200102a0:	e51b301c 	ldr	r3, [fp, #-28]
200102a4:	e2833001 	add	r3, r3, #1	; 0x1
200102a8:	e50b301c 	str	r3, [fp, #-28]
200102ac:	e3520000 	cmp	r2, #0	; 0x0
200102b0:	1affffed 	bne	2001026c <strcat+0x40>
200102b4:	e51b3010 	ldr	r3, [fp, #-16]
200102b8:	e1a00003 	mov	r0, r3
200102bc:	e24bd00c 	sub	sp, fp, #12	; 0xc
200102c0:	e89da800 	ldm	sp, {fp, sp, pc}

200102c4 <strncat>:
200102c4:	e1a0c00d 	mov	ip, sp
200102c8:	e92dd800 	push	{fp, ip, lr, pc}
200102cc:	e24cb004 	sub	fp, ip, #4	; 0x4
200102d0:	e24dd018 	sub	sp, sp, #24	; 0x18
200102d4:	e50b0018 	str	r0, [fp, #-24]
200102d8:	e50b101c 	str	r1, [fp, #-28]
200102dc:	e50b2020 	str	r2, [fp, #-32]
200102e0:	e51b3018 	ldr	r3, [fp, #-24]
200102e4:	e50b3010 	str	r3, [fp, #-16]
200102e8:	e51b3020 	ldr	r3, [fp, #-32]
200102ec:	e3530000 	cmp	r3, #0	; 0x0
200102f0:	0a000024 	beq	20010388 <strncat+0xc4>
200102f4:	ea000002 	b	20010304 <strncat+0x40>
200102f8:	e51b3018 	ldr	r3, [fp, #-24]
200102fc:	e2833001 	add	r3, r3, #1	; 0x1
20010300:	e50b3018 	str	r3, [fp, #-24]
20010304:	e51b3018 	ldr	r3, [fp, #-24]
20010308:	e5d33000 	ldrb	r3, [r3]
2001030c:	e3530000 	cmp	r3, #0	; 0x0
20010310:	1afffff8 	bne	200102f8 <strncat+0x34>
20010314:	ea000009 	b	20010340 <strncat+0x7c>
20010318:	e51b3020 	ldr	r3, [fp, #-32]
2001031c:	e2433001 	sub	r3, r3, #1	; 0x1
20010320:	e50b3020 	str	r3, [fp, #-32]
20010324:	e51b3020 	ldr	r3, [fp, #-32]
20010328:	e3530000 	cmp	r3, #0	; 0x0
2001032c:	1a000003 	bne	20010340 <strncat+0x7c>
20010330:	e51b3018 	ldr	r3, [fp, #-24]
20010334:	e3a02000 	mov	r2, #0	; 0x0
20010338:	e5c32000 	strb	r2, [r3]
2001033c:	ea000011 	b	20010388 <strncat+0xc4>
20010340:	e51b301c 	ldr	r3, [fp, #-28]
20010344:	e5d33000 	ldrb	r3, [r3]
20010348:	e51b2018 	ldr	r2, [fp, #-24]
2001034c:	e5c23000 	strb	r3, [r2]
20010350:	e51b3018 	ldr	r3, [fp, #-24]
20010354:	e5d33000 	ldrb	r3, [r3]
20010358:	e3530000 	cmp	r3, #0	; 0x0
2001035c:	03a03000 	moveq	r3, #0	; 0x0
20010360:	13a03001 	movne	r3, #1	; 0x1
20010364:	e20320ff 	and	r2, r3, #255	; 0xff
20010368:	e51b3018 	ldr	r3, [fp, #-24]
2001036c:	e2833001 	add	r3, r3, #1	; 0x1
20010370:	e50b3018 	str	r3, [fp, #-24]
20010374:	e51b301c 	ldr	r3, [fp, #-28]
20010378:	e2833001 	add	r3, r3, #1	; 0x1
2001037c:	e50b301c 	str	r3, [fp, #-28]
20010380:	e3520000 	cmp	r2, #0	; 0x0
20010384:	1affffe3 	bne	20010318 <strncat+0x54>
20010388:	e51b3010 	ldr	r3, [fp, #-16]
2001038c:	e1a00003 	mov	r0, r3
20010390:	e24bd00c 	sub	sp, fp, #12	; 0xc
20010394:	e89da800 	ldm	sp, {fp, sp, pc}

20010398 <strcmp>:
20010398:	e1a0c00d 	mov	ip, sp
2001039c:	e92dd800 	push	{fp, ip, lr, pc}
200103a0:	e24cb004 	sub	fp, ip, #4	; 0x4
200103a4:	e24dd010 	sub	sp, sp, #16	; 0x10
200103a8:	e50b0010 	str	r0, [fp, #-16]
200103ac:	e50b1014 	str	r1, [fp, #-20]
200103b0:	e51b3010 	ldr	r3, [fp, #-16]
200103b4:	e5d32000 	ldrb	r2, [r3]
200103b8:	e51b3014 	ldr	r3, [fp, #-20]
200103bc:	e5d33000 	ldrb	r3, [r3]
200103c0:	e0633002 	rsb	r3, r3, r2
200103c4:	e20330ff 	and	r3, r3, #255	; 0xff
200103c8:	e50b3018 	str	r3, [fp, #-24]
200103cc:	e51b2018 	ldr	r2, [fp, #-24]
200103d0:	e1a03c02 	lsl	r3, r2, #24
200103d4:	e1a03c43 	asr	r3, r3, #24
200103d8:	e3530000 	cmp	r3, #0	; 0x0
200103dc:	03a03000 	moveq	r3, #0	; 0x0
200103e0:	13a03001 	movne	r3, #1	; 0x1
200103e4:	e20320ff 	and	r2, r3, #255	; 0xff
200103e8:	e51b3014 	ldr	r3, [fp, #-20]
200103ec:	e2833001 	add	r3, r3, #1	; 0x1
200103f0:	e50b3014 	str	r3, [fp, #-20]
200103f4:	e3520000 	cmp	r2, #0	; 0x0
200103f8:	1a00000a 	bne	20010428 <strcmp+0x90>
200103fc:	e51b3010 	ldr	r3, [fp, #-16]
20010400:	e5d33000 	ldrb	r3, [r3]
20010404:	e3530000 	cmp	r3, #0	; 0x0
20010408:	13a03000 	movne	r3, #0	; 0x0
2001040c:	03a03001 	moveq	r3, #1	; 0x1
20010410:	e20320ff 	and	r2, r3, #255	; 0xff
20010414:	e51b3010 	ldr	r3, [fp, #-16]
20010418:	e2833001 	add	r3, r3, #1	; 0x1
2001041c:	e50b3010 	str	r3, [fp, #-16]
20010420:	e3520000 	cmp	r2, #0	; 0x0
20010424:	0affffe1 	beq	200103b0 <strcmp+0x18>
20010428:	e51b2018 	ldr	r2, [fp, #-24]
2001042c:	e1a03c02 	lsl	r3, r2, #24
20010430:	e1a03c43 	asr	r3, r3, #24
20010434:	e1a00003 	mov	r0, r3
20010438:	e24bd00c 	sub	sp, fp, #12	; 0xc
2001043c:	e89da800 	ldm	sp, {fp, sp, pc}

20010440 <strncmp>:
20010440:	e1a0c00d 	mov	ip, sp
20010444:	e92dd800 	push	{fp, ip, lr, pc}
20010448:	e24cb004 	sub	fp, ip, #4	; 0x4
2001044c:	e24dd010 	sub	sp, sp, #16	; 0x10
20010450:	e50b0010 	str	r0, [fp, #-16]
20010454:	e50b1014 	str	r1, [fp, #-20]
20010458:	e50b2018 	str	r2, [fp, #-24]
2001045c:	e3a02000 	mov	r2, #0	; 0x0
20010460:	e50b201c 	str	r2, [fp, #-28]
20010464:	ea000020 	b	200104ec <strncmp+0xac>
20010468:	e51b3010 	ldr	r3, [fp, #-16]
2001046c:	e5d32000 	ldrb	r2, [r3]
20010470:	e51b3014 	ldr	r3, [fp, #-20]
20010474:	e5d33000 	ldrb	r3, [r3]
20010478:	e0633002 	rsb	r3, r3, r2
2001047c:	e20330ff 	and	r3, r3, #255	; 0xff
20010480:	e50b301c 	str	r3, [fp, #-28]
20010484:	e51b201c 	ldr	r2, [fp, #-28]
20010488:	e1a03c02 	lsl	r3, r2, #24
2001048c:	e1a03c43 	asr	r3, r3, #24
20010490:	e3530000 	cmp	r3, #0	; 0x0
20010494:	03a03000 	moveq	r3, #0	; 0x0
20010498:	13a03001 	movne	r3, #1	; 0x1
2001049c:	e20320ff 	and	r2, r3, #255	; 0xff
200104a0:	e51b3014 	ldr	r3, [fp, #-20]
200104a4:	e2833001 	add	r3, r3, #1	; 0x1
200104a8:	e50b3014 	str	r3, [fp, #-20]
200104ac:	e3520000 	cmp	r2, #0	; 0x0
200104b0:	1a000010 	bne	200104f8 <strncmp+0xb8>
200104b4:	e51b3010 	ldr	r3, [fp, #-16]
200104b8:	e5d33000 	ldrb	r3, [r3]
200104bc:	e3530000 	cmp	r3, #0	; 0x0
200104c0:	13a03000 	movne	r3, #0	; 0x0
200104c4:	03a03001 	moveq	r3, #1	; 0x1
200104c8:	e20320ff 	and	r2, r3, #255	; 0xff
200104cc:	e51b3010 	ldr	r3, [fp, #-16]
200104d0:	e2833001 	add	r3, r3, #1	; 0x1
200104d4:	e50b3010 	str	r3, [fp, #-16]
200104d8:	e3520000 	cmp	r2, #0	; 0x0
200104dc:	1a000005 	bne	200104f8 <strncmp+0xb8>
200104e0:	e51b3018 	ldr	r3, [fp, #-24]
200104e4:	e2433001 	sub	r3, r3, #1	; 0x1
200104e8:	e50b3018 	str	r3, [fp, #-24]
200104ec:	e51b3018 	ldr	r3, [fp, #-24]
200104f0:	e3530000 	cmp	r3, #0	; 0x0
200104f4:	1affffdb 	bne	20010468 <strncmp+0x28>
200104f8:	e51b201c 	ldr	r2, [fp, #-28]
200104fc:	e1a03c02 	lsl	r3, r2, #24
20010500:	e1a03c43 	asr	r3, r3, #24
20010504:	e1a00003 	mov	r0, r3
20010508:	e24bd00c 	sub	sp, fp, #12	; 0xc
2001050c:	e89da800 	ldm	sp, {fp, sp, pc}

20010510 <strlen>:
20010510:	e1a0c00d 	mov	ip, sp
20010514:	e92dd800 	push	{fp, ip, lr, pc}
20010518:	e24cb004 	sub	fp, ip, #4	; 0x4
2001051c:	e24dd010 	sub	sp, sp, #16	; 0x10
20010520:	e50b0018 	str	r0, [fp, #-24]
20010524:	e51b3018 	ldr	r3, [fp, #-24]
20010528:	e50b3010 	str	r3, [fp, #-16]
2001052c:	ea000002 	b	2001053c <strlen+0x2c>
20010530:	e51b3010 	ldr	r3, [fp, #-16]
20010534:	e2833001 	add	r3, r3, #1	; 0x1
20010538:	e50b3010 	str	r3, [fp, #-16]
2001053c:	e51b3010 	ldr	r3, [fp, #-16]
20010540:	e5d33000 	ldrb	r3, [r3]
20010544:	e3530000 	cmp	r3, #0	; 0x0
20010548:	1afffff8 	bne	20010530 <strlen+0x20>
2001054c:	e51b2010 	ldr	r2, [fp, #-16]
20010550:	e51b3018 	ldr	r3, [fp, #-24]
20010554:	e0633002 	rsb	r3, r3, r2
20010558:	e1a00003 	mov	r0, r3
2001055c:	e24bd00c 	sub	sp, fp, #12	; 0xc
20010560:	e89da800 	ldm	sp, {fp, sp, pc}

20010564 <strnlen>:
20010564:	e1a0c00d 	mov	ip, sp
20010568:	e92dd800 	push	{fp, ip, lr, pc}
2001056c:	e24cb004 	sub	fp, ip, #4	; 0x4
20010570:	e24dd010 	sub	sp, sp, #16	; 0x10
20010574:	e50b0018 	str	r0, [fp, #-24]
20010578:	e50b101c 	str	r1, [fp, #-28]
2001057c:	e51b3018 	ldr	r3, [fp, #-24]
20010580:	e50b3010 	str	r3, [fp, #-16]
20010584:	ea000002 	b	20010594 <strnlen+0x30>
20010588:	e51b3010 	ldr	r3, [fp, #-16]
2001058c:	e2833001 	add	r3, r3, #1	; 0x1
20010590:	e50b3010 	str	r3, [fp, #-16]
20010594:	e51b301c 	ldr	r3, [fp, #-28]
20010598:	e3530000 	cmp	r3, #0	; 0x0
2001059c:	03a03000 	moveq	r3, #0	; 0x0
200105a0:	13a03001 	movne	r3, #1	; 0x1
200105a4:	e20320ff 	and	r2, r3, #255	; 0xff
200105a8:	e51b301c 	ldr	r3, [fp, #-28]
200105ac:	e2433001 	sub	r3, r3, #1	; 0x1
200105b0:	e50b301c 	str	r3, [fp, #-28]
200105b4:	e2223001 	eor	r3, r2, #1	; 0x1
200105b8:	e20330ff 	and	r3, r3, #255	; 0xff
200105bc:	e3530000 	cmp	r3, #0	; 0x0
200105c0:	1a000003 	bne	200105d4 <strnlen+0x70>
200105c4:	e51b3010 	ldr	r3, [fp, #-16]
200105c8:	e5d33000 	ldrb	r3, [r3]
200105cc:	e3530000 	cmp	r3, #0	; 0x0
200105d0:	1affffec 	bne	20010588 <strnlen+0x24>
200105d4:	e51b2010 	ldr	r2, [fp, #-16]
200105d8:	e51b3018 	ldr	r3, [fp, #-24]
200105dc:	e0633002 	rsb	r3, r3, r2
200105e0:	e1a00003 	mov	r0, r3
200105e4:	e24bd00c 	sub	sp, fp, #12	; 0xc
200105e8:	e89da800 	ldm	sp, {fp, sp, pc}

200105ec <strspn>:
200105ec:	e1a0c00d 	mov	ip, sp
200105f0:	e92dd800 	push	{fp, ip, lr, pc}
200105f4:	e24cb004 	sub	fp, ip, #4	; 0x4
200105f8:	e24dd020 	sub	sp, sp, #32	; 0x20
200105fc:	e50b0020 	str	r0, [fp, #-32]
20010600:	e50b1024 	str	r1, [fp, #-36]
20010604:	e3a03000 	mov	r3, #0	; 0x0
20010608:	e50b3010 	str	r3, [fp, #-16]
2001060c:	e51b3020 	ldr	r3, [fp, #-32]
20010610:	e50b3018 	str	r3, [fp, #-24]
20010614:	ea00001c 	b	2001068c <strspn+0xa0>
20010618:	e51b3024 	ldr	r3, [fp, #-36]
2001061c:	e50b3014 	str	r3, [fp, #-20]
20010620:	ea000008 	b	20010648 <strspn+0x5c>
20010624:	e51b3018 	ldr	r3, [fp, #-24]
20010628:	e5d32000 	ldrb	r2, [r3]
2001062c:	e51b3014 	ldr	r3, [fp, #-20]
20010630:	e5d33000 	ldrb	r3, [r3]
20010634:	e1520003 	cmp	r2, r3
20010638:	0a000006 	beq	20010658 <strspn+0x6c>
2001063c:	e51b3014 	ldr	r3, [fp, #-20]
20010640:	e2833001 	add	r3, r3, #1	; 0x1
20010644:	e50b3014 	str	r3, [fp, #-20]
20010648:	e51b3014 	ldr	r3, [fp, #-20]
2001064c:	e5d33000 	ldrb	r3, [r3]
20010650:	e3530000 	cmp	r3, #0	; 0x0
20010654:	1afffff2 	bne	20010624 <strspn+0x38>
20010658:	e51b3014 	ldr	r3, [fp, #-20]
2001065c:	e5d33000 	ldrb	r3, [r3]
20010660:	e3530000 	cmp	r3, #0	; 0x0
20010664:	1a000002 	bne	20010674 <strspn+0x88>
20010668:	e51b3010 	ldr	r3, [fp, #-16]
2001066c:	e50b3028 	str	r3, [fp, #-40]
20010670:	ea00000b 	b	200106a4 <strspn+0xb8>
20010674:	e51b3010 	ldr	r3, [fp, #-16]
20010678:	e2833001 	add	r3, r3, #1	; 0x1
2001067c:	e50b3010 	str	r3, [fp, #-16]
20010680:	e51b3018 	ldr	r3, [fp, #-24]
20010684:	e2833001 	add	r3, r3, #1	; 0x1
20010688:	e50b3018 	str	r3, [fp, #-24]
2001068c:	e51b3018 	ldr	r3, [fp, #-24]
20010690:	e5d33000 	ldrb	r3, [r3]
20010694:	e3530000 	cmp	r3, #0	; 0x0
20010698:	1affffde 	bne	20010618 <strspn+0x2c>
2001069c:	e51b3010 	ldr	r3, [fp, #-16]
200106a0:	e50b3028 	str	r3, [fp, #-40]
200106a4:	e51b3028 	ldr	r3, [fp, #-40]
200106a8:	e1a00003 	mov	r0, r3
200106ac:	e24bd00c 	sub	sp, fp, #12	; 0xc
200106b0:	e89da800 	ldm	sp, {fp, sp, pc}

200106b4 <strpbrk>:
200106b4:	e1a0c00d 	mov	ip, sp
200106b8:	e92dd800 	push	{fp, ip, lr, pc}
200106bc:	e24cb004 	sub	fp, ip, #4	; 0x4
200106c0:	e24dd018 	sub	sp, sp, #24	; 0x18
200106c4:	e50b0018 	str	r0, [fp, #-24]
200106c8:	e50b101c 	str	r1, [fp, #-28]
200106cc:	e51b3018 	ldr	r3, [fp, #-24]
200106d0:	e50b3014 	str	r3, [fp, #-20]
200106d4:	ea000015 	b	20010730 <strpbrk+0x7c>
200106d8:	e51b301c 	ldr	r3, [fp, #-28]
200106dc:	e50b3010 	str	r3, [fp, #-16]
200106e0:	ea00000b 	b	20010714 <strpbrk+0x60>
200106e4:	e51b3014 	ldr	r3, [fp, #-20]
200106e8:	e5d32000 	ldrb	r2, [r3]
200106ec:	e51b3010 	ldr	r3, [fp, #-16]
200106f0:	e5d33000 	ldrb	r3, [r3]
200106f4:	e1520003 	cmp	r2, r3
200106f8:	1a000002 	bne	20010708 <strpbrk+0x54>
200106fc:	e51b3014 	ldr	r3, [fp, #-20]
20010700:	e50b3020 	str	r3, [fp, #-32]
20010704:	ea00000f 	b	20010748 <strpbrk+0x94>
20010708:	e51b3010 	ldr	r3, [fp, #-16]
2001070c:	e2833001 	add	r3, r3, #1	; 0x1
20010710:	e50b3010 	str	r3, [fp, #-16]
20010714:	e51b3010 	ldr	r3, [fp, #-16]
20010718:	e5d33000 	ldrb	r3, [r3]
2001071c:	e3530000 	cmp	r3, #0	; 0x0
20010720:	1affffef 	bne	200106e4 <strpbrk+0x30>
20010724:	e51b3014 	ldr	r3, [fp, #-20]
20010728:	e2833001 	add	r3, r3, #1	; 0x1
2001072c:	e50b3014 	str	r3, [fp, #-20]
20010730:	e51b3014 	ldr	r3, [fp, #-20]
20010734:	e5d33000 	ldrb	r3, [r3]
20010738:	e3530000 	cmp	r3, #0	; 0x0
2001073c:	1affffe5 	bne	200106d8 <strpbrk+0x24>
20010740:	e3a03000 	mov	r3, #0	; 0x0
20010744:	e50b3020 	str	r3, [fp, #-32]
20010748:	e51b3020 	ldr	r3, [fp, #-32]
2001074c:	e1a00003 	mov	r0, r3
20010750:	e24bd00c 	sub	sp, fp, #12	; 0xc
20010754:	e89da800 	ldm	sp, {fp, sp, pc}

20010758 <strtok>:
20010758:	e1a0c00d 	mov	ip, sp
2001075c:	e92dd800 	push	{fp, ip, lr, pc}
20010760:	e24cb004 	sub	fp, ip, #4	; 0x4
20010764:	e24dd020 	sub	sp, sp, #32	; 0x20
20010768:	e59f2120 	ldr	r2, [pc, #288]	; 20010890 <strtok+0x138>
2001076c:	e50b2028 	str	r2, [fp, #-40]
20010770:	e51b3028 	ldr	r3, [fp, #-40]
20010774:	e08f3003 	add	r3, pc, r3
20010778:	e50b3028 	str	r3, [fp, #-40]
2001077c:	e50b0018 	str	r0, [fp, #-24]
20010780:	e50b101c 	str	r1, [fp, #-28]
20010784:	e51b3018 	ldr	r3, [fp, #-24]
20010788:	e3530000 	cmp	r3, #0	; 0x0
2001078c:	0a000002 	beq	2001079c <strtok+0x44>
20010790:	e51b1018 	ldr	r1, [fp, #-24]
20010794:	e50b1024 	str	r1, [fp, #-36]
20010798:	ea000004 	b	200107b0 <strtok+0x58>
2001079c:	e59f30f0 	ldr	r3, [pc, #240]	; 20010894 <strtok+0x13c>
200107a0:	e51b2028 	ldr	r2, [fp, #-40]
200107a4:	e7923003 	ldr	r3, [r2, r3]
200107a8:	e5933000 	ldr	r3, [r3]
200107ac:	e50b3024 	str	r3, [fp, #-36]
200107b0:	e51b3024 	ldr	r3, [fp, #-36]
200107b4:	e50b3014 	str	r3, [fp, #-20]
200107b8:	e51b3014 	ldr	r3, [fp, #-20]
200107bc:	e3530000 	cmp	r3, #0	; 0x0
200107c0:	1a000002 	bne	200107d0 <strtok+0x78>
200107c4:	e3a01000 	mov	r1, #0	; 0x0
200107c8:	e50b1020 	str	r1, [fp, #-32]
200107cc:	ea00002b 	b	20010880 <strtok+0x128>
200107d0:	e51b0014 	ldr	r0, [fp, #-20]
200107d4:	e51b101c 	ldr	r1, [fp, #-28]
200107d8:	ebffff83 	bl	200105ec <strspn>
200107dc:	e1a02000 	mov	r2, r0
200107e0:	e51b3014 	ldr	r3, [fp, #-20]
200107e4:	e0833002 	add	r3, r3, r2
200107e8:	e50b3014 	str	r3, [fp, #-20]
200107ec:	e51b3014 	ldr	r3, [fp, #-20]
200107f0:	e5d33000 	ldrb	r3, [r3]
200107f4:	e3530000 	cmp	r3, #0	; 0x0
200107f8:	1a000007 	bne	2001081c <strtok+0xc4>
200107fc:	e59f3090 	ldr	r3, [pc, #144]	; 20010894 <strtok+0x13c>
20010800:	e51b1028 	ldr	r1, [fp, #-40]
20010804:	e7912003 	ldr	r2, [r1, r3]
20010808:	e3a03000 	mov	r3, #0	; 0x0
2001080c:	e5823000 	str	r3, [r2]
20010810:	e3a02000 	mov	r2, #0	; 0x0
20010814:	e50b2020 	str	r2, [fp, #-32]
20010818:	ea000018 	b	20010880 <strtok+0x128>
2001081c:	e51b0014 	ldr	r0, [fp, #-20]
20010820:	e51b101c 	ldr	r1, [fp, #-28]
20010824:	ebffffa2 	bl	200106b4 <strpbrk>
20010828:	e1a03000 	mov	r3, r0
2001082c:	e50b3010 	str	r3, [fp, #-16]
20010830:	e51b3010 	ldr	r3, [fp, #-16]
20010834:	e3530000 	cmp	r3, #0	; 0x0
20010838:	0a000009 	beq	20010864 <strtok+0x10c>
2001083c:	e51b3010 	ldr	r3, [fp, #-16]
20010840:	e5d33000 	ldrb	r3, [r3]
20010844:	e3530000 	cmp	r3, #0	; 0x0
20010848:	0a000005 	beq	20010864 <strtok+0x10c>
2001084c:	e51b2010 	ldr	r2, [fp, #-16]
20010850:	e3a03000 	mov	r3, #0	; 0x0
20010854:	e5c23000 	strb	r3, [r2]
20010858:	e51b3010 	ldr	r3, [fp, #-16]
2001085c:	e2833001 	add	r3, r3, #1	; 0x1
20010860:	e50b3010 	str	r3, [fp, #-16]
20010864:	e59f3028 	ldr	r3, [pc, #40]	; 20010894 <strtok+0x13c>
20010868:	e51b1028 	ldr	r1, [fp, #-40]
2001086c:	e7912003 	ldr	r2, [r1, r3]
20010870:	e51b3010 	ldr	r3, [fp, #-16]
20010874:	e5823000 	str	r3, [r2]
20010878:	e51b2014 	ldr	r2, [fp, #-20]
2001087c:	e50b2020 	str	r2, [fp, #-32]
20010880:	e51b3020 	ldr	r3, [fp, #-32]
20010884:	e1a00003 	mov	r0, r3
20010888:	e24bd00c 	sub	sp, fp, #12	; 0xc
2001088c:	e89da800 	ldm	sp, {fp, sp, pc}
20010890:	00002e0c 	.word	0x00002e0c
20010894:	00000028 	.word	0x00000028

20010898 <strsep>:
20010898:	e1a0c00d 	mov	ip, sp
2001089c:	e92dd800 	push	{fp, ip, lr, pc}
200108a0:	e24cb004 	sub	fp, ip, #4	; 0x4
200108a4:	e24dd018 	sub	sp, sp, #24	; 0x18
200108a8:	e50b0018 	str	r0, [fp, #-24]
200108ac:	e50b101c 	str	r1, [fp, #-28]
200108b0:	e51b3018 	ldr	r3, [fp, #-24]
200108b4:	e5933000 	ldr	r3, [r3]
200108b8:	e50b3014 	str	r3, [fp, #-20]
200108bc:	e51b3014 	ldr	r3, [fp, #-20]
200108c0:	e3530000 	cmp	r3, #0	; 0x0
200108c4:	1a000002 	bne	200108d4 <strsep+0x3c>
200108c8:	e3a03000 	mov	r3, #0	; 0x0
200108cc:	e50b3020 	str	r3, [fp, #-32]
200108d0:	ea000012 	b	20010920 <strsep+0x88>
200108d4:	e51b0014 	ldr	r0, [fp, #-20]
200108d8:	e51b101c 	ldr	r1, [fp, #-28]
200108dc:	ebffff74 	bl	200106b4 <strpbrk>
200108e0:	e1a03000 	mov	r3, r0
200108e4:	e50b3010 	str	r3, [fp, #-16]
200108e8:	e51b3010 	ldr	r3, [fp, #-16]
200108ec:	e3530000 	cmp	r3, #0	; 0x0
200108f0:	0a000005 	beq	2001090c <strsep+0x74>
200108f4:	e51b2010 	ldr	r2, [fp, #-16]
200108f8:	e3a03000 	mov	r3, #0	; 0x0
200108fc:	e5c23000 	strb	r3, [r2]
20010900:	e51b3010 	ldr	r3, [fp, #-16]
20010904:	e2833001 	add	r3, r3, #1	; 0x1
20010908:	e50b3010 	str	r3, [fp, #-16]
2001090c:	e51b2018 	ldr	r2, [fp, #-24]
20010910:	e51b3010 	ldr	r3, [fp, #-16]
20010914:	e5823000 	str	r3, [r2]
20010918:	e51b3014 	ldr	r3, [fp, #-20]
2001091c:	e50b3020 	str	r3, [fp, #-32]
20010920:	e51b3020 	ldr	r3, [fp, #-32]
20010924:	e1a00003 	mov	r0, r3
20010928:	e24bd00c 	sub	sp, fp, #12	; 0xc
2001092c:	e89da800 	ldm	sp, {fp, sp, pc}

20010930 <bcopy>:
20010930:	e1a0c00d 	mov	ip, sp
20010934:	e92dd800 	push	{fp, ip, lr, pc}
20010938:	e24cb004 	sub	fp, ip, #4	; 0x4
2001093c:	e24dd018 	sub	sp, sp, #24	; 0x18
20010940:	e50b0018 	str	r0, [fp, #-24]
20010944:	e50b101c 	str	r1, [fp, #-28]
20010948:	e50b2020 	str	r2, [fp, #-32]
2001094c:	e51b301c 	ldr	r3, [fp, #-28]
20010950:	e50b3010 	str	r3, [fp, #-16]
20010954:	ea000009 	b	20010980 <bcopy+0x50>
20010958:	e51b3018 	ldr	r3, [fp, #-24]
2001095c:	e5d33000 	ldrb	r3, [r3]
20010960:	e51b2010 	ldr	r2, [fp, #-16]
20010964:	e5c23000 	strb	r3, [r2]
20010968:	e51b3010 	ldr	r3, [fp, #-16]
2001096c:	e2833001 	add	r3, r3, #1	; 0x1
20010970:	e50b3010 	str	r3, [fp, #-16]
20010974:	e51b3018 	ldr	r3, [fp, #-24]
20010978:	e2833001 	add	r3, r3, #1	; 0x1
2001097c:	e50b3018 	str	r3, [fp, #-24]
20010980:	e51b3020 	ldr	r3, [fp, #-32]
20010984:	e3530000 	cmp	r3, #0	; 0x0
20010988:	03a03000 	moveq	r3, #0	; 0x0
2001098c:	13a03001 	movne	r3, #1	; 0x1
20010990:	e20320ff 	and	r2, r3, #255	; 0xff
20010994:	e51b3020 	ldr	r3, [fp, #-32]
20010998:	e2433001 	sub	r3, r3, #1	; 0x1
2001099c:	e50b3020 	str	r3, [fp, #-32]
200109a0:	e3520000 	cmp	r2, #0	; 0x0
200109a4:	1affffeb 	bne	20010958 <bcopy+0x28>
200109a8:	e51b301c 	ldr	r3, [fp, #-28]
200109ac:	e1a00003 	mov	r0, r3
200109b0:	e24bd00c 	sub	sp, fp, #12	; 0xc
200109b4:	e89da800 	ldm	sp, {fp, sp, pc}

200109b8 <memcmp>:
200109b8:	e1a0c00d 	mov	ip, sp
200109bc:	e92dd800 	push	{fp, ip, lr, pc}
200109c0:	e24cb004 	sub	fp, ip, #4	; 0x4
200109c4:	e24dd020 	sub	sp, sp, #32	; 0x20
200109c8:	e50b0020 	str	r0, [fp, #-32]
200109cc:	e50b1024 	str	r1, [fp, #-36]
200109d0:	e50b2028 	str	r2, [fp, #-40]
200109d4:	e3a03000 	mov	r3, #0	; 0x0
200109d8:	e50b3010 	str	r3, [fp, #-16]
200109dc:	e51b3020 	ldr	r3, [fp, #-32]
200109e0:	e50b3018 	str	r3, [fp, #-24]
200109e4:	e51b3024 	ldr	r3, [fp, #-36]
200109e8:	e50b3014 	str	r3, [fp, #-20]
200109ec:	ea000012 	b	20010a3c <memcmp+0x84>
200109f0:	e51b3018 	ldr	r3, [fp, #-24]
200109f4:	e5d33000 	ldrb	r3, [r3]
200109f8:	e1a02003 	mov	r2, r3
200109fc:	e51b3014 	ldr	r3, [fp, #-20]
20010a00:	e5d33000 	ldrb	r3, [r3]
20010a04:	e0633002 	rsb	r3, r3, r2
20010a08:	e50b3010 	str	r3, [fp, #-16]
20010a0c:	e51b3010 	ldr	r3, [fp, #-16]
20010a10:	e3530000 	cmp	r3, #0	; 0x0
20010a14:	1a00000b 	bne	20010a48 <memcmp+0x90>
20010a18:	e51b3018 	ldr	r3, [fp, #-24]
20010a1c:	e2833001 	add	r3, r3, #1	; 0x1
20010a20:	e50b3018 	str	r3, [fp, #-24]
20010a24:	e51b3014 	ldr	r3, [fp, #-20]
20010a28:	e2833001 	add	r3, r3, #1	; 0x1
20010a2c:	e50b3014 	str	r3, [fp, #-20]
20010a30:	e51b3028 	ldr	r3, [fp, #-40]
20010a34:	e2433001 	sub	r3, r3, #1	; 0x1
20010a38:	e50b3028 	str	r3, [fp, #-40]
20010a3c:	e51b3028 	ldr	r3, [fp, #-40]
20010a40:	e3530000 	cmp	r3, #0	; 0x0
20010a44:	1affffe9 	bne	200109f0 <memcmp+0x38>
20010a48:	e51b3010 	ldr	r3, [fp, #-16]
20010a4c:	e1a00003 	mov	r0, r3
20010a50:	e24bd00c 	sub	sp, fp, #12	; 0xc
20010a54:	e89da800 	ldm	sp, {fp, sp, pc}

20010a58 <memscan>:
20010a58:	e1a0c00d 	mov	ip, sp
20010a5c:	e92dd800 	push	{fp, ip, lr, pc}
20010a60:	e24cb004 	sub	fp, ip, #4	; 0x4
20010a64:	e24dd018 	sub	sp, sp, #24	; 0x18
20010a68:	e50b0018 	str	r0, [fp, #-24]
20010a6c:	e50b101c 	str	r1, [fp, #-28]
20010a70:	e50b2020 	str	r2, [fp, #-32]
20010a74:	e51b3018 	ldr	r3, [fp, #-24]
20010a78:	e50b3010 	str	r3, [fp, #-16]
20010a7c:	ea00000e 	b	20010abc <memscan+0x64>
20010a80:	e51b3010 	ldr	r3, [fp, #-16]
20010a84:	e5d33000 	ldrb	r3, [r3]
20010a88:	e1a02003 	mov	r2, r3
20010a8c:	e51b301c 	ldr	r3, [fp, #-28]
20010a90:	e1520003 	cmp	r2, r3
20010a94:	1a000002 	bne	20010aa4 <memscan+0x4c>
20010a98:	e51b3010 	ldr	r3, [fp, #-16]
20010a9c:	e50b3024 	str	r3, [fp, #-36]
20010aa0:	ea00000a 	b	20010ad0 <memscan+0x78>
20010aa4:	e51b3010 	ldr	r3, [fp, #-16]
20010aa8:	e2833001 	add	r3, r3, #1	; 0x1
20010aac:	e50b3010 	str	r3, [fp, #-16]
20010ab0:	e51b3020 	ldr	r3, [fp, #-32]
20010ab4:	e2433001 	sub	r3, r3, #1	; 0x1
20010ab8:	e50b3020 	str	r3, [fp, #-32]
20010abc:	e51b3020 	ldr	r3, [fp, #-32]
20010ac0:	e3530000 	cmp	r3, #0	; 0x0
20010ac4:	1affffed 	bne	20010a80 <memscan+0x28>
20010ac8:	e51b3010 	ldr	r3, [fp, #-16]
20010acc:	e50b3024 	str	r3, [fp, #-36]
20010ad0:	e51b3024 	ldr	r3, [fp, #-36]
20010ad4:	e1a00003 	mov	r0, r3
20010ad8:	e24bd00c 	sub	sp, fp, #12	; 0xc
20010adc:	e89da800 	ldm	sp, {fp, sp, pc}

20010ae0 <strstr>:
20010ae0:	e1a0c00d 	mov	ip, sp
20010ae4:	e92dd800 	push	{fp, ip, lr, pc}
20010ae8:	e24cb004 	sub	fp, ip, #4	; 0x4
20010aec:	e24dd018 	sub	sp, sp, #24	; 0x18
20010af0:	e50b0018 	str	r0, [fp, #-24]
20010af4:	e50b101c 	str	r1, [fp, #-28]
20010af8:	e51b001c 	ldr	r0, [fp, #-28]
20010afc:	ebfffe83 	bl	20010510 <strlen>
20010b00:	e1a03000 	mov	r3, r0
20010b04:	e50b3010 	str	r3, [fp, #-16]
20010b08:	e51b3010 	ldr	r3, [fp, #-16]
20010b0c:	e3530000 	cmp	r3, #0	; 0x0
20010b10:	1a000002 	bne	20010b20 <strstr+0x40>
20010b14:	e51b3018 	ldr	r3, [fp, #-24]
20010b18:	e50b3020 	str	r3, [fp, #-32]
20010b1c:	ea00001b 	b	20010b90 <strstr+0xb0>
20010b20:	e51b0018 	ldr	r0, [fp, #-24]
20010b24:	ebfffe79 	bl	20010510 <strlen>
20010b28:	e1a03000 	mov	r3, r0
20010b2c:	e50b3014 	str	r3, [fp, #-20]
20010b30:	ea000010 	b	20010b78 <strstr+0x98>
20010b34:	e51b3014 	ldr	r3, [fp, #-20]
20010b38:	e2433001 	sub	r3, r3, #1	; 0x1
20010b3c:	e50b3014 	str	r3, [fp, #-20]
20010b40:	e51b3010 	ldr	r3, [fp, #-16]
20010b44:	e51b0018 	ldr	r0, [fp, #-24]
20010b48:	e51b101c 	ldr	r1, [fp, #-28]
20010b4c:	e1a02003 	mov	r2, r3
20010b50:	ebffff98 	bl	200109b8 <memcmp>
20010b54:	e1a03000 	mov	r3, r0
20010b58:	e3530000 	cmp	r3, #0	; 0x0
20010b5c:	1a000002 	bne	20010b6c <strstr+0x8c>
20010b60:	e51b3018 	ldr	r3, [fp, #-24]
20010b64:	e50b3020 	str	r3, [fp, #-32]
20010b68:	ea000008 	b	20010b90 <strstr+0xb0>
20010b6c:	e51b3018 	ldr	r3, [fp, #-24]
20010b70:	e2833001 	add	r3, r3, #1	; 0x1
20010b74:	e50b3018 	str	r3, [fp, #-24]
20010b78:	e51b2014 	ldr	r2, [fp, #-20]
20010b7c:	e51b3010 	ldr	r3, [fp, #-16]
20010b80:	e1520003 	cmp	r2, r3
20010b84:	aaffffea 	bge	20010b34 <strstr+0x54>
20010b88:	e3a03000 	mov	r3, #0	; 0x0
20010b8c:	e50b3020 	str	r3, [fp, #-32]
20010b90:	e51b3020 	ldr	r3, [fp, #-32]
20010b94:	e1a00003 	mov	r0, r3
20010b98:	e24bd00c 	sub	sp, fp, #12	; 0xc
20010b9c:	e89da800 	ldm	sp, {fp, sp, pc}

20010ba0 <init_thread_id>:
20010ba0:	e1a0c00d 	mov	ip, sp
20010ba4:	e92dd800 	push	{fp, ip, lr, pc}
20010ba8:	e24cb004 	sub	fp, ip, #4	; 0x4
20010bac:	e59f3014 	ldr	r3, [pc, #20]	; 20010bc8 <init_thread_id+0x28>
20010bb0:	e08f3003 	add	r3, pc, r3
20010bb4:	e59f2010 	ldr	r2, [pc, #16]	; 20010bcc <init_thread_id+0x2c>
20010bb8:	e7932002 	ldr	r2, [r3, r2]
20010bbc:	e3a03000 	mov	r3, #0	; 0x0
20010bc0:	e5823000 	str	r3, [r2]
20010bc4:	e89da800 	ldm	sp, {fp, sp, pc}
20010bc8:	000029d0 	.word	0x000029d0
20010bcc:	000000b4 	.word	0x000000b4

20010bd0 <pthread_create>:
20010bd0:	e1a0c00d 	mov	ip, sp
20010bd4:	e92dd800 	push	{fp, ip, lr, pc}
20010bd8:	e24cb004 	sub	fp, ip, #4	; 0x4
20010bdc:	e24dd028 	sub	sp, sp, #40	; 0x28
20010be0:	e59fc30c 	ldr	ip, [pc, #780]	; 20010ef4 <pthread_create+0x324>
20010be4:	e50bc034 	str	ip, [fp, #-52]
20010be8:	e51bc034 	ldr	ip, [fp, #-52]
20010bec:	e08fc00c 	add	ip, pc, ip
20010bf0:	e50bc034 	str	ip, [fp, #-52]
20010bf4:	e50b0020 	str	r0, [fp, #-32]
20010bf8:	e50b1024 	str	r1, [fp, #-36]
20010bfc:	e50b2028 	str	r2, [fp, #-40]
20010c00:	e50b302c 	str	r3, [fp, #-44]
20010c04:	ebfff4c7 	bl	2000df28 <vk_scheduler_lock>
20010c08:	e3a00084 	mov	r0, #132	; 0x84
20010c0c:	ebffe3bb 	bl	20009b00 <vk_malloc>
20010c10:	e1a03000 	mov	r3, r0
20010c14:	e50b3014 	str	r3, [fp, #-20]
20010c18:	e51b3014 	ldr	r3, [fp, #-20]
20010c1c:	e3530000 	cmp	r3, #0	; 0x0
20010c20:	1a000007 	bne	20010c44 <pthread_create+0x74>
20010c24:	e59f32cc 	ldr	r3, [pc, #716]	; 20010ef8 <pthread_create+0x328>
20010c28:	e51b1034 	ldr	r1, [fp, #-52]
20010c2c:	e0813003 	add	r3, r1, r3
20010c30:	e1a00003 	mov	r0, r3
20010c34:	ebffefb0 	bl	2000cafc <printk>
20010c38:	e3a02001 	mov	r2, #1	; 0x1
20010c3c:	e50b2030 	str	r2, [fp, #-48]
20010c40:	ea0000a7 	b	20010ee4 <pthread_create+0x314>
20010c44:	e3a00b01 	mov	r0, #1024	; 0x400
20010c48:	ebffe3ac 	bl	20009b00 <vk_malloc>
20010c4c:	e1a03000 	mov	r3, r0
20010c50:	e50b3018 	str	r3, [fp, #-24]
20010c54:	e51b3018 	ldr	r3, [fp, #-24]
20010c58:	e3530000 	cmp	r3, #0	; 0x0
20010c5c:	1a000007 	bne	20010c80 <pthread_create+0xb0>
20010c60:	e59f3294 	ldr	r3, [pc, #660]	; 20010efc <pthread_create+0x32c>
20010c64:	e51bc034 	ldr	ip, [fp, #-52]
20010c68:	e08c3003 	add	r3, ip, r3
20010c6c:	e1a00003 	mov	r0, r3
20010c70:	ebffefa1 	bl	2000cafc <printk>
20010c74:	e3a01001 	mov	r1, #1	; 0x1
20010c78:	e50b1030 	str	r1, [fp, #-48]
20010c7c:	ea000098 	b	20010ee4 <pthread_create+0x314>
20010c80:	e59f3278 	ldr	r3, [pc, #632]	; 20010f00 <pthread_create+0x330>
20010c84:	e51b2034 	ldr	r2, [fp, #-52]
20010c88:	e7923003 	ldr	r3, [r2, r3]
20010c8c:	e5932000 	ldr	r2, [r3]
20010c90:	e51b3014 	ldr	r3, [fp, #-20]
20010c94:	e5832004 	str	r2, [r3, #4]
20010c98:	e59f3260 	ldr	r3, [pc, #608]	; 20010f00 <pthread_create+0x330>
20010c9c:	e51bc034 	ldr	ip, [fp, #-52]
20010ca0:	e79c3003 	ldr	r3, [ip, r3]
20010ca4:	e5933000 	ldr	r3, [r3]
20010ca8:	e2832001 	add	r2, r3, #1	; 0x1
20010cac:	e59f324c 	ldr	r3, [pc, #588]	; 20010f00 <pthread_create+0x330>
20010cb0:	e51b1034 	ldr	r1, [fp, #-52]
20010cb4:	e7913003 	ldr	r3, [r1, r3]
20010cb8:	e5832000 	str	r2, [r3]
20010cbc:	e51b2014 	ldr	r2, [fp, #-20]
20010cc0:	e3a03001 	mov	r3, #1	; 0x1
20010cc4:	e5823000 	str	r3, [r2]
20010cc8:	e51b2028 	ldr	r2, [fp, #-40]
20010ccc:	e59f3230 	ldr	r3, [pc, #560]	; 20010f04 <pthread_create+0x334>
20010cd0:	e51bc034 	ldr	ip, [fp, #-52]
20010cd4:	e79c3003 	ldr	r3, [ip, r3]
20010cd8:	e1520003 	cmp	r2, r3
20010cdc:	1a000006 	bne	20010cfc <pthread_create+0x12c>
20010ce0:	e51b2014 	ldr	r2, [fp, #-20]
20010ce4:	e3a03000 	mov	r3, #0	; 0x0
20010ce8:	e5823008 	str	r3, [r2, #8]
20010cec:	e51b2014 	ldr	r2, [fp, #-20]
20010cf0:	e3a03000 	mov	r3, #0	; 0x0
20010cf4:	e582300c 	str	r3, [r2, #12]
20010cf8:	ea000016 	b	20010d58 <pthread_create+0x188>
20010cfc:	e51b3020 	ldr	r3, [fp, #-32]
20010d00:	e5933000 	ldr	r3, [r3]
20010d04:	e3530000 	cmp	r3, #0	; 0x0
20010d08:	0a000003 	beq	20010d1c <pthread_create+0x14c>
20010d0c:	e51b3020 	ldr	r3, [fp, #-32]
20010d10:	e5933000 	ldr	r3, [r3]
20010d14:	e353001f 	cmp	r3, #31	; 0x1f
20010d18:	9a000006 	bls	20010d38 <pthread_create+0x168>
20010d1c:	e51b2014 	ldr	r2, [fp, #-20]
20010d20:	e3a0300f 	mov	r3, #15	; 0xf
20010d24:	e5823008 	str	r3, [r2, #8]
20010d28:	e51b2014 	ldr	r2, [fp, #-20]
20010d2c:	e3a0300f 	mov	r3, #15	; 0xf
20010d30:	e582300c 	str	r3, [r2, #12]
20010d34:	ea000007 	b	20010d58 <pthread_create+0x188>
20010d38:	e51b3020 	ldr	r3, [fp, #-32]
20010d3c:	e5932000 	ldr	r2, [r3]
20010d40:	e51b3014 	ldr	r3, [fp, #-20]
20010d44:	e5832008 	str	r2, [r3, #8]
20010d48:	e51b3020 	ldr	r3, [fp, #-32]
20010d4c:	e5932000 	ldr	r2, [r3]
20010d50:	e51b3014 	ldr	r3, [fp, #-20]
20010d54:	e583200c 	str	r2, [r3, #12]
20010d58:	e51b2014 	ldr	r2, [fp, #-20]
20010d5c:	e3a03000 	mov	r3, #0	; 0x0
20010d60:	e5823010 	str	r3, [r2, #16]
20010d64:	e51b2014 	ldr	r2, [fp, #-20]
20010d68:	e3a03000 	mov	r3, #0	; 0x0
20010d6c:	e5823018 	str	r3, [r2, #24]
20010d70:	e51b2014 	ldr	r2, [fp, #-20]
20010d74:	e3a03000 	mov	r3, #0	; 0x0
20010d78:	e5823014 	str	r3, [r2, #20]
20010d7c:	e51b2014 	ldr	r2, [fp, #-20]
20010d80:	e3a03000 	mov	r3, #0	; 0x0
20010d84:	e582301c 	str	r3, [r2, #28]
20010d88:	e51b2014 	ldr	r2, [fp, #-20]
20010d8c:	e3a03000 	mov	r3, #0	; 0x0
20010d90:	e5823034 	str	r3, [r2, #52]
20010d94:	e51b2014 	ldr	r2, [fp, #-20]
20010d98:	e3a03000 	mov	r3, #0	; 0x0
20010d9c:	e582302c 	str	r3, [r2, #44]
20010da0:	e51b2014 	ldr	r2, [fp, #-20]
20010da4:	e3a03000 	mov	r3, #0	; 0x0
20010da8:	e5823030 	str	r3, [r2, #48]
20010dac:	e51b3014 	ldr	r3, [fp, #-20]
20010db0:	e2832040 	add	r2, r3, #64	; 0x40
20010db4:	e51b3014 	ldr	r3, [fp, #-20]
20010db8:	e5832020 	str	r2, [r3, #32]
20010dbc:	e51b2014 	ldr	r2, [fp, #-20]
20010dc0:	e51b3018 	ldr	r3, [fp, #-24]
20010dc4:	e5823024 	str	r3, [r2, #36]
20010dc8:	e51b2014 	ldr	r2, [fp, #-20]
20010dcc:	e51b3028 	ldr	r3, [fp, #-40]
20010dd0:	e5823028 	str	r3, [r2, #40]
20010dd4:	e51b2014 	ldr	r2, [fp, #-20]
20010dd8:	e3a03000 	mov	r3, #0	; 0x0
20010ddc:	e5823038 	str	r3, [r2, #56]
20010de0:	e51b2014 	ldr	r2, [fp, #-20]
20010de4:	e3a03000 	mov	r3, #0	; 0x0
20010de8:	e582303c 	str	r3, [r2, #60]
20010dec:	e59f3114 	ldr	r3, [pc, #276]	; 20010f08 <pthread_create+0x338>
20010df0:	e51b1034 	ldr	r1, [fp, #-52]
20010df4:	e7913003 	ldr	r3, [r1, r3]
20010df8:	e5933000 	ldr	r3, [r3]
20010dfc:	e1a02003 	mov	r2, r3
20010e00:	e51b3014 	ldr	r3, [fp, #-20]
20010e04:	e5832040 	str	r2, [r3, #64]
20010e08:	e51b3014 	ldr	r3, [fp, #-20]
20010e0c:	e5933028 	ldr	r3, [r3, #40]
20010e10:	e1a02003 	mov	r2, r3
20010e14:	e51b3014 	ldr	r3, [fp, #-20]
20010e18:	e5832044 	str	r2, [r3, #68]
20010e1c:	e51b202c 	ldr	r2, [fp, #-44]
20010e20:	e51b3014 	ldr	r3, [fp, #-20]
20010e24:	e5832048 	str	r2, [r3, #72]
20010e28:	e3a03000 	mov	r3, #0	; 0x0
20010e2c:	e50b3010 	str	r3, [fp, #-16]
20010e30:	ea00000b 	b	20010e64 <pthread_create+0x294>
20010e34:	e51b3010 	ldr	r3, [fp, #-16]
20010e38:	e51b1014 	ldr	r1, [fp, #-20]
20010e3c:	e2833012 	add	r3, r3, #18	; 0x12
20010e40:	e3a02004 	mov	r2, #4	; 0x4
20010e44:	e1a03103 	lsl	r3, r3, #2
20010e48:	e0813003 	add	r3, r1, r3
20010e4c:	e0832002 	add	r2, r3, r2
20010e50:	e3a03000 	mov	r3, #0	; 0x0
20010e54:	e5823000 	str	r3, [r2]
20010e58:	e51b3010 	ldr	r3, [fp, #-16]
20010e5c:	e2833001 	add	r3, r3, #1	; 0x1
20010e60:	e50b3010 	str	r3, [fp, #-16]
20010e64:	e51b3010 	ldr	r3, [fp, #-16]
20010e68:	e353000b 	cmp	r3, #11	; 0xb
20010e6c:	9afffff0 	bls	20010e34 <pthread_create+0x264>
20010e70:	e51b3018 	ldr	r3, [fp, #-24]
20010e74:	e2833b01 	add	r3, r3, #1024	; 0x400
20010e78:	e1a02003 	mov	r2, r3
20010e7c:	e51b3014 	ldr	r3, [fp, #-20]
20010e80:	e583207c 	str	r2, [r3, #124]
20010e84:	e59f3080 	ldr	r3, [pc, #128]	; 20010f0c <pthread_create+0x33c>
20010e88:	e51b2034 	ldr	r2, [fp, #-52]
20010e8c:	e7923003 	ldr	r3, [r2, r3]
20010e90:	e1a02003 	mov	r2, r3
20010e94:	e51b3014 	ldr	r3, [fp, #-20]
20010e98:	e5832080 	str	r2, [r3, #128]
20010e9c:	e51b2020 	ldr	r2, [fp, #-32]
20010ea0:	e51b3014 	ldr	r3, [fp, #-20]
20010ea4:	e5823004 	str	r3, [r2, #4]
20010ea8:	e51b0014 	ldr	r0, [fp, #-20]
20010eac:	e59f305c 	ldr	r3, [pc, #92]	; 20010f10 <pthread_create+0x340>
20010eb0:	e51bc034 	ldr	ip, [fp, #-52]
20010eb4:	e79c3003 	ldr	r3, [ip, r3]
20010eb8:	e1a01003 	mov	r1, r3
20010ebc:	ebfff090 	bl	2000d104 <vk_thread_enqueue>
20010ec0:	e51b0014 	ldr	r0, [fp, #-20]
20010ec4:	e59f3048 	ldr	r3, [pc, #72]	; 20010f14 <pthread_create+0x344>
20010ec8:	e51b1034 	ldr	r1, [fp, #-52]
20010ecc:	e7913003 	ldr	r3, [r1, r3]
20010ed0:	e1a01003 	mov	r1, r3
20010ed4:	ebfff08a 	bl	2000d104 <vk_thread_enqueue>
20010ed8:	ebfff42c 	bl	2000df90 <vk_scheduler_unlock>
20010edc:	e3a02000 	mov	r2, #0	; 0x0
20010ee0:	e50b2030 	str	r2, [fp, #-48]
20010ee4:	e51b3030 	ldr	r3, [fp, #-48]
20010ee8:	e1a00003 	mov	r0, r3
20010eec:	e24bd00c 	sub	sp, fp, #12	; 0xc
20010ef0:	e89da800 	ldm	sp, {fp, sp, pc}
20010ef4:	00002994 	.word	0x00002994
20010ef8:	fffffb24 	.word	0xfffffb24
20010efc:	fffffb5c 	.word	0xfffffb5c
20010f00:	000000b4 	.word	0x000000b4
20010f04:	00000068 	.word	0x00000068
20010f08:	000000a4 	.word	0x000000a4
20010f0c:	00000010 	.word	0x00000010
20010f10:	00000098 	.word	0x00000098
20010f14:	0000007c 	.word	0x0000007c

20010f18 <pthread_exit>:
20010f18:	e1a0c00d 	mov	ip, sp
20010f1c:	e92dd810 	push	{r4, fp, ip, lr, pc}
20010f20:	e24cb004 	sub	fp, ip, #4	; 0x4
20010f24:	e24dd00c 	sub	sp, sp, #12	; 0xc
20010f28:	e59f403c 	ldr	r4, [pc, #60]	; 20010f6c <pthread_exit+0x54>
20010f2c:	e08f4004 	add	r4, pc, r4
20010f30:	e50b0018 	str	r0, [fp, #-24]
20010f34:	eb000216 	bl	20011794 <vk_timer_irq_disable>
20010f38:	e59f3030 	ldr	r3, [pc, #48]	; 20010f70 <pthread_exit+0x58>
20010f3c:	e7943003 	ldr	r3, [r4, r3]
20010f40:	e5932000 	ldr	r2, [r3]
20010f44:	e51b3018 	ldr	r3, [fp, #-24]
20010f48:	e582301c 	str	r3, [r2, #28]
20010f4c:	e59f301c 	ldr	r3, [pc, #28]	; 20010f70 <pthread_exit+0x58>
20010f50:	e7943003 	ldr	r3, [r4, r3]
20010f54:	e5932000 	ldr	r2, [r3]
20010f58:	e3a03003 	mov	r3, #3	; 0x3
20010f5c:	e5823000 	str	r3, [r2]
20010f60:	ebffe217 	bl	200097c4 <vk_swi_scheduler>
20010f64:	e24bd010 	sub	sp, fp, #16	; 0x10
20010f68:	e89da810 	ldm	sp, {r4, fp, sp, pc}
20010f6c:	00002654 	.word	0x00002654
20010f70:	000000ac 	.word	0x000000ac

20010f74 <vk_thread_yield>:
20010f74:	e1a0c00d 	mov	ip, sp
20010f78:	e92dd800 	push	{fp, ip, lr, pc}
20010f7c:	e24cb004 	sub	fp, ip, #4	; 0x4
20010f80:	e24dd010 	sub	sp, sp, #16	; 0x10
20010f84:	e59f20b8 	ldr	r2, [pc, #184]	; 20011044 <vk_thread_yield+0xd0>
20010f88:	e50b2018 	str	r2, [fp, #-24]
20010f8c:	e51b3018 	ldr	r3, [fp, #-24]
20010f90:	e08f3003 	add	r3, pc, r3
20010f94:	e50b3018 	str	r3, [fp, #-24]
20010f98:	e59f30a8 	ldr	r3, [pc, #168]	; 20011048 <vk_thread_yield+0xd4>
20010f9c:	e51b2018 	ldr	r2, [fp, #-24]
20010fa0:	e7923003 	ldr	r3, [r2, r3]
20010fa4:	e5933000 	ldr	r3, [r3]
20010fa8:	e5933038 	ldr	r3, [r3, #56]
20010fac:	e50b3010 	str	r3, [fp, #-16]
20010fb0:	e51b3010 	ldr	r3, [fp, #-16]
20010fb4:	e3530000 	cmp	r3, #0	; 0x0
20010fb8:	1a000000 	bne	20010fc0 <vk_thread_yield+0x4c>
20010fbc:	ebffe1eb 	bl	20009770 <vk_disable_interrupt>
20010fc0:	e59f3080 	ldr	r3, [pc, #128]	; 20011048 <vk_thread_yield+0xd4>
20010fc4:	e51b2018 	ldr	r2, [fp, #-24]
20010fc8:	e7923003 	ldr	r3, [r2, r3]
20010fcc:	e5932000 	ldr	r2, [r3]
20010fd0:	e3a03002 	mov	r3, #2	; 0x2
20010fd4:	e5823000 	str	r3, [r2]
20010fd8:	e59f3068 	ldr	r3, [pc, #104]	; 20011048 <vk_thread_yield+0xd4>
20010fdc:	e51b2018 	ldr	r2, [fp, #-24]
20010fe0:	e7923003 	ldr	r3, [r2, r3]
20010fe4:	e5933000 	ldr	r3, [r3]
20010fe8:	e1a00003 	mov	r0, r3
20010fec:	e59f3058 	ldr	r3, [pc, #88]	; 2001104c <vk_thread_yield+0xd8>
20010ff0:	e51b2018 	ldr	r2, [fp, #-24]
20010ff4:	e7923003 	ldr	r3, [r2, r3]
20010ff8:	e1a01003 	mov	r1, r3
20010ffc:	ebfff040 	bl	2000d104 <vk_thread_enqueue>
20011000:	e59f3040 	ldr	r3, [pc, #64]	; 20011048 <vk_thread_yield+0xd4>
20011004:	e51b2018 	ldr	r2, [fp, #-24]
20011008:	e7923003 	ldr	r3, [r2, r3]
2001100c:	e5933000 	ldr	r3, [r3]
20011010:	e1a00003 	mov	r0, r3
20011014:	e59f3034 	ldr	r3, [pc, #52]	; 20011050 <vk_thread_yield+0xdc>
20011018:	e51b2018 	ldr	r2, [fp, #-24]
2001101c:	e7923003 	ldr	r3, [r2, r3]
20011020:	e1a01003 	mov	r1, r3
20011024:	ebfff0a4 	bl	2000d2bc <vk_thread_dequeue>
20011028:	ebffe1e5 	bl	200097c4 <vk_swi_scheduler>
2001102c:	e51b3010 	ldr	r3, [fp, #-16]
20011030:	e3530000 	cmp	r3, #0	; 0x0
20011034:	1a000000 	bne	2001103c <vk_thread_yield+0xc8>
20011038:	ebffe1b7 	bl	2000971c <vk_enable_interrupt>
2001103c:	e24bd00c 	sub	sp, fp, #12	; 0xc
20011040:	e89da800 	ldm	sp, {fp, sp, pc}
20011044:	000025f0 	.word	0x000025f0
20011048:	000000ac 	.word	0x000000ac
2001104c:	000000b8 	.word	0x000000b8
20011050:	0000007c 	.word	0x0000007c

20011054 <pthread_join>:
20011054:	e1a0c00d 	mov	ip, sp
20011058:	e92dd800 	push	{fp, ip, lr, pc}
2001105c:	e24cb004 	sub	fp, ip, #4	; 0x4
20011060:	e24dd020 	sub	sp, sp, #32	; 0x20
20011064:	e59f318c 	ldr	r3, [pc, #396]	; 200111f8 <pthread_join+0x1a4>
20011068:	e50b3028 	str	r3, [fp, #-40]
2001106c:	e51bc028 	ldr	ip, [fp, #-40]
20011070:	e08fc00c 	add	ip, pc, ip
20011074:	e50bc028 	str	ip, [fp, #-40]
20011078:	e24b301c 	sub	r3, fp, #28	; 0x1c
2001107c:	e8830003 	stm	r3, {r0, r1}
20011080:	e50b2020 	str	r2, [fp, #-32]
20011084:	e51b3018 	ldr	r3, [fp, #-24]
20011088:	e50b3010 	str	r3, [fp, #-16]
2001108c:	e51b3010 	ldr	r3, [fp, #-16]
20011090:	e5933000 	ldr	r3, [r3]
20011094:	e3530003 	cmp	r3, #3	; 0x3
20011098:	0a000050 	beq	200111e0 <pthread_join+0x18c>
2001109c:	e3a03000 	mov	r3, #0	; 0x0
200110a0:	e50b3014 	str	r3, [fp, #-20]
200110a4:	ea00004a 	b	200111d4 <pthread_join+0x180>
200110a8:	e51b2014 	ldr	r2, [fp, #-20]
200110ac:	e59f3148 	ldr	r3, [pc, #328]	; 200111fc <pthread_join+0x1a8>
200110b0:	e51b0028 	ldr	r0, [fp, #-40]
200110b4:	e7901003 	ldr	r1, [r0, r3]
200110b8:	e1a03002 	mov	r3, r2
200110bc:	e1a02103 	lsl	r2, r3, #2
200110c0:	e1a03102 	lsl	r3, r2, #2
200110c4:	e0623003 	rsb	r3, r2, r3
200110c8:	e0813003 	add	r3, r1, r3
200110cc:	e5933000 	ldr	r3, [r3]
200110d0:	e3530000 	cmp	r3, #0	; 0x0
200110d4:	1a00003b 	bne	200111c8 <pthread_join+0x174>
200110d8:	e51b2014 	ldr	r2, [fp, #-20]
200110dc:	e59f3118 	ldr	r3, [pc, #280]	; 200111fc <pthread_join+0x1a8>
200110e0:	e51bc028 	ldr	ip, [fp, #-40]
200110e4:	e79c1003 	ldr	r1, [ip, r3]
200110e8:	e1a03002 	mov	r3, r2
200110ec:	e1a02103 	lsl	r2, r3, #2
200110f0:	e1a03102 	lsl	r3, r2, #2
200110f4:	e0623003 	rsb	r3, r2, r3
200110f8:	e0812003 	add	r2, r1, r3
200110fc:	e3a03001 	mov	r3, #1	; 0x1
20011100:	e5823000 	str	r3, [r2]
20011104:	e51b2014 	ldr	r2, [fp, #-20]
20011108:	e59f30ec 	ldr	r3, [pc, #236]	; 200111fc <pthread_join+0x1a8>
2001110c:	e51b0028 	ldr	r0, [fp, #-40]
20011110:	e7901003 	ldr	r1, [r0, r3]
20011114:	e3a00004 	mov	r0, #4	; 0x4
20011118:	e1a03002 	mov	r3, r2
2001111c:	e1a02103 	lsl	r2, r3, #2
20011120:	e1a03102 	lsl	r3, r2, #2
20011124:	e0623003 	rsb	r3, r2, r3
20011128:	e0813003 	add	r3, r1, r3
2001112c:	e0832000 	add	r2, r3, r0
20011130:	e51b3010 	ldr	r3, [fp, #-16]
20011134:	e5823000 	str	r3, [r2]
20011138:	e51b2014 	ldr	r2, [fp, #-20]
2001113c:	e59f30bc 	ldr	r3, [pc, #188]	; 20011200 <pthread_join+0x1ac>
20011140:	e51b1028 	ldr	r1, [fp, #-40]
20011144:	e7913003 	ldr	r3, [r1, r3]
20011148:	e5931000 	ldr	r1, [r3]
2001114c:	e59f30a8 	ldr	r3, [pc, #168]	; 200111fc <pthread_join+0x1a8>
20011150:	e51bc028 	ldr	ip, [fp, #-40]
20011154:	e79c0003 	ldr	r0, [ip, r3]
20011158:	e3a0c008 	mov	ip, #8	; 0x8
2001115c:	e1a03002 	mov	r3, r2
20011160:	e1a02103 	lsl	r2, r3, #2
20011164:	e1a03102 	lsl	r3, r2, #2
20011168:	e0623003 	rsb	r3, r2, r3
2001116c:	e0803003 	add	r3, r0, r3
20011170:	e083300c 	add	r3, r3, ip
20011174:	e5831000 	str	r1, [r3]
20011178:	e59f3080 	ldr	r3, [pc, #128]	; 20011200 <pthread_join+0x1ac>
2001117c:	e51b0028 	ldr	r0, [fp, #-40]
20011180:	e7903003 	ldr	r3, [r0, r3]
20011184:	e5933000 	ldr	r3, [r3]
20011188:	e1a00003 	mov	r0, r3
2001118c:	e59f3070 	ldr	r3, [pc, #112]	; 20011204 <pthread_join+0x1b0>
20011190:	e51b1028 	ldr	r1, [fp, #-40]
20011194:	e7913003 	ldr	r3, [r1, r3]
20011198:	e1a01003 	mov	r1, r3
2001119c:	ebfff046 	bl	2000d2bc <vk_thread_dequeue>
200111a0:	e59f3058 	ldr	r3, [pc, #88]	; 20011200 <pthread_join+0x1ac>
200111a4:	e51b2028 	ldr	r2, [fp, #-40]
200111a8:	e7923003 	ldr	r3, [r2, r3]
200111ac:	e5932000 	ldr	r2, [r3]
200111b0:	e3a03002 	mov	r3, #2	; 0x2
200111b4:	e5823000 	str	r3, [r2]
200111b8:	ebffe181 	bl	200097c4 <vk_swi_scheduler>
200111bc:	e3a03000 	mov	r3, #0	; 0x0
200111c0:	e50b3024 	str	r3, [fp, #-36]
200111c4:	ea000007 	b	200111e8 <pthread_join+0x194>
200111c8:	e51b3014 	ldr	r3, [fp, #-20]
200111cc:	e2833001 	add	r3, r3, #1	; 0x1
200111d0:	e50b3014 	str	r3, [fp, #-20]
200111d4:	e51b3014 	ldr	r3, [fp, #-20]
200111d8:	e3530009 	cmp	r3, #9	; 0x9
200111dc:	9affffb1 	bls	200110a8 <pthread_join+0x54>
200111e0:	e3a0c000 	mov	ip, #0	; 0x0
200111e4:	e50bc024 	str	ip, [fp, #-36]
200111e8:	e51b3024 	ldr	r3, [fp, #-36]
200111ec:	e1a00003 	mov	r0, r3
200111f0:	e24bd00c 	sub	sp, fp, #12	; 0xc
200111f4:	e89da800 	ldm	sp, {fp, sp, pc}
200111f8:	00002510 	.word	0x00002510
200111fc:	000000c4 	.word	0x000000c4
20011200:	000000ac 	.word	0x000000ac
20011204:	0000007c 	.word	0x0000007c

20011208 <ctime>:
20011208:	e1a0c00d 	mov	ip, sp
2001120c:	e92dd800 	push	{fp, ip, lr, pc}
20011210:	e24cb004 	sub	fp, ip, #4	; 0x4
20011214:	e24dd098 	sub	sp, sp, #152	; 0x98
20011218:	e59f13d4 	ldr	r1, [pc, #980]	; 200115f4 <ctime+0x3ec>
2001121c:	e50b10a4 	str	r1, [fp, #-164]
20011220:	e51b20a4 	ldr	r2, [fp, #-164]
20011224:	e08f2002 	add	r2, pc, r2
20011228:	e50b20a4 	str	r2, [fp, #-164]
2001122c:	e50b00a0 	str	r0, [fp, #-160]
20011230:	e3a03000 	mov	r3, #0	; 0x0
20011234:	e50b3010 	str	r3, [fp, #-16]
20011238:	e59f33b8 	ldr	r3, [pc, #952]	; 200115f8 <ctime+0x3f0>
2001123c:	e51b00a4 	ldr	r0, [fp, #-164]
20011240:	e0803003 	add	r3, r0, r3
20011244:	e24be04c 	sub	lr, fp, #76	; 0x4c
20011248:	e1a0c003 	mov	ip, r3
2001124c:	e8bc000f 	ldm	ip!, {r0, r1, r2, r3}
20011250:	e8ae000f 	stmia	lr!, {r0, r1, r2, r3}
20011254:	e89c000f 	ldm	ip, {r0, r1, r2, r3}
20011258:	e88e000f 	stm	lr, {r0, r1, r2, r3}
2001125c:	e59f3398 	ldr	r3, [pc, #920]	; 200115fc <ctime+0x3f4>
20011260:	e51b10a4 	ldr	r1, [fp, #-164]
20011264:	e0813003 	add	r3, r1, r3
20011268:	e24b209c 	sub	r2, fp, #156	; 0x9c
2001126c:	e3a0c050 	mov	ip, #80	; 0x50
20011270:	e1a00002 	mov	r0, r2
20011274:	e1a01003 	mov	r1, r3
20011278:	e1a0200c 	mov	r2, ip
2001127c:	eb000507 	bl	200126a0 <memcpy>
20011280:	e24b302c 	sub	r3, fp, #44	; 0x2c
20011284:	e1a00003 	mov	r0, r3
20011288:	ebfff120 	bl	2000d710 <vh_gettime>
2001128c:	e51b3020 	ldr	r3, [fp, #-32]
20011290:	e3e0203f 	mvn	r2, #63	; 0x3f
20011294:	e1a03103 	lsl	r3, r3, #2
20011298:	e24b000c 	sub	r0, fp, #12	; 0xc
2001129c:	e0803003 	add	r3, r0, r3
200112a0:	e0833002 	add	r3, r3, r2
200112a4:	e5932000 	ldr	r2, [r3]
200112a8:	e59f3350 	ldr	r3, [pc, #848]	; 20011600 <ctime+0x3f8>
200112ac:	e51b10a4 	ldr	r1, [fp, #-164]
200112b0:	e7913003 	ldr	r3, [r1, r3]
200112b4:	e1a00003 	mov	r0, r3
200112b8:	e1a01002 	mov	r1, r2
200112bc:	ebfffb91 	bl	20010108 <strcpy>
200112c0:	e51b3020 	ldr	r3, [fp, #-32]
200112c4:	e3e0203f 	mvn	r2, #63	; 0x3f
200112c8:	e1a03103 	lsl	r3, r3, #2
200112cc:	e24b000c 	sub	r0, fp, #12	; 0xc
200112d0:	e0803003 	add	r3, r0, r3
200112d4:	e0833002 	add	r3, r3, r2
200112d8:	e5933000 	ldr	r3, [r3]
200112dc:	e1a00003 	mov	r0, r3
200112e0:	ebfffc8a 	bl	20010510 <strlen>
200112e4:	e1a03000 	mov	r3, r0
200112e8:	e50b3010 	str	r3, [fp, #-16]
200112ec:	e51b1010 	ldr	r1, [fp, #-16]
200112f0:	e59f3308 	ldr	r3, [pc, #776]	; 20011600 <ctime+0x3f8>
200112f4:	e51b00a4 	ldr	r0, [fp, #-164]
200112f8:	e7902003 	ldr	r2, [r0, r3]
200112fc:	e3a03020 	mov	r3, #32	; 0x20
20011300:	e7c23001 	strb	r3, [r2, r1]
20011304:	e51b3010 	ldr	r3, [fp, #-16]
20011308:	e2833001 	add	r3, r3, #1	; 0x1
2001130c:	e50b3010 	str	r3, [fp, #-16]
20011310:	e51b2010 	ldr	r2, [fp, #-16]
20011314:	e59f32e4 	ldr	r3, [pc, #740]	; 20011600 <ctime+0x3f8>
20011318:	e51b10a4 	ldr	r1, [fp, #-164]
2001131c:	e7913003 	ldr	r3, [r1, r3]
20011320:	e0821003 	add	r1, r2, r3
20011324:	e51b3028 	ldr	r3, [fp, #-40]
20011328:	e3e0208f 	mvn	r2, #143	; 0x8f
2001132c:	e1a03103 	lsl	r3, r3, #2
20011330:	e24b000c 	sub	r0, fp, #12	; 0xc
20011334:	e0803003 	add	r3, r0, r3
20011338:	e0833002 	add	r3, r3, r2
2001133c:	e5933000 	ldr	r3, [r3]
20011340:	e1a00001 	mov	r0, r1
20011344:	e1a01003 	mov	r1, r3
20011348:	ebfffb6e 	bl	20010108 <strcpy>
2001134c:	e51b3028 	ldr	r3, [fp, #-40]
20011350:	e3e0208f 	mvn	r2, #143	; 0x8f
20011354:	e1a03103 	lsl	r3, r3, #2
20011358:	e24b100c 	sub	r1, fp, #12	; 0xc
2001135c:	e0813003 	add	r3, r1, r3
20011360:	e0833002 	add	r3, r3, r2
20011364:	e5933000 	ldr	r3, [r3]
20011368:	e1a00003 	mov	r0, r3
2001136c:	ebfffc67 	bl	20010510 <strlen>
20011370:	e1a02000 	mov	r2, r0
20011374:	e51b3010 	ldr	r3, [fp, #-16]
20011378:	e0823003 	add	r3, r2, r3
2001137c:	e50b3010 	str	r3, [fp, #-16]
20011380:	e51b1010 	ldr	r1, [fp, #-16]
20011384:	e59f3274 	ldr	r3, [pc, #628]	; 20011600 <ctime+0x3f8>
20011388:	e51b00a4 	ldr	r0, [fp, #-164]
2001138c:	e7902003 	ldr	r2, [r0, r3]
20011390:	e3a03020 	mov	r3, #32	; 0x20
20011394:	e7c23001 	strb	r3, [r2, r1]
20011398:	e51b3010 	ldr	r3, [fp, #-16]
2001139c:	e2833001 	add	r3, r3, #1	; 0x1
200113a0:	e50b3010 	str	r3, [fp, #-16]
200113a4:	e51b3024 	ldr	r3, [fp, #-36]
200113a8:	e1a01003 	mov	r1, r3
200113ac:	e51b2010 	ldr	r2, [fp, #-16]
200113b0:	e59f3248 	ldr	r3, [pc, #584]	; 20011600 <ctime+0x3f8>
200113b4:	e51b00a4 	ldr	r0, [fp, #-164]
200113b8:	e7903003 	ldr	r3, [r0, r3]
200113bc:	e0823003 	add	r3, r2, r3
200113c0:	e1a00001 	mov	r0, r1
200113c4:	e1a01003 	mov	r1, r3
200113c8:	ebfff857 	bl	2000f52c <itoa16>
200113cc:	e51b3024 	ldr	r3, [fp, #-36]
200113d0:	e20330f0 	and	r3, r3, #240	; 0xf0
200113d4:	e3530000 	cmp	r3, #0	; 0x0
200113d8:	0a000003 	beq	200113ec <ctime+0x1e4>
200113dc:	e51b3010 	ldr	r3, [fp, #-16]
200113e0:	e2833002 	add	r3, r3, #2	; 0x2
200113e4:	e50b3010 	str	r3, [fp, #-16]
200113e8:	ea000002 	b	200113f8 <ctime+0x1f0>
200113ec:	e51b3010 	ldr	r3, [fp, #-16]
200113f0:	e2833001 	add	r3, r3, #1	; 0x1
200113f4:	e50b3010 	str	r3, [fp, #-16]
200113f8:	e51b1010 	ldr	r1, [fp, #-16]
200113fc:	e59f31fc 	ldr	r3, [pc, #508]	; 20011600 <ctime+0x3f8>
20011400:	e51b00a4 	ldr	r0, [fp, #-164]
20011404:	e7902003 	ldr	r2, [r0, r3]
20011408:	e3a03020 	mov	r3, #32	; 0x20
2001140c:	e7c23001 	strb	r3, [r2, r1]
20011410:	e51b3010 	ldr	r3, [fp, #-16]
20011414:	e2833001 	add	r3, r3, #1	; 0x1
20011418:	e50b3010 	str	r3, [fp, #-16]
2001141c:	e51b301c 	ldr	r3, [fp, #-28]
20011420:	e1a01003 	mov	r1, r3
20011424:	e51b2010 	ldr	r2, [fp, #-16]
20011428:	e59f31d0 	ldr	r3, [pc, #464]	; 20011600 <ctime+0x3f8>
2001142c:	e51b00a4 	ldr	r0, [fp, #-164]
20011430:	e7903003 	ldr	r3, [r0, r3]
20011434:	e0823003 	add	r3, r2, r3
20011438:	e1a00001 	mov	r0, r1
2001143c:	e1a01003 	mov	r1, r3
20011440:	ebfff839 	bl	2000f52c <itoa16>
20011444:	e51b301c 	ldr	r3, [fp, #-28]
20011448:	e20330f0 	and	r3, r3, #240	; 0xf0
2001144c:	e3530000 	cmp	r3, #0	; 0x0
20011450:	0a000003 	beq	20011464 <ctime+0x25c>
20011454:	e51b3010 	ldr	r3, [fp, #-16]
20011458:	e2833002 	add	r3, r3, #2	; 0x2
2001145c:	e50b3010 	str	r3, [fp, #-16]
20011460:	ea000002 	b	20011470 <ctime+0x268>
20011464:	e51b3010 	ldr	r3, [fp, #-16]
20011468:	e2833001 	add	r3, r3, #1	; 0x1
2001146c:	e50b3010 	str	r3, [fp, #-16]
20011470:	e51b1010 	ldr	r1, [fp, #-16]
20011474:	e59f3184 	ldr	r3, [pc, #388]	; 20011600 <ctime+0x3f8>
20011478:	e51b00a4 	ldr	r0, [fp, #-164]
2001147c:	e7902003 	ldr	r2, [r0, r3]
20011480:	e3a0303a 	mov	r3, #58	; 0x3a
20011484:	e7c23001 	strb	r3, [r2, r1]
20011488:	e51b3010 	ldr	r3, [fp, #-16]
2001148c:	e2833001 	add	r3, r3, #1	; 0x1
20011490:	e50b3010 	str	r3, [fp, #-16]
20011494:	e51b3018 	ldr	r3, [fp, #-24]
20011498:	e1a01003 	mov	r1, r3
2001149c:	e51b2010 	ldr	r2, [fp, #-16]
200114a0:	e59f3158 	ldr	r3, [pc, #344]	; 20011600 <ctime+0x3f8>
200114a4:	e51b00a4 	ldr	r0, [fp, #-164]
200114a8:	e7903003 	ldr	r3, [r0, r3]
200114ac:	e0823003 	add	r3, r2, r3
200114b0:	e1a00001 	mov	r0, r1
200114b4:	e1a01003 	mov	r1, r3
200114b8:	ebfff81b 	bl	2000f52c <itoa16>
200114bc:	e51b3018 	ldr	r3, [fp, #-24]
200114c0:	e20330f0 	and	r3, r3, #240	; 0xf0
200114c4:	e3530000 	cmp	r3, #0	; 0x0
200114c8:	0a000003 	beq	200114dc <ctime+0x2d4>
200114cc:	e51b3010 	ldr	r3, [fp, #-16]
200114d0:	e2833002 	add	r3, r3, #2	; 0x2
200114d4:	e50b3010 	str	r3, [fp, #-16]
200114d8:	ea000002 	b	200114e8 <ctime+0x2e0>
200114dc:	e51b3010 	ldr	r3, [fp, #-16]
200114e0:	e2833001 	add	r3, r3, #1	; 0x1
200114e4:	e50b3010 	str	r3, [fp, #-16]
200114e8:	e51b1010 	ldr	r1, [fp, #-16]
200114ec:	e59f310c 	ldr	r3, [pc, #268]	; 20011600 <ctime+0x3f8>
200114f0:	e51b00a4 	ldr	r0, [fp, #-164]
200114f4:	e7902003 	ldr	r2, [r0, r3]
200114f8:	e3a0303a 	mov	r3, #58	; 0x3a
200114fc:	e7c23001 	strb	r3, [r2, r1]
20011500:	e51b3010 	ldr	r3, [fp, #-16]
20011504:	e2833001 	add	r3, r3, #1	; 0x1
20011508:	e50b3010 	str	r3, [fp, #-16]
2001150c:	e51b3014 	ldr	r3, [fp, #-20]
20011510:	e1a01003 	mov	r1, r3
20011514:	e51b2010 	ldr	r2, [fp, #-16]
20011518:	e59f30e0 	ldr	r3, [pc, #224]	; 20011600 <ctime+0x3f8>
2001151c:	e51b00a4 	ldr	r0, [fp, #-164]
20011520:	e7903003 	ldr	r3, [r0, r3]
20011524:	e0823003 	add	r3, r2, r3
20011528:	e1a00001 	mov	r0, r1
2001152c:	e1a01003 	mov	r1, r3
20011530:	ebfff7fd 	bl	2000f52c <itoa16>
20011534:	e51b3014 	ldr	r3, [fp, #-20]
20011538:	e20330f0 	and	r3, r3, #240	; 0xf0
2001153c:	e3530000 	cmp	r3, #0	; 0x0
20011540:	0a000003 	beq	20011554 <ctime+0x34c>
20011544:	e51b3010 	ldr	r3, [fp, #-16]
20011548:	e2833002 	add	r3, r3, #2	; 0x2
2001154c:	e50b3010 	str	r3, [fp, #-16]
20011550:	ea000002 	b	20011560 <ctime+0x358>
20011554:	e51b3010 	ldr	r3, [fp, #-16]
20011558:	e2833001 	add	r3, r3, #1	; 0x1
2001155c:	e50b3010 	str	r3, [fp, #-16]
20011560:	e51b1010 	ldr	r1, [fp, #-16]
20011564:	e59f3094 	ldr	r3, [pc, #148]	; 20011600 <ctime+0x3f8>
20011568:	e51b00a4 	ldr	r0, [fp, #-164]
2001156c:	e7902003 	ldr	r2, [r0, r3]
20011570:	e3a03020 	mov	r3, #32	; 0x20
20011574:	e7c23001 	strb	r3, [r2, r1]
20011578:	e51b3010 	ldr	r3, [fp, #-16]
2001157c:	e2833001 	add	r3, r3, #1	; 0x1
20011580:	e50b3010 	str	r3, [fp, #-16]
20011584:	e51b302c 	ldr	r3, [fp, #-44]
20011588:	e1a01003 	mov	r1, r3
2001158c:	e51b2010 	ldr	r2, [fp, #-16]
20011590:	e59f3068 	ldr	r3, [pc, #104]	; 20011600 <ctime+0x3f8>
20011594:	e51b00a4 	ldr	r0, [fp, #-164]
20011598:	e7903003 	ldr	r3, [r0, r3]
2001159c:	e0823003 	add	r3, r2, r3
200115a0:	e1a00001 	mov	r0, r1
200115a4:	e1a01003 	mov	r1, r3
200115a8:	ebfff7df 	bl	2000f52c <itoa16>
200115ac:	e51b3010 	ldr	r3, [fp, #-16]
200115b0:	e2833004 	add	r3, r3, #4	; 0x4
200115b4:	e50b3010 	str	r3, [fp, #-16]
200115b8:	e51b3010 	ldr	r3, [fp, #-16]
200115bc:	e2833001 	add	r3, r3, #1	; 0x1
200115c0:	e50b3010 	str	r3, [fp, #-16]
200115c4:	e51b1010 	ldr	r1, [fp, #-16]
200115c8:	e59f3030 	ldr	r3, [pc, #48]	; 20011600 <ctime+0x3f8>
200115cc:	e51b00a4 	ldr	r0, [fp, #-164]
200115d0:	e7902003 	ldr	r2, [r0, r3]
200115d4:	e3a03000 	mov	r3, #0	; 0x0
200115d8:	e7c23001 	strb	r3, [r2, r1]
200115dc:	e59f301c 	ldr	r3, [pc, #28]	; 20011600 <ctime+0x3f8>
200115e0:	e51b10a4 	ldr	r1, [fp, #-164]
200115e4:	e7913003 	ldr	r3, [r1, r3]
200115e8:	e1a00003 	mov	r0, r3
200115ec:	e24bd00c 	sub	sp, fp, #12	; 0xc
200115f0:	e89da800 	ldm	sp, {fp, sp, pc}
200115f4:	0000235c 	.word	0x0000235c
200115f8:	ffffffe0 	.word	0xffffffe0
200115fc:	ffffff90 	.word	0xffffff90
20011600:	000000a0 	.word	0x000000a0

20011604 <mk_time>:
20011604:	e1a0c00d 	mov	ip, sp
20011608:	e92dd800 	push	{fp, ip, lr, pc}
2001160c:	e24cb004 	sub	fp, ip, #4	; 0x4
20011610:	e24dd010 	sub	sp, sp, #16	; 0x10
20011614:	e50b0018 	str	r0, [fp, #-24]
20011618:	e51b3018 	ldr	r3, [fp, #-24]
2001161c:	e50b3010 	str	r3, [fp, #-16]
20011620:	e51b0010 	ldr	r0, [fp, #-16]
20011624:	ebfff073 	bl	2000d7f8 <vh_settime>
20011628:	e3a03000 	mov	r3, #0	; 0x0
2001162c:	e1a00003 	mov	r0, r3
20011630:	e24bd00c 	sub	sp, fp, #12	; 0xc
20011634:	e89da800 	ldm	sp, {fp, sp, pc}

20011638 <sleep>:
20011638:	e1a0c00d 	mov	ip, sp
2001163c:	e92dd800 	push	{fp, ip, lr, pc}
20011640:	e24cb004 	sub	fp, ip, #4	; 0x4
20011644:	e24dd010 	sub	sp, sp, #16	; 0x10
20011648:	e59f1120 	ldr	r1, [pc, #288]	; 20011770 <sleep+0x138>
2001164c:	e08f1001 	add	r1, pc, r1
20011650:	e50b0018 	str	r0, [fp, #-24]
20011654:	e51b3018 	ldr	r3, [fp, #-24]
20011658:	e50b3010 	str	r3, [fp, #-16]
2001165c:	e59f3110 	ldr	r3, [pc, #272]	; 20011774 <sleep+0x13c>
20011660:	e7913003 	ldr	r3, [r1, r3]
20011664:	e5933000 	ldr	r3, [r3]
20011668:	e5932004 	ldr	r2, [r3, #4]
2001166c:	e59f3104 	ldr	r3, [pc, #260]	; 20011778 <sleep+0x140>
20011670:	e7910003 	ldr	r0, [r1, r3]
20011674:	e3a0c004 	mov	ip, #4	; 0x4
20011678:	e1a03002 	mov	r3, r2
2001167c:	e1a02103 	lsl	r2, r3, #2
20011680:	e1a03102 	lsl	r3, r2, #2
20011684:	e0623003 	rsb	r3, r2, r3
20011688:	e0803003 	add	r3, r0, r3
2001168c:	e083200c 	add	r2, r3, ip
20011690:	e3a03002 	mov	r3, #2	; 0x2
20011694:	e5823000 	str	r3, [r2]
20011698:	e59f30d4 	ldr	r3, [pc, #212]	; 20011774 <sleep+0x13c>
2001169c:	e7913003 	ldr	r3, [r1, r3]
200116a0:	e5933000 	ldr	r3, [r3]
200116a4:	e5932004 	ldr	r2, [r3, #4]
200116a8:	e51bc010 	ldr	ip, [fp, #-16]
200116ac:	e59f30c4 	ldr	r3, [pc, #196]	; 20011778 <sleep+0x140>
200116b0:	e7910003 	ldr	r0, [r1, r3]
200116b4:	e1a03002 	mov	r3, r2
200116b8:	e1a02103 	lsl	r2, r3, #2
200116bc:	e1a03102 	lsl	r3, r2, #2
200116c0:	e0623003 	rsb	r3, r2, r3
200116c4:	e0803003 	add	r3, r0, r3
200116c8:	e583c000 	str	ip, [r3]
200116cc:	e59f30a0 	ldr	r3, [pc, #160]	; 20011774 <sleep+0x13c>
200116d0:	e7913003 	ldr	r3, [r1, r3]
200116d4:	e5933000 	ldr	r3, [r3]
200116d8:	e5932004 	ldr	r2, [r3, #4]
200116dc:	e59f3090 	ldr	r3, [pc, #144]	; 20011774 <sleep+0x13c>
200116e0:	e7913003 	ldr	r3, [r1, r3]
200116e4:	e5930000 	ldr	r0, [r3]
200116e8:	e59f3088 	ldr	r3, [pc, #136]	; 20011778 <sleep+0x140>
200116ec:	e791c003 	ldr	ip, [r1, r3]
200116f0:	e3a0e008 	mov	lr, #8	; 0x8
200116f4:	e1a03002 	mov	r3, r2
200116f8:	e1a02103 	lsl	r2, r3, #2
200116fc:	e1a03102 	lsl	r3, r2, #2
20011700:	e0623003 	rsb	r3, r2, r3
20011704:	e08c3003 	add	r3, ip, r3
20011708:	e083300e 	add	r3, r3, lr
2001170c:	e5830000 	str	r0, [r3]
20011710:	e59f3064 	ldr	r3, [pc, #100]	; 2001177c <sleep+0x144>
20011714:	e7913003 	ldr	r3, [r1, r3]
20011718:	e5933000 	ldr	r3, [r3]
2001171c:	e2832001 	add	r2, r3, #1	; 0x1
20011720:	e59f3054 	ldr	r3, [pc, #84]	; 2001177c <sleep+0x144>
20011724:	e7913003 	ldr	r3, [r1, r3]
20011728:	e5832000 	str	r2, [r3]
2001172c:	e59f3040 	ldr	r3, [pc, #64]	; 20011774 <sleep+0x13c>
20011730:	e7913003 	ldr	r3, [r1, r3]
20011734:	e5932000 	ldr	r2, [r3]
20011738:	e3a03002 	mov	r3, #2	; 0x2
2001173c:	e5823000 	str	r3, [r2]
20011740:	e59f302c 	ldr	r3, [pc, #44]	; 20011774 <sleep+0x13c>
20011744:	e7913003 	ldr	r3, [r1, r3]
20011748:	e5933000 	ldr	r3, [r3]
2001174c:	e1a00003 	mov	r0, r3
20011750:	e59f3028 	ldr	r3, [pc, #40]	; 20011780 <sleep+0x148>
20011754:	e7913003 	ldr	r3, [r1, r3]
20011758:	e1a01003 	mov	r1, r3
2001175c:	ebffeed6 	bl	2000d2bc <vk_thread_dequeue>
20011760:	ebfff20a 	bl	2000df90 <vk_scheduler_unlock>
20011764:	ebffe016 	bl	200097c4 <vk_swi_scheduler>
20011768:	e24bd00c 	sub	sp, fp, #12	; 0xc
2001176c:	e89da800 	ldm	sp, {fp, sp, pc}
20011770:	00001f34 	.word	0x00001f34
20011774:	000000ac 	.word	0x000000ac
20011778:	00000008 	.word	0x00000008
2001177c:	00000030 	.word	0x00000030
20011780:	0000007c 	.word	0x0000007c

20011784 <vk_timer_irq_enable>:
20011784:	e1a0c00d 	mov	ip, sp
20011788:	e92dd800 	push	{fp, ip, lr, pc}
2001178c:	e24cb004 	sub	fp, ip, #4	; 0x4
20011790:	e89da800 	ldm	sp, {fp, sp, pc}

20011794 <vk_timer_irq_disable>:
20011794:	e1a0c00d 	mov	ip, sp
20011798:	e92dd800 	push	{fp, ip, lr, pc}
2001179c:	e24cb004 	sub	fp, ip, #4	; 0x4
200117a0:	e89da800 	ldm	sp, {fp, sp, pc}

200117a4 <vh_timer_init>:
200117a4:	e1a0c00d 	mov	ip, sp
200117a8:	e92dd800 	push	{fp, ip, lr, pc}
200117ac:	e24cb004 	sub	fp, ip, #4	; 0x4
200117b0:	e3a024ea 	mov	r2, #-369098752	; 0xea000000
200117b4:	e3a03c83 	mov	r3, #33536	; 0x8300
200117b8:	e5823000 	str	r3, [r2]
200117bc:	e59f2014 	ldr	r2, [pc, #20]	; 200117d8 <vh_timer_init+0x34>
200117c0:	e3a03901 	mov	r3, #16384	; 0x4000
200117c4:	e5823000 	str	r3, [r2]
200117c8:	e59f200c 	ldr	r2, [pc, #12]	; 200117dc <vh_timer_init+0x38>
200117cc:	e59f300c 	ldr	r3, [pc, #12]	; 200117e0 <vh_timer_init+0x3c>
200117d0:	e5823000 	str	r3, [r2]
200117d4:	e89da800 	ldm	sp, {fp, sp, pc}
200117d8:	ea000004 	.word	0xea000004
200117dc:	ea00003c 	.word	0xea00003c
200117e0:	00007a12 	.word	0x00007a12

200117e4 <vh_timer_irq_enable>:
200117e4:	e1a0c00d 	mov	ip, sp
200117e8:	e92dd800 	push	{fp, ip, lr, pc}
200117ec:	e24cb004 	sub	fp, ip, #4	; 0x4
200117f0:	e24dd008 	sub	sp, sp, #8	; 0x8
200117f4:	e59f1050 	ldr	r1, [pc, #80]	; 2001184c <vh_timer_irq_enable+0x68>
200117f8:	e50b1014 	str	r1, [fp, #-20]
200117fc:	e51b3014 	ldr	r3, [fp, #-20]
20011800:	e08f3003 	add	r3, pc, r3
20011804:	e50b3014 	str	r3, [fp, #-20]
20011808:	e50b0010 	str	r0, [fp, #-16]
2001180c:	e51b3010 	ldr	r3, [fp, #-16]
20011810:	e3530004 	cmp	r3, #4	; 0x4
20011814:	908ff103 	addls	pc, pc, r3, lsl #2
20011818:	ea000009 	b	20011844 <vh_timer_irq_enable+0x60>
2001181c:	ea000008 	b	20011844 <vh_timer_irq_enable+0x60>
20011820:	ea000007 	b	20011844 <vh_timer_irq_enable+0x60>
20011824:	ea000006 	b	20011844 <vh_timer_irq_enable+0x60>
20011828:	ea000005 	b	20011844 <vh_timer_irq_enable+0x60>
2001182c:	eaffffff 	b	20011830 <vh_timer_irq_enable+0x4c>
20011830:	e59f2018 	ldr	r2, [pc, #24]	; 20011850 <vh_timer_irq_enable+0x6c>
20011834:	e59f3018 	ldr	r3, [pc, #24]	; 20011854 <vh_timer_irq_enable+0x70>
20011838:	e51b1014 	ldr	r1, [fp, #-20]
2001183c:	e7913003 	ldr	r3, [r1, r3]
20011840:	e5823000 	str	r3, [r2]
20011844:	e24bd00c 	sub	sp, fp, #12	; 0xc
20011848:	e89da800 	ldm	sp, {fp, sp, pc}
2001184c:	00001d80 	.word	0x00001d80
20011850:	e4000164 	.word	0xe4000164
20011854:	00000004 	.word	0x00000004

20011858 <vh_timer_interrupt_handler>:
20011858:	e1a0c00d 	mov	ip, sp
2001185c:	e92dd830 	push	{r4, r5, fp, ip, lr, pc}
20011860:	e24cb004 	sub	fp, ip, #4	; 0x4
20011864:	e59f40a8 	ldr	r4, [pc, #168]	; 20011914 <vh_timer_interrupt_handler+0xbc>
20011868:	e08f4004 	add	r4, pc, r4
2001186c:	ebffffc8 	bl	20011794 <vk_timer_irq_disable>
20011870:	e59f30a0 	ldr	r3, [pc, #160]	; 20011918 <vh_timer_interrupt_handler+0xc0>
20011874:	e7943003 	ldr	r3, [r4, r3]
20011878:	e1a00003 	mov	r0, r3
2001187c:	ebffda85 	bl	20008298 <vh_save_thread_ctx>
20011880:	e59fc094 	ldr	ip, [pc, #148]	; 2001191c <vh_timer_interrupt_handler+0xc4>
20011884:	e59f3090 	ldr	r3, [pc, #144]	; 2001191c <vh_timer_interrupt_handler+0xc4>
20011888:	e5935000 	ldr	r5, [r3]
2001188c:	e59f108c 	ldr	r1, [pc, #140]	; 20011920 <vh_timer_interrupt_handler+0xc8>
20011890:	e59f3088 	ldr	r3, [pc, #136]	; 20011920 <vh_timer_interrupt_handler+0xc8>
20011894:	e5930000 	ldr	r0, [r3]
20011898:	e59f3078 	ldr	r3, [pc, #120]	; 20011918 <vh_timer_interrupt_handler+0xc0>
2001189c:	e7943003 	ldr	r3, [r4, r3]
200118a0:	e1a02003 	mov	r2, r3
200118a4:	e59f3078 	ldr	r3, [pc, #120]	; 20011924 <vh_timer_interrupt_handler+0xcc>
200118a8:	e7943003 	ldr	r3, [r4, r3]
200118ac:	e5832000 	str	r2, [r3]
200118b0:	e59f306c 	ldr	r3, [pc, #108]	; 20011924 <vh_timer_interrupt_handler+0xcc>
200118b4:	e7943003 	ldr	r3, [r4, r3]
200118b8:	e5933000 	ldr	r3, [r3]
200118bc:	e1803003 	orr	r3, r0, r3
200118c0:	e5813000 	str	r3, [r1]
200118c4:	e5913000 	ldr	r3, [r1]
200118c8:	e1853003 	orr	r3, r5, r3
200118cc:	e58c3000 	str	r3, [ip]
200118d0:	e59f3050 	ldr	r3, [pc, #80]	; 20011928 <vh_timer_interrupt_handler+0xd0>
200118d4:	e7942003 	ldr	r2, [r4, r3]
200118d8:	e3a03001 	mov	r3, #1	; 0x1
200118dc:	e5823000 	str	r3, [r2]
200118e0:	e59f3044 	ldr	r3, [pc, #68]	; 2001192c <vh_timer_interrupt_handler+0xd4>
200118e4:	e7943003 	ldr	r3, [r4, r3]
200118e8:	e5932000 	ldr	r2, [r3]
200118ec:	e5923030 	ldr	r3, [r2, #48]
200118f0:	e2833001 	add	r3, r3, #1	; 0x1
200118f4:	e5823030 	str	r3, [r2, #48]
200118f8:	e59f3030 	ldr	r3, [pc, #48]	; 20011930 <vh_timer_interrupt_handler+0xd8>
200118fc:	e7943003 	ldr	r3, [r4, r3]
20011900:	e5933000 	ldr	r3, [r3]
20011904:	e3530000 	cmp	r3, #0	; 0x0
20011908:	1a000000 	bne	20011910 <vh_timer_interrupt_handler+0xb8>
2001190c:	ebffdfac 	bl	200097c4 <vk_swi_scheduler>
20011910:	e89da830 	ldm	sp, {r4, r5, fp, sp, pc}
20011914:	00001d18 	.word	0x00001d18
20011918:	0000009c 	.word	0x0000009c
2001191c:	e4000014 	.word	0xe4000014
20011920:	e4000010 	.word	0xe4000010
20011924:	00000018 	.word	0x00000018
20011928:	00000084 	.word	0x00000084
2001192c:	000000ac 	.word	0x000000ac
20011930:	0000003c 	.word	0x0000003c

20011934 <thread>:
20011934:	e1a0c00d 	mov	ip, sp
20011938:	e92dd800 	push	{fp, ip, lr, pc}
2001193c:	e24cb004 	sub	fp, ip, #4	; 0x4
20011940:	e24dd018 	sub	sp, sp, #24	; 0x18
20011944:	e59f10a8 	ldr	r1, [pc, #168]	; 200119f4 <thread+0xc0>
20011948:	e50b1024 	str	r1, [fp, #-36]
2001194c:	e51b2024 	ldr	r2, [fp, #-36]
20011950:	e08f2002 	add	r2, pc, r2
20011954:	e50b2024 	str	r2, [fp, #-36]
20011958:	e50b0020 	str	r0, [fp, #-32]
2001195c:	e3a03000 	mov	r3, #0	; 0x0
20011960:	e50b3010 	str	r3, [fp, #-16]
20011964:	ebffe185 	bl	20009f80 <vh_LedInit>
20011968:	e24b3018 	sub	r3, fp, #24	; 0x18
2001196c:	e1a00003 	mov	r0, r3
20011970:	e3a01000 	mov	r1, #0	; 0x0
20011974:	e59f307c 	ldr	r3, [pc, #124]	; 200119f8 <thread+0xc4>
20011978:	e51b2024 	ldr	r2, [fp, #-36]
2001197c:	e7923003 	ldr	r3, [r2, r3]
20011980:	e1a02003 	mov	r2, r3
20011984:	e3a03000 	mov	r3, #0	; 0x0
20011988:	ebfffc90 	bl	20010bd0 <pthread_create>
2001198c:	e51b3010 	ldr	r3, [fp, #-16]
20011990:	e2833001 	add	r3, r3, #1	; 0x1
20011994:	e50b3010 	str	r3, [fp, #-16]
20011998:	e51b2010 	ldr	r2, [fp, #-16]
2001199c:	e59f3058 	ldr	r3, [pc, #88]	; 200119fc <thread+0xc8>
200119a0:	e1520003 	cmp	r2, r3
200119a4:	1afffff8 	bne	2001198c <thread+0x58>
200119a8:	ebffd9dc 	bl	20008120 <vt_read>
200119ac:	e1a02000 	mov	r2, r0
200119b0:	e59f3048 	ldr	r3, [pc, #72]	; 20011a00 <thread+0xcc>
200119b4:	e51b1024 	ldr	r1, [fp, #-36]
200119b8:	e0813003 	add	r3, r1, r3
200119bc:	e1a00003 	mov	r0, r3
200119c0:	e1a01002 	mov	r1, r2
200119c4:	ebffec4c 	bl	2000cafc <printk>
200119c8:	ebffd9d2 	bl	20008118 <vt_read_sp>
200119cc:	e1a02000 	mov	r2, r0
200119d0:	e59f302c 	ldr	r3, [pc, #44]	; 20011a04 <thread+0xd0>
200119d4:	e51b1024 	ldr	r1, [fp, #-36]
200119d8:	e0813003 	add	r3, r1, r3
200119dc:	e1a00003 	mov	r0, r3
200119e0:	e1a01002 	mov	r1, r2
200119e4:	ebffec44 	bl	2000cafc <printk>
200119e8:	e3a03000 	mov	r3, #0	; 0x0
200119ec:	e50b3010 	str	r3, [fp, #-16]
200119f0:	eaffffe5 	b	2001198c <thread+0x58>
200119f4:	00001c30 	.word	0x00001c30
200119f8:	0000001c 	.word	0x0000001c
200119fc:	004c4b40 	.word	0x004c4b40
20011a00:	fffffc14 	.word	0xfffffc14
20011a04:	fffffc28 	.word	0xfffffc28

20011a08 <thread2>:
20011a08:	e1a0c00d 	mov	ip, sp
20011a0c:	e92dd800 	push	{fp, ip, lr, pc}
20011a10:	e24cb004 	sub	fp, ip, #4	; 0x4
20011a14:	e24dd010 	sub	sp, sp, #16	; 0x10
20011a18:	e59f1080 	ldr	r1, [pc, #128]	; 20011aa0 <thread2+0x98>
20011a1c:	e50b101c 	str	r1, [fp, #-28]
20011a20:	e51b301c 	ldr	r3, [fp, #-28]
20011a24:	e08f3003 	add	r3, pc, r3
20011a28:	e50b301c 	str	r3, [fp, #-28]
20011a2c:	e50b0018 	str	r0, [fp, #-24]
20011a30:	e3a03000 	mov	r3, #0	; 0x0
20011a34:	e50b3010 	str	r3, [fp, #-16]
20011a38:	e51b3010 	ldr	r3, [fp, #-16]
20011a3c:	e2833001 	add	r3, r3, #1	; 0x1
20011a40:	e50b3010 	str	r3, [fp, #-16]
20011a44:	e51b2010 	ldr	r2, [fp, #-16]
20011a48:	e59f3054 	ldr	r3, [pc, #84]	; 20011aa4 <thread2+0x9c>
20011a4c:	e1520003 	cmp	r2, r3
20011a50:	1afffff8 	bne	20011a38 <thread2+0x30>
20011a54:	ebffd9b1 	bl	20008120 <vt_read>
20011a58:	e1a02000 	mov	r2, r0
20011a5c:	e59f3044 	ldr	r3, [pc, #68]	; 20011aa8 <thread2+0xa0>
20011a60:	e51b101c 	ldr	r1, [fp, #-28]
20011a64:	e0813003 	add	r3, r1, r3
20011a68:	e1a00003 	mov	r0, r3
20011a6c:	e1a01002 	mov	r1, r2
20011a70:	ebffec21 	bl	2000cafc <printk>
20011a74:	ebffd9a7 	bl	20008118 <vt_read_sp>
20011a78:	e1a02000 	mov	r2, r0
20011a7c:	e59f3028 	ldr	r3, [pc, #40]	; 20011aac <thread2+0xa4>
20011a80:	e51b101c 	ldr	r1, [fp, #-28]
20011a84:	e0813003 	add	r3, r1, r3
20011a88:	e1a00003 	mov	r0, r3
20011a8c:	e1a01002 	mov	r1, r2
20011a90:	ebffec19 	bl	2000cafc <printk>
20011a94:	e3a03000 	mov	r3, #0	; 0x0
20011a98:	e50b3010 	str	r3, [fp, #-16]
20011a9c:	eaffffe5 	b	20011a38 <thread2+0x30>
20011aa0:	00001b5c 	.word	0x00001b5c
20011aa4:	004c4b40 	.word	0x004c4b40
20011aa8:	fffffc3c 	.word	0xfffffc3c
20011aac:	fffffc50 	.word	0xfffffc50

20011ab0 <thread3>:
20011ab0:	e1a0c00d 	mov	ip, sp
20011ab4:	e92dd800 	push	{fp, ip, lr, pc}
20011ab8:	e24cb004 	sub	fp, ip, #4	; 0x4
20011abc:	e24dd020 	sub	sp, sp, #32	; 0x20
20011ac0:	e59f1100 	ldr	r1, [pc, #256]	; 20011bc8 <thread3+0x118>
20011ac4:	e50b1028 	str	r1, [fp, #-40]
20011ac8:	e51b2028 	ldr	r2, [fp, #-40]
20011acc:	e08f2002 	add	r2, pc, r2
20011ad0:	e50b2028 	str	r2, [fp, #-40]
20011ad4:	e50b0020 	str	r0, [fp, #-32]
20011ad8:	e3a03000 	mov	r3, #0	; 0x0
20011adc:	e50b3010 	str	r3, [fp, #-16]
20011ae0:	ebffe126 	bl	20009f80 <vh_LedInit>
20011ae4:	e24b3018 	sub	r3, fp, #24	; 0x18
20011ae8:	e1a00003 	mov	r0, r3
20011aec:	e3a01000 	mov	r1, #0	; 0x0
20011af0:	e59f30d4 	ldr	r3, [pc, #212]	; 20011bcc <thread3+0x11c>
20011af4:	e51b2028 	ldr	r2, [fp, #-40]
20011af8:	e7923003 	ldr	r3, [r2, r3]
20011afc:	e1a02003 	mov	r2, r3
20011b00:	e3a03000 	mov	r3, #0	; 0x0
20011b04:	ebfffc31 	bl	20010bd0 <pthread_create>
20011b08:	e51b3010 	ldr	r3, [fp, #-16]
20011b0c:	e2833001 	add	r3, r3, #1	; 0x1
20011b10:	e50b3010 	str	r3, [fp, #-16]
20011b14:	e51b1010 	ldr	r1, [fp, #-16]
20011b18:	e59f30b0 	ldr	r3, [pc, #176]	; 20011bd0 <thread3+0x120>
20011b1c:	e0c32391 	smull	r2, r3, r1, r3
20011b20:	e1a02943 	asr	r2, r3, #18
20011b24:	e1a03fc1 	asr	r3, r1, #31
20011b28:	e0633002 	rsb	r3, r3, r2
20011b2c:	e50b3024 	str	r3, [fp, #-36]
20011b30:	e51b3024 	ldr	r3, [fp, #-36]
20011b34:	e1a03183 	lsl	r3, r3, #3
20011b38:	e1a02283 	lsl	r2, r3, #5
20011b3c:	e0632002 	rsb	r2, r3, r2
20011b40:	e1a03302 	lsl	r3, r2, #6
20011b44:	e0623003 	rsb	r3, r2, r3
20011b48:	e51b2024 	ldr	r2, [fp, #-36]
20011b4c:	e0833002 	add	r3, r3, r2
20011b50:	e1a03303 	lsl	r3, r3, #6
20011b54:	e0633001 	rsb	r3, r3, r1
20011b58:	e50b3024 	str	r3, [fp, #-36]
20011b5c:	e51b3024 	ldr	r3, [fp, #-36]
20011b60:	e3530000 	cmp	r3, #0	; 0x0
20011b64:	1affffe7 	bne	20011b08 <thread3+0x58>
20011b68:	ebffd96c 	bl	20008120 <vt_read>
20011b6c:	e1a02000 	mov	r2, r0
20011b70:	e59f305c 	ldr	r3, [pc, #92]	; 20011bd4 <thread3+0x124>
20011b74:	e51b1028 	ldr	r1, [fp, #-40]
20011b78:	e0813003 	add	r3, r1, r3
20011b7c:	e1a00003 	mov	r0, r3
20011b80:	e1a01002 	mov	r1, r2
20011b84:	ebffebdc 	bl	2000cafc <printk>
20011b88:	ebffd962 	bl	20008118 <vt_read_sp>
20011b8c:	e1a02000 	mov	r2, r0
20011b90:	e59f3040 	ldr	r3, [pc, #64]	; 20011bd8 <thread3+0x128>
20011b94:	e51b1028 	ldr	r1, [fp, #-40]
20011b98:	e0813003 	add	r3, r1, r3
20011b9c:	e1a00003 	mov	r0, r3
20011ba0:	e1a01002 	mov	r1, r2
20011ba4:	ebffebd4 	bl	2000cafc <printk>
20011ba8:	e51b2010 	ldr	r2, [fp, #-16]
20011bac:	e59f3028 	ldr	r3, [pc, #40]	; 20011bdc <thread3+0x12c>
20011bb0:	e1520003 	cmp	r2, r3
20011bb4:	1affffd3 	bne	20011b08 <thread3+0x58>
20011bb8:	e3a03000 	mov	r3, #0	; 0x0
20011bbc:	e1a00003 	mov	r0, r3
20011bc0:	e24bd00c 	sub	sp, fp, #12	; 0xc
20011bc4:	e89da800 	ldm	sp, {fp, sp, pc}
20011bc8:	00001ab4 	.word	0x00001ab4
20011bcc:	00000048 	.word	0x00000048
20011bd0:	431bde83 	.word	0x431bde83
20011bd4:	fffffc14 	.word	0xfffffc14
20011bd8:	fffffc28 	.word	0xfffffc28
20011bdc:	004c4b40 	.word	0x004c4b40

20011be0 <thread4>:
20011be0:	e1a0c00d 	mov	ip, sp
20011be4:	e92dd800 	push	{fp, ip, lr, pc}
20011be8:	e24cb004 	sub	fp, ip, #4	; 0x4
20011bec:	e24dd018 	sub	sp, sp, #24	; 0x18
20011bf0:	e59f10d8 	ldr	r1, [pc, #216]	; 20011cd0 <thread4+0xf0>
20011bf4:	e50b1020 	str	r1, [fp, #-32]
20011bf8:	e51b2020 	ldr	r2, [fp, #-32]
20011bfc:	e08f2002 	add	r2, pc, r2
20011c00:	e50b2020 	str	r2, [fp, #-32]
20011c04:	e50b0018 	str	r0, [fp, #-24]
20011c08:	e3a03000 	mov	r3, #0	; 0x0
20011c0c:	e50b3010 	str	r3, [fp, #-16]
20011c10:	e51b3010 	ldr	r3, [fp, #-16]
20011c14:	e2833001 	add	r3, r3, #1	; 0x1
20011c18:	e50b3010 	str	r3, [fp, #-16]
20011c1c:	e51b1010 	ldr	r1, [fp, #-16]
20011c20:	e59f30ac 	ldr	r3, [pc, #172]	; 20011cd4 <thread4+0xf4>
20011c24:	e0c32391 	smull	r2, r3, r1, r3
20011c28:	e1a02943 	asr	r2, r3, #18
20011c2c:	e1a03fc1 	asr	r3, r1, #31
20011c30:	e0633002 	rsb	r3, r3, r2
20011c34:	e50b301c 	str	r3, [fp, #-28]
20011c38:	e51b301c 	ldr	r3, [fp, #-28]
20011c3c:	e1a03183 	lsl	r3, r3, #3
20011c40:	e1a02283 	lsl	r2, r3, #5
20011c44:	e0632002 	rsb	r2, r3, r2
20011c48:	e1a03302 	lsl	r3, r2, #6
20011c4c:	e0623003 	rsb	r3, r2, r3
20011c50:	e51b201c 	ldr	r2, [fp, #-28]
20011c54:	e0833002 	add	r3, r3, r2
20011c58:	e1a03303 	lsl	r3, r3, #6
20011c5c:	e0633001 	rsb	r3, r3, r1
20011c60:	e50b301c 	str	r3, [fp, #-28]
20011c64:	e51b301c 	ldr	r3, [fp, #-28]
20011c68:	e3530000 	cmp	r3, #0	; 0x0
20011c6c:	1affffe7 	bne	20011c10 <thread4+0x30>
20011c70:	ebffd92a 	bl	20008120 <vt_read>
20011c74:	e1a02000 	mov	r2, r0
20011c78:	e59f3058 	ldr	r3, [pc, #88]	; 20011cd8 <thread4+0xf8>
20011c7c:	e51b1020 	ldr	r1, [fp, #-32]
20011c80:	e0813003 	add	r3, r1, r3
20011c84:	e1a00003 	mov	r0, r3
20011c88:	e1a01002 	mov	r1, r2
20011c8c:	ebffeb9a 	bl	2000cafc <printk>
20011c90:	ebffd920 	bl	20008118 <vt_read_sp>
20011c94:	e1a02000 	mov	r2, r0
20011c98:	e59f303c 	ldr	r3, [pc, #60]	; 20011cdc <thread4+0xfc>
20011c9c:	e51b1020 	ldr	r1, [fp, #-32]
20011ca0:	e0813003 	add	r3, r1, r3
20011ca4:	e1a00003 	mov	r0, r3
20011ca8:	e1a01002 	mov	r1, r2
20011cac:	ebffeb92 	bl	2000cafc <printk>
20011cb0:	e51b2010 	ldr	r2, [fp, #-16]
20011cb4:	e59f3024 	ldr	r3, [pc, #36]	; 20011ce0 <thread4+0x100>
20011cb8:	e1520003 	cmp	r2, r3
20011cbc:	1affffd3 	bne	20011c10 <thread4+0x30>
20011cc0:	e3a03000 	mov	r3, #0	; 0x0
20011cc4:	e1a00003 	mov	r0, r3
20011cc8:	e24bd00c 	sub	sp, fp, #12	; 0xc
20011ccc:	e89da800 	ldm	sp, {fp, sp, pc}
20011cd0:	00001984 	.word	0x00001984
20011cd4:	431bde83 	.word	0x431bde83
20011cd8:	fffffc3c 	.word	0xfffffc3c
20011cdc:	fffffc50 	.word	0xfffffc50
20011ce0:	004c4b40 	.word	0x004c4b40

20011ce4 <vu_debug>:
20011ce4:	e1a0c00d 	mov	ip, sp
20011ce8:	e92dd800 	push	{fp, ip, lr, pc}
20011cec:	e24cb004 	sub	fp, ip, #4	; 0x4
20011cf0:	e24dd010 	sub	sp, sp, #16	; 0x10
20011cf4:	e59f1188 	ldr	r1, [pc, #392]	; 20011e84 <vu_debug+0x1a0>
20011cf8:	e50b101c 	str	r1, [fp, #-28]
20011cfc:	e51b201c 	ldr	r2, [fp, #-28]
20011d00:	e08f2002 	add	r2, pc, r2
20011d04:	e50b201c 	str	r2, [fp, #-28]
20011d08:	e50b0018 	str	r0, [fp, #-24]
20011d0c:	e59f3174 	ldr	r3, [pc, #372]	; 20011e88 <vu_debug+0x1a4>
20011d10:	e51b101c 	ldr	r1, [fp, #-28]
20011d14:	e7913003 	ldr	r3, [r1, r3]
20011d18:	e5932000 	ldr	r2, [r3]
20011d1c:	e59f3168 	ldr	r3, [pc, #360]	; 20011e8c <vu_debug+0x1a8>
20011d20:	e51b101c 	ldr	r1, [fp, #-28]
20011d24:	e0813003 	add	r3, r1, r3
20011d28:	e1a00003 	mov	r0, r3
20011d2c:	e1a01002 	mov	r1, r2
20011d30:	ebffeb9f 	bl	2000cbb4 <printf>
20011d34:	e59f3154 	ldr	r3, [pc, #340]	; 20011e90 <vu_debug+0x1ac>
20011d38:	e51b201c 	ldr	r2, [fp, #-28]
20011d3c:	e7923003 	ldr	r3, [r2, r3]
20011d40:	e5932000 	ldr	r2, [r3]
20011d44:	e59f3148 	ldr	r3, [pc, #328]	; 20011e94 <vu_debug+0x1b0>
20011d48:	e51b101c 	ldr	r1, [fp, #-28]
20011d4c:	e0813003 	add	r3, r1, r3
20011d50:	e1a00003 	mov	r0, r3
20011d54:	e1a01002 	mov	r1, r2
20011d58:	ebffeb95 	bl	2000cbb4 <printf>
20011d5c:	e59f3134 	ldr	r3, [pc, #308]	; 20011e98 <vu_debug+0x1b4>
20011d60:	e51b201c 	ldr	r2, [fp, #-28]
20011d64:	e7923003 	ldr	r3, [r2, r3]
20011d68:	e5932000 	ldr	r2, [r3]
20011d6c:	e59f3128 	ldr	r3, [pc, #296]	; 20011e9c <vu_debug+0x1b8>
20011d70:	e51b101c 	ldr	r1, [fp, #-28]
20011d74:	e0813003 	add	r3, r1, r3
20011d78:	e1a00003 	mov	r0, r3
20011d7c:	e1a01002 	mov	r1, r2
20011d80:	ebffeb8b 	bl	2000cbb4 <printf>
20011d84:	e59f3114 	ldr	r3, [pc, #276]	; 20011ea0 <vu_debug+0x1bc>
20011d88:	e51b201c 	ldr	r2, [fp, #-28]
20011d8c:	e7923003 	ldr	r3, [r2, r3]
20011d90:	e5932000 	ldr	r2, [r3]
20011d94:	e59f3108 	ldr	r3, [pc, #264]	; 20011ea4 <vu_debug+0x1c0>
20011d98:	e51b101c 	ldr	r1, [fp, #-28]
20011d9c:	e0813003 	add	r3, r1, r3
20011da0:	e1a00003 	mov	r0, r3
20011da4:	e1a01002 	mov	r1, r2
20011da8:	ebffeb81 	bl	2000cbb4 <printf>
20011dac:	e59f30f4 	ldr	r3, [pc, #244]	; 20011ea8 <vu_debug+0x1c4>
20011db0:	e51b201c 	ldr	r2, [fp, #-28]
20011db4:	e7923003 	ldr	r3, [r2, r3]
20011db8:	e5932000 	ldr	r2, [r3]
20011dbc:	e59f30e8 	ldr	r3, [pc, #232]	; 20011eac <vu_debug+0x1c8>
20011dc0:	e51b101c 	ldr	r1, [fp, #-28]
20011dc4:	e0813003 	add	r3, r1, r3
20011dc8:	e1a00003 	mov	r0, r3
20011dcc:	e1a01002 	mov	r1, r2
20011dd0:	ebffeb77 	bl	2000cbb4 <printf>
20011dd4:	e59f30d4 	ldr	r3, [pc, #212]	; 20011eb0 <vu_debug+0x1cc>
20011dd8:	e51b201c 	ldr	r2, [fp, #-28]
20011ddc:	e0823003 	add	r3, r2, r3
20011de0:	e1a00003 	mov	r0, r3
20011de4:	ebffeb72 	bl	2000cbb4 <printf>
20011de8:	e3a03000 	mov	r3, #0	; 0x0
20011dec:	e50b3010 	str	r3, [fp, #-16]
20011df0:	ea00000d 	b	20011e2c <vu_debug+0x148>
20011df4:	e51b2010 	ldr	r2, [fp, #-16]
20011df8:	e59f30b4 	ldr	r3, [pc, #180]	; 20011eb4 <vu_debug+0x1d0>
20011dfc:	e51b101c 	ldr	r1, [fp, #-28]
20011e00:	e7913003 	ldr	r3, [r1, r3]
20011e04:	e7932102 	ldr	r2, [r3, r2, lsl #2]
20011e08:	e59f30a8 	ldr	r3, [pc, #168]	; 20011eb8 <vu_debug+0x1d4>
20011e0c:	e51b101c 	ldr	r1, [fp, #-28]
20011e10:	e0813003 	add	r3, r1, r3
20011e14:	e1a00003 	mov	r0, r3
20011e18:	e51b1010 	ldr	r1, [fp, #-16]
20011e1c:	ebffeb64 	bl	2000cbb4 <printf>
20011e20:	e51b3010 	ldr	r3, [fp, #-16]
20011e24:	e2833001 	add	r3, r3, #1	; 0x1
20011e28:	e50b3010 	str	r3, [fp, #-16]
20011e2c:	e51b3010 	ldr	r3, [fp, #-16]
20011e30:	e353000e 	cmp	r3, #14	; 0xe
20011e34:	9affffee 	bls	20011df4 <vu_debug+0x110>
20011e38:	e59f307c 	ldr	r3, [pc, #124]	; 20011ebc <vu_debug+0x1d8>
20011e3c:	e51b201c 	ldr	r2, [fp, #-28]
20011e40:	e0823003 	add	r3, r2, r3
20011e44:	e1a00003 	mov	r0, r3
20011e48:	ebffeb59 	bl	2000cbb4 <printf>
20011e4c:	e59f306c 	ldr	r3, [pc, #108]	; 20011ec0 <vu_debug+0x1dc>
20011e50:	e51b101c 	ldr	r1, [fp, #-28]
20011e54:	e7913003 	ldr	r3, [r1, r3]
20011e58:	e5932000 	ldr	r2, [r3]
20011e5c:	e59f3060 	ldr	r3, [pc, #96]	; 20011ec4 <vu_debug+0x1e0>
20011e60:	e51b101c 	ldr	r1, [fp, #-28]
20011e64:	e0813003 	add	r3, r1, r3
20011e68:	e1a00003 	mov	r0, r3
20011e6c:	e1a01002 	mov	r1, r2
20011e70:	ebffeb4f 	bl	2000cbb4 <printf>
20011e74:	e3a03000 	mov	r3, #0	; 0x0
20011e78:	e1a00003 	mov	r0, r3
20011e7c:	e24bd00c 	sub	sp, fp, #12	; 0xc
20011e80:	e89da800 	ldm	sp, {fp, sp, pc}
20011e84:	00001880 	.word	0x00001880
20011e88:	000000bc 	.word	0x000000bc
20011e8c:	fffffc64 	.word	0xfffffc64
20011e90:	00000024 	.word	0x00000024
20011e94:	fffffc80 	.word	0xfffffc80
20011e98:	00000038 	.word	0x00000038
20011e9c:	fffffc94 	.word	0xfffffc94
20011ea0:	00000044 	.word	0x00000044
20011ea4:	fffffcb0 	.word	0xfffffcb0
20011ea8:	0000004c 	.word	0x0000004c
20011eac:	fffffccc 	.word	0xfffffccc
20011eb0:	fffffcec 	.word	0xfffffcec
20011eb4:	000000c8 	.word	0x000000c8
20011eb8:	fffffd0c 	.word	0xfffffd0c
20011ebc:	fffffd18 	.word	0xfffffd18
20011ec0:	00000054 	.word	0x00000054
20011ec4:	fffffd1c 	.word	0xfffffd1c

20011ec8 <vu_help>:
20011ec8:	e1a0c00d 	mov	ip, sp
20011ecc:	e92dd800 	push	{fp, ip, lr, pc}
20011ed0:	e24cb004 	sub	fp, ip, #4	; 0x4
20011ed4:	e24dd010 	sub	sp, sp, #16	; 0x10
20011ed8:	e59f1108 	ldr	r1, [pc, #264]	; 20011fe8 <vu_help+0x120>
20011edc:	e50b101c 	str	r1, [fp, #-28]
20011ee0:	e51b201c 	ldr	r2, [fp, #-28]
20011ee4:	e08f2002 	add	r2, pc, r2
20011ee8:	e50b201c 	str	r2, [fp, #-28]
20011eec:	e50b0018 	str	r0, [fp, #-24]
20011ef0:	e3a03000 	mov	r3, #0	; 0x0
20011ef4:	e50b3010 	str	r3, [fp, #-16]
20011ef8:	e59f30ec 	ldr	r3, [pc, #236]	; 20011fec <vu_help+0x124>
20011efc:	e51b001c 	ldr	r0, [fp, #-28]
20011f00:	e0803003 	add	r3, r0, r3
20011f04:	e1a00003 	mov	r0, r3
20011f08:	ebffeafb 	bl	2000cafc <printk>
20011f0c:	ea00001e 	b	20011f8c <vu_help+0xc4>
20011f10:	e51b2010 	ldr	r2, [fp, #-16]
20011f14:	e59f30d4 	ldr	r3, [pc, #212]	; 20011ff0 <vu_help+0x128>
20011f18:	e51b001c 	ldr	r0, [fp, #-28]
20011f1c:	e7901003 	ldr	r1, [r0, r3]
20011f20:	e1a03002 	mov	r3, r2
20011f24:	e1a02103 	lsl	r2, r3, #2
20011f28:	e1a03102 	lsl	r3, r2, #2
20011f2c:	e0623003 	rsb	r3, r2, r3
20011f30:	e0813003 	add	r3, r1, r3
20011f34:	e593c000 	ldr	ip, [r3]
20011f38:	e51b2010 	ldr	r2, [fp, #-16]
20011f3c:	e59f30ac 	ldr	r3, [pc, #172]	; 20011ff0 <vu_help+0x128>
20011f40:	e51b001c 	ldr	r0, [fp, #-28]
20011f44:	e7901003 	ldr	r1, [r0, r3]
20011f48:	e3a00004 	mov	r0, #4	; 0x4
20011f4c:	e1a03002 	mov	r3, r2
20011f50:	e1a02103 	lsl	r2, r3, #2
20011f54:	e1a03102 	lsl	r3, r2, #2
20011f58:	e0623003 	rsb	r3, r2, r3
20011f5c:	e0813003 	add	r3, r1, r3
20011f60:	e0833000 	add	r3, r3, r0
20011f64:	e5932000 	ldr	r2, [r3]
20011f68:	e59f3084 	ldr	r3, [pc, #132]	; 20011ff4 <vu_help+0x12c>
20011f6c:	e51b101c 	ldr	r1, [fp, #-28]
20011f70:	e0813003 	add	r3, r1, r3
20011f74:	e1a00003 	mov	r0, r3
20011f78:	e1a0100c 	mov	r1, ip
20011f7c:	ebffeade 	bl	2000cafc <printk>
20011f80:	e51b3010 	ldr	r3, [fp, #-16]
20011f84:	e2833001 	add	r3, r3, #1	; 0x1
20011f88:	e50b3010 	str	r3, [fp, #-16]
20011f8c:	e51b2010 	ldr	r2, [fp, #-16]
20011f90:	e59f3058 	ldr	r3, [pc, #88]	; 20011ff0 <vu_help+0x128>
20011f94:	e51b001c 	ldr	r0, [fp, #-28]
20011f98:	e7901003 	ldr	r1, [r0, r3]
20011f9c:	e3a00008 	mov	r0, #8	; 0x8
20011fa0:	e1a03002 	mov	r3, r2
20011fa4:	e1a02103 	lsl	r2, r3, #2
20011fa8:	e1a03102 	lsl	r3, r2, #2
20011fac:	e0623003 	rsb	r3, r2, r3
20011fb0:	e0813003 	add	r3, r1, r3
20011fb4:	e0833000 	add	r3, r3, r0
20011fb8:	e5933000 	ldr	r3, [r3]
20011fbc:	e3530000 	cmp	r3, #0	; 0x0
20011fc0:	1affffd2 	bne	20011f10 <vu_help+0x48>
20011fc4:	e59f302c 	ldr	r3, [pc, #44]	; 20011ff8 <vu_help+0x130>
20011fc8:	e51b101c 	ldr	r1, [fp, #-28]
20011fcc:	e0813003 	add	r3, r1, r3
20011fd0:	e1a00003 	mov	r0, r3
20011fd4:	ebffeac8 	bl	2000cafc <printk>
20011fd8:	e3a03000 	mov	r3, #0	; 0x0
20011fdc:	e1a00003 	mov	r0, r3
20011fe0:	e24bd00c 	sub	sp, fp, #12	; 0xc
20011fe4:	e89da800 	ldm	sp, {fp, sp, pc}
20011fe8:	0000169c 	.word	0x0000169c
20011fec:	fffffd38 	.word	0xfffffd38
20011ff0:	000000a8 	.word	0x000000a8
20011ff4:	fffffd70 	.word	0xfffffd70
20011ff8:	fffffd7c 	.word	0xfffffd7c

20011ffc <race_log>:
20011ffc:	e1a0c00d 	mov	ip, sp
20012000:	e92dd800 	push	{fp, ip, lr, pc}
20012004:	e24cb004 	sub	fp, ip, #4	; 0x4
20012008:	e24dd008 	sub	sp, sp, #8	; 0x8
2001200c:	e59f2028 	ldr	r2, [pc, #40]	; 2001203c <race_log+0x40>
20012010:	e08f2002 	add	r2, pc, r2
20012014:	e50b0010 	str	r0, [fp, #-16]
20012018:	e59f3020 	ldr	r3, [pc, #32]	; 20012040 <race_log+0x44>
2001201c:	e7923003 	ldr	r3, [r2, r3]
20012020:	e5931000 	ldr	r1, [r3]
20012024:	e59f3018 	ldr	r3, [pc, #24]	; 20012044 <race_log+0x48>
20012028:	e0823003 	add	r3, r2, r3
2001202c:	e1a00003 	mov	r0, r3
20012030:	ebffeab1 	bl	2000cafc <printk>
20012034:	e24bd00c 	sub	sp, fp, #12	; 0xc
20012038:	e89da800 	ldm	sp, {fp, sp, pc}
2001203c:	00001570 	.word	0x00001570
20012040:	0000002c 	.word	0x0000002c
20012044:	fffffdb0 	.word	0xfffffdb0

20012048 <race_ex_0>:
20012048:	e1a0c00d 	mov	ip, sp
2001204c:	e92dd800 	push	{fp, ip, lr, pc}
20012050:	e24cb004 	sub	fp, ip, #4	; 0x4
20012054:	e24dd010 	sub	sp, sp, #16	; 0x10
20012058:	e59f108c 	ldr	r1, [pc, #140]	; 200120ec <race_ex_0+0xa4>
2001205c:	e50b101c 	str	r1, [fp, #-28]
20012060:	e51b201c 	ldr	r2, [fp, #-28]
20012064:	e08f2002 	add	r2, pc, r2
20012068:	e50b201c 	str	r2, [fp, #-28]
2001206c:	e50b0018 	str	r0, [fp, #-24]
20012070:	e3a03000 	mov	r3, #0	; 0x0
20012074:	e50b3010 	str	r3, [fp, #-16]
20012078:	ea000013 	b	200120cc <race_ex_0+0x84>
2001207c:	e59f306c 	ldr	r3, [pc, #108]	; 200120f0 <race_ex_0+0xa8>
20012080:	e51b101c 	ldr	r1, [fp, #-28]
20012084:	e7913003 	ldr	r3, [r1, r3]
20012088:	e5933000 	ldr	r3, [r3]
2001208c:	e2832002 	add	r2, r3, #2	; 0x2
20012090:	e59f305c 	ldr	r3, [pc, #92]	; 200120f4 <race_ex_0+0xac>
20012094:	e51b101c 	ldr	r1, [fp, #-28]
20012098:	e7913003 	ldr	r3, [r1, r3]
2001209c:	e5832000 	str	r2, [r3]
200120a0:	e59f304c 	ldr	r3, [pc, #76]	; 200120f4 <race_ex_0+0xac>
200120a4:	e51b201c 	ldr	r2, [fp, #-28]
200120a8:	e7923003 	ldr	r3, [r2, r3]
200120ac:	e5932000 	ldr	r2, [r3]
200120b0:	e59f3038 	ldr	r3, [pc, #56]	; 200120f0 <race_ex_0+0xa8>
200120b4:	e51b101c 	ldr	r1, [fp, #-28]
200120b8:	e7913003 	ldr	r3, [r1, r3]
200120bc:	e5832000 	str	r2, [r3]
200120c0:	e51b3010 	ldr	r3, [fp, #-16]
200120c4:	e2833001 	add	r3, r3, #1	; 0x1
200120c8:	e50b3010 	str	r3, [fp, #-16]
200120cc:	e51b2010 	ldr	r2, [fp, #-16]
200120d0:	e59f3020 	ldr	r3, [pc, #32]	; 200120f8 <race_ex_0+0xb0>
200120d4:	e1520003 	cmp	r2, r3
200120d8:	daffffe7 	ble	2001207c <race_ex_0+0x34>
200120dc:	e3a03000 	mov	r3, #0	; 0x0
200120e0:	e1a00003 	mov	r0, r3
200120e4:	e24bd00c 	sub	sp, fp, #12	; 0xc
200120e8:	e89da800 	ldm	sp, {fp, sp, pc}
200120ec:	0000151c 	.word	0x0000151c
200120f0:	0000002c 	.word	0x0000002c
200120f4:	00000058 	.word	0x00000058
200120f8:	000493df 	.word	0x000493df

200120fc <race_ex_1>:
200120fc:	e1a0c00d 	mov	ip, sp
20012100:	e92dd800 	push	{fp, ip, lr, pc}
20012104:	e24cb004 	sub	fp, ip, #4	; 0x4
20012108:	e24dd010 	sub	sp, sp, #16	; 0x10
2001210c:	e59f108c 	ldr	r1, [pc, #140]	; 200121a0 <race_ex_1+0xa4>
20012110:	e50b101c 	str	r1, [fp, #-28]
20012114:	e51b201c 	ldr	r2, [fp, #-28]
20012118:	e08f2002 	add	r2, pc, r2
2001211c:	e50b201c 	str	r2, [fp, #-28]
20012120:	e50b0018 	str	r0, [fp, #-24]
20012124:	e3a03000 	mov	r3, #0	; 0x0
20012128:	e50b3010 	str	r3, [fp, #-16]
2001212c:	ea000013 	b	20012180 <race_ex_1+0x84>
20012130:	e59f306c 	ldr	r3, [pc, #108]	; 200121a4 <race_ex_1+0xa8>
20012134:	e51b101c 	ldr	r1, [fp, #-28]
20012138:	e7913003 	ldr	r3, [r1, r3]
2001213c:	e5933000 	ldr	r3, [r3]
20012140:	e2432001 	sub	r2, r3, #1	; 0x1
20012144:	e59f305c 	ldr	r3, [pc, #92]	; 200121a8 <race_ex_1+0xac>
20012148:	e51b101c 	ldr	r1, [fp, #-28]
2001214c:	e7913003 	ldr	r3, [r1, r3]
20012150:	e5832000 	str	r2, [r3]
20012154:	e59f304c 	ldr	r3, [pc, #76]	; 200121a8 <race_ex_1+0xac>
20012158:	e51b201c 	ldr	r2, [fp, #-28]
2001215c:	e7923003 	ldr	r3, [r2, r3]
20012160:	e5932000 	ldr	r2, [r3]
20012164:	e59f3038 	ldr	r3, [pc, #56]	; 200121a4 <race_ex_1+0xa8>
20012168:	e51b101c 	ldr	r1, [fp, #-28]
2001216c:	e7913003 	ldr	r3, [r1, r3]
20012170:	e5832000 	str	r2, [r3]
20012174:	e51b3010 	ldr	r3, [fp, #-16]
20012178:	e2833001 	add	r3, r3, #1	; 0x1
2001217c:	e50b3010 	str	r3, [fp, #-16]
20012180:	e51b2010 	ldr	r2, [fp, #-16]
20012184:	e59f3020 	ldr	r3, [pc, #32]	; 200121ac <race_ex_1+0xb0>
20012188:	e1520003 	cmp	r2, r3
2001218c:	daffffe7 	ble	20012130 <race_ex_1+0x34>
20012190:	e3a03000 	mov	r3, #0	; 0x0
20012194:	e1a00003 	mov	r0, r3
20012198:	e24bd00c 	sub	sp, fp, #12	; 0xc
2001219c:	e89da800 	ldm	sp, {fp, sp, pc}
200121a0:	00001468 	.word	0x00001468
200121a4:	0000002c 	.word	0x0000002c
200121a8:	00000090 	.word	0x00000090
200121ac:	000493df 	.word	0x000493df

200121b0 <race_ex_2>:
200121b0:	e1a0c00d 	mov	ip, sp
200121b4:	e92dd800 	push	{fp, ip, lr, pc}
200121b8:	e24cb004 	sub	fp, ip, #4	; 0x4
200121bc:	e24dd010 	sub	sp, sp, #16	; 0x10
200121c0:	e59f108c 	ldr	r1, [pc, #140]	; 20012254 <race_ex_2+0xa4>
200121c4:	e50b101c 	str	r1, [fp, #-28]
200121c8:	e51b201c 	ldr	r2, [fp, #-28]
200121cc:	e08f2002 	add	r2, pc, r2
200121d0:	e50b201c 	str	r2, [fp, #-28]
200121d4:	e50b0018 	str	r0, [fp, #-24]
200121d8:	e3a03000 	mov	r3, #0	; 0x0
200121dc:	e50b3010 	str	r3, [fp, #-16]
200121e0:	ea000013 	b	20012234 <race_ex_2+0x84>
200121e4:	e59f306c 	ldr	r3, [pc, #108]	; 20012258 <race_ex_2+0xa8>
200121e8:	e51b101c 	ldr	r1, [fp, #-28]
200121ec:	e7913003 	ldr	r3, [r1, r3]
200121f0:	e5933000 	ldr	r3, [r3]
200121f4:	e2832003 	add	r2, r3, #3	; 0x3
200121f8:	e59f305c 	ldr	r3, [pc, #92]	; 2001225c <race_ex_2+0xac>
200121fc:	e51b101c 	ldr	r1, [fp, #-28]
20012200:	e7913003 	ldr	r3, [r1, r3]
20012204:	e5832000 	str	r2, [r3]
20012208:	e59f304c 	ldr	r3, [pc, #76]	; 2001225c <race_ex_2+0xac>
2001220c:	e51b201c 	ldr	r2, [fp, #-28]
20012210:	e7923003 	ldr	r3, [r2, r3]
20012214:	e5932000 	ldr	r2, [r3]
20012218:	e59f3038 	ldr	r3, [pc, #56]	; 20012258 <race_ex_2+0xa8>
2001221c:	e51b101c 	ldr	r1, [fp, #-28]
20012220:	e7913003 	ldr	r3, [r1, r3]
20012224:	e5832000 	str	r2, [r3]
20012228:	e51b3010 	ldr	r3, [fp, #-16]
2001222c:	e2833001 	add	r3, r3, #1	; 0x1
20012230:	e50b3010 	str	r3, [fp, #-16]
20012234:	e51b2010 	ldr	r2, [fp, #-16]
20012238:	e59f3020 	ldr	r3, [pc, #32]	; 20012260 <race_ex_2+0xb0>
2001223c:	e1520003 	cmp	r2, r3
20012240:	daffffe7 	ble	200121e4 <race_ex_2+0x34>
20012244:	e3a03000 	mov	r3, #0	; 0x0
20012248:	e1a00003 	mov	r0, r3
2001224c:	e24bd00c 	sub	sp, fp, #12	; 0xc
20012250:	e89da800 	ldm	sp, {fp, sp, pc}
20012254:	000013b4 	.word	0x000013b4
20012258:	0000002c 	.word	0x0000002c
2001225c:	00000080 	.word	0x00000080
20012260:	000493df 	.word	0x000493df

20012264 <VPOS_SHELL>:
20012264:	e1a0c00d 	mov	ip, sp
20012268:	e92dd800 	push	{fp, ip, lr, pc}
2001226c:	e24cb004 	sub	fp, ip, #4	; 0x4
20012270:	e24dd0a8 	sub	sp, sp, #168	; 0xa8
20012274:	e59f11b4 	ldr	r1, [pc, #436]	; 20012430 <VPOS_SHELL+0x1cc>
20012278:	e50b10b4 	str	r1, [fp, #-180]
2001227c:	e51b20b4 	ldr	r2, [fp, #-180]
20012280:	e08f2002 	add	r2, pc, r2
20012284:	e50b20b4 	str	r2, [fp, #-180]
20012288:	e50b00b0 	str	r0, [fp, #-176]
2001228c:	e59f31a0 	ldr	r3, [pc, #416]	; 20012434 <VPOS_SHELL+0x1d0>
20012290:	e51bc0b4 	ldr	ip, [fp, #-180]
20012294:	e79c3003 	ldr	r3, [ip, r3]
20012298:	e5932000 	ldr	r2, [r3]
2001229c:	e59f3194 	ldr	r3, [pc, #404]	; 20012438 <VPOS_SHELL+0x1d4>
200122a0:	e51b00b4 	ldr	r0, [fp, #-180]
200122a4:	e0803003 	add	r3, r0, r3
200122a8:	e1a00003 	mov	r0, r3
200122ac:	e1a01002 	mov	r1, r2
200122b0:	ebffea11 	bl	2000cafc <printk>
200122b4:	e3a03000 	mov	r3, #0	; 0x0
200122b8:	e50b3018 	str	r3, [fp, #-24]
200122bc:	e3a03000 	mov	r3, #0	; 0x0
200122c0:	e50b3010 	str	r3, [fp, #-16]
200122c4:	e59f3170 	ldr	r3, [pc, #368]	; 2001243c <VPOS_SHELL+0x1d8>
200122c8:	e51b10b4 	ldr	r1, [fp, #-180]
200122cc:	e0813003 	add	r3, r1, r3
200122d0:	e1a00003 	mov	r0, r3
200122d4:	ebffea08 	bl	2000cafc <printk>
200122d8:	e24b307c 	sub	r3, fp, #124	; 0x7c
200122dc:	e1a00003 	mov	r0, r3
200122e0:	ebfff6e6 	bl	2000fe80 <get_cmd>
200122e4:	e24b307c 	sub	r3, fp, #124	; 0x7c
200122e8:	e24b20a4 	sub	r2, fp, #164	; 0xa4
200122ec:	e1a00003 	mov	r0, r3
200122f0:	e1a01002 	mov	r1, r2
200122f4:	ebffe54c 	bl	2000b82c <parse_args>
200122f8:	e1a03000 	mov	r3, r0
200122fc:	e50b3018 	str	r3, [fp, #-24]
20012300:	e51b3018 	ldr	r3, [fp, #-24]
20012304:	e3530000 	cmp	r3, #0	; 0x0
20012308:	0affffeb 	beq	200122bc <VPOS_SHELL+0x58>
2001230c:	e3a03000 	mov	r3, #0	; 0x0
20012310:	e50b3014 	str	r3, [fp, #-20]
20012314:	ea00002e 	b	200123d4 <VPOS_SHELL+0x170>
20012318:	e51b00a4 	ldr	r0, [fp, #-164]
2001231c:	e51b2014 	ldr	r2, [fp, #-20]
20012320:	e59f3118 	ldr	r3, [pc, #280]	; 20012440 <VPOS_SHELL+0x1dc>
20012324:	e51bc0b4 	ldr	ip, [fp, #-180]
20012328:	e79c1003 	ldr	r1, [ip, r3]
2001232c:	e1a03002 	mov	r3, r2
20012330:	e1a02103 	lsl	r2, r3, #2
20012334:	e1a03102 	lsl	r3, r2, #2
20012338:	e0623003 	rsb	r3, r2, r3
2001233c:	e0813003 	add	r3, r1, r3
20012340:	e5933000 	ldr	r3, [r3]
20012344:	e1a01003 	mov	r1, r3
20012348:	ebfff812 	bl	20010398 <strcmp>
2001234c:	e1a03000 	mov	r3, r0
20012350:	e3530000 	cmp	r3, #0	; 0x0
20012354:	1a00001b 	bne	200123c8 <VPOS_SHELL+0x164>
20012358:	e51b2014 	ldr	r2, [fp, #-20]
2001235c:	e59f30dc 	ldr	r3, [pc, #220]	; 20012440 <VPOS_SHELL+0x1dc>
20012360:	e51b00b4 	ldr	r0, [fp, #-180]
20012364:	e7901003 	ldr	r1, [r0, r3]
20012368:	e3a00008 	mov	r0, #8	; 0x8
2001236c:	e1a03002 	mov	r3, r2
20012370:	e1a02103 	lsl	r2, r3, #2
20012374:	e1a03102 	lsl	r3, r2, #2
20012378:	e0623003 	rsb	r3, r2, r3
2001237c:	e0813003 	add	r3, r1, r3
20012380:	e0833000 	add	r3, r3, r0
20012384:	e593c000 	ldr	ip, [r3]
20012388:	e24b20ac 	sub	r2, fp, #172	; 0xac
2001238c:	e24b30a4 	sub	r3, fp, #164	; 0xa4
20012390:	e2833004 	add	r3, r3, #4	; 0x4
20012394:	e1a00002 	mov	r0, r2
20012398:	e3a01000 	mov	r1, #0	; 0x0
2001239c:	e1a0200c 	mov	r2, ip
200123a0:	ebfffa0a 	bl	20010bd0 <pthread_create>
200123a4:	e59f3098 	ldr	r3, [pc, #152]	; 20012444 <VPOS_SHELL+0x1e0>
200123a8:	e51b10b4 	ldr	r1, [fp, #-180]
200123ac:	e0813003 	add	r3, r1, r3
200123b0:	e1a00003 	mov	r0, r3
200123b4:	ebffe9d0 	bl	2000cafc <printk>
200123b8:	ebffdd01 	bl	200097c4 <vk_swi_scheduler>
200123bc:	e3a03001 	mov	r3, #1	; 0x1
200123c0:	e50b3010 	str	r3, [fp, #-16]
200123c4:	ea00000e 	b	20012404 <VPOS_SHELL+0x1a0>
200123c8:	e51b3014 	ldr	r3, [fp, #-20]
200123cc:	e2833001 	add	r3, r3, #1	; 0x1
200123d0:	e50b3014 	str	r3, [fp, #-20]
200123d4:	e51b2014 	ldr	r2, [fp, #-20]
200123d8:	e59f3060 	ldr	r3, [pc, #96]	; 20012440 <VPOS_SHELL+0x1dc>
200123dc:	e51bc0b4 	ldr	ip, [fp, #-180]
200123e0:	e79c1003 	ldr	r1, [ip, r3]
200123e4:	e1a03002 	mov	r3, r2
200123e8:	e1a02103 	lsl	r2, r3, #2
200123ec:	e1a03102 	lsl	r3, r2, #2
200123f0:	e0623003 	rsb	r3, r2, r3
200123f4:	e0813003 	add	r3, r1, r3
200123f8:	e5933000 	ldr	r3, [r3]
200123fc:	e3530000 	cmp	r3, #0	; 0x0
20012400:	1affffc4 	bne	20012318 <VPOS_SHELL+0xb4>
20012404:	e51b3010 	ldr	r3, [fp, #-16]
20012408:	e3530000 	cmp	r3, #0	; 0x0
2001240c:	1affffaa 	bne	200122bc <VPOS_SHELL+0x58>
20012410:	e51b30a4 	ldr	r3, [fp, #-164]
20012414:	e59f202c 	ldr	r2, [pc, #44]	; 20012448 <VPOS_SHELL+0x1e4>
20012418:	e51b00b4 	ldr	r0, [fp, #-180]
2001241c:	e0802002 	add	r2, r0, r2
20012420:	e1a00002 	mov	r0, r2
20012424:	e1a01003 	mov	r1, r3
20012428:	ebffe9b3 	bl	2000cafc <printk>
2001242c:	eaffffa2 	b	200122bc <VPOS_SHELL+0x58>
20012430:	00001300 	.word	0x00001300
20012434:	0000002c 	.word	0x0000002c
20012438:	fffffdc0 	.word	0xfffffdc0
2001243c:	fffffddc 	.word	0xfffffddc
20012440:	000000a8 	.word	0x000000a8
20012444:	fffffd18 	.word	0xfffffd18
20012448:	fffffde4 	.word	0xfffffde4

2001244c <__aeabi_uidiv>:
2001244c:	e2512001 	subs	r2, r1, #1	; 0x1
20012450:	012fff1e 	bxeq	lr
20012454:	3a000023 	bcc	200124e8 <__aeabi_uidiv+0x9c>
20012458:	e1500001 	cmp	r0, r1
2001245c:	9a00001a 	bls	200124cc <__aeabi_uidiv+0x80>
20012460:	e1110002 	tst	r1, r2
20012464:	0a00001b 	beq	200124d8 <__aeabi_uidiv+0x8c>
20012468:	e16f3f11 	clz	r3, r1
2001246c:	e16f2f10 	clz	r2, r0
20012470:	e0432002 	sub	r2, r3, r2
20012474:	e3a03001 	mov	r3, #1	; 0x1
20012478:	e1a01211 	lsl	r1, r1, r2
2001247c:	e1a03213 	lsl	r3, r3, r2
20012480:	e3a02000 	mov	r2, #0	; 0x0
20012484:	e1500001 	cmp	r0, r1
20012488:	20400001 	subcs	r0, r0, r1
2001248c:	21822003 	orrcs	r2, r2, r3
20012490:	e15000a1 	cmp	r0, r1, lsr #1
20012494:	204000a1 	subcs	r0, r0, r1, lsr #1
20012498:	218220a3 	orrcs	r2, r2, r3, lsr #1
2001249c:	e1500121 	cmp	r0, r1, lsr #2
200124a0:	20400121 	subcs	r0, r0, r1, lsr #2
200124a4:	21822123 	orrcs	r2, r2, r3, lsr #2
200124a8:	e15001a1 	cmp	r0, r1, lsr #3
200124ac:	204001a1 	subcs	r0, r0, r1, lsr #3
200124b0:	218221a3 	orrcs	r2, r2, r3, lsr #3
200124b4:	e3500000 	cmp	r0, #0	; 0x0
200124b8:	11b03223 	lsrsne	r3, r3, #4
200124bc:	11a01221 	lsrne	r1, r1, #4
200124c0:	1affffef 	bne	20012484 <__aeabi_uidiv+0x38>
200124c4:	e1a00002 	mov	r0, r2
200124c8:	e12fff1e 	bx	lr
200124cc:	03a00001 	moveq	r0, #1	; 0x1
200124d0:	13a00000 	movne	r0, #0	; 0x0
200124d4:	e12fff1e 	bx	lr
200124d8:	e16f2f11 	clz	r2, r1
200124dc:	e262201f 	rsb	r2, r2, #31	; 0x1f
200124e0:	e1a00230 	lsr	r0, r0, r2
200124e4:	e12fff1e 	bx	lr
200124e8:	e52de008 	str	lr, [sp, #-8]!
200124ec:	eb000007 	bl	20012510 <__div0>
200124f0:	e3a00000 	mov	r0, #0	; 0x0
200124f4:	e49df008 	ldr	pc, [sp], #8

200124f8 <__aeabi_uidivmod>:
200124f8:	e92d4003 	push	{r0, r1, lr}
200124fc:	ebffffd2 	bl	2001244c <__aeabi_uidiv>
20012500:	e8bd4006 	pop	{r1, r2, lr}
20012504:	e0030092 	mul	r3, r2, r0
20012508:	e0411003 	sub	r1, r1, r3
2001250c:	e12fff1e 	bx	lr

20012510 <__div0>:
20012510:	e92d4002 	push	{r1, lr}
20012514:	e3a00008 	mov	r0, #8	; 0x8
20012518:	eb000000 	bl	20012520 <raise>
2001251c:	e8bd8002 	pop	{r1, pc}

20012520 <raise>:
20012520:	e92d40b0 	push	{r4, r5, r7, lr}
20012524:	e1a05000 	mov	r5, r0
20012528:	eb000128 	bl	200129d0 <__aeabi_read_tp>
2001252c:	e1a03000 	mov	r3, r0
20012530:	e5104458 	ldr	r4, [r0, #-1112]
20012534:	e5100454 	ldr	r0, [r0, #-1108]
20012538:	e3540000 	cmp	r4, #0	; 0x0
2001253c:	1a000027 	bne	200125e0 <raise+0xc0>
20012540:	e3a070e0 	mov	r7, #224	; 0xe0
20012544:	ef000000 	svc	0x00000000
20012548:	e1a04000 	mov	r4, r0
2001254c:	e5030458 	str	r0, [r3, #-1112]
20012550:	e1a02005 	mov	r2, r5
20012554:	e1a01004 	mov	r1, r4
20012558:	e3a07f43 	mov	r7, #268	; 0x10c
2001255c:	ef000000 	svc	0x00000000
20012560:	e3700a01 	cmn	r0, #4096	; 0x1000
20012564:	e1a01000 	mov	r1, r0
20012568:	8a000003 	bhi	2001257c <raise+0x5c>
2001256c:	e3700001 	cmn	r0, #1	; 0x1
20012570:	0a000006 	beq	20012590 <raise+0x70>
20012574:	e1a00001 	mov	r0, r1
20012578:	e8bd80b0 	pop	{r4, r5, r7, pc}
2001257c:	e59f3078 	ldr	r3, [pc, #120]	; 200125fc <raise+0xdc>
20012580:	eb000112 	bl	200129d0 <__aeabi_read_tp>
20012584:	e79f3003 	ldr	r3, [pc, r3]
20012588:	e2612000 	rsb	r2, r1, #0	; 0x0
2001258c:	e7802003 	str	r2, [r0, r3]
20012590:	e59f3068 	ldr	r3, [pc, #104]	; 20012600 <raise+0xe0>
20012594:	eb00010d 	bl	200129d0 <__aeabi_read_tp>
20012598:	e79f3003 	ldr	r3, [pc, r3]
2001259c:	e1a0c000 	mov	ip, r0
200125a0:	e7902003 	ldr	r2, [r0, r3]
200125a4:	e3520026 	cmp	r2, #38	; 0x26
200125a8:	13e01000 	mvnne	r1, #0	; 0x0
200125ac:	1afffff0 	bne	20012574 <raise+0x54>
200125b0:	e1a01005 	mov	r1, r5
200125b4:	e1a00004 	mov	r0, r4
200125b8:	e3a070ee 	mov	r7, #238	; 0xee
200125bc:	ef000000 	svc	0x00000000
200125c0:	e3700a01 	cmn	r0, #4096	; 0x1000
200125c4:	82602000 	rsbhi	r2, r0, #0	; 0x0
200125c8:	859f3034 	ldrhi	r3, [pc, #52]	; 20012604 <raise+0xe4>
200125cc:	91a01000 	movls	r1, r0
200125d0:	879f3003 	ldrhi	r3, [pc, r3]
200125d4:	83e01000 	mvnhi	r1, #0	; 0x0
200125d8:	878c2003 	strhi	r2, [ip, r3]
200125dc:	eaffffe4 	b	20012574 <raise+0x54>
200125e0:	e3500000 	cmp	r0, #0	; 0x0
200125e4:	caffffd9 	bgt	20012550 <raise+0x30>
200125e8:	e3c03102 	bic	r3, r0, #-2147483648	; 0x80000000
200125ec:	e3530000 	cmp	r3, #0	; 0x0
200125f0:	01a00004 	moveq	r0, r4
200125f4:	12600000 	rsbne	r0, r0, #0	; 0x0
200125f8:	eaffffd4 	b	20012550 <raise+0x30>
200125fc:	0000104c 	.word	0x0000104c
20012600:	00001038 	.word	0x00001038
20012604:	00001000 	.word	0x00001000
	...

20012610 <memset>:
20012610:	e1a03000 	mov	r3, r0
20012614:	e3520008 	cmp	r2, #8	; 0x8
20012618:	3a000014 	bcc	20012670 <memset+0x60>
2001261c:	e3130003 	tst	r3, #3	; 0x3
20012620:	14c31001 	strbne	r1, [r3], #1
20012624:	12422001 	subne	r2, r2, #1	; 0x1
20012628:	1afffffb 	bne	2001261c <memset+0xc>
2001262c:	e20110ff 	and	r1, r1, #255	; 0xff
20012630:	e1811401 	orr	r1, r1, r1, lsl #8
20012634:	e1811801 	orr	r1, r1, r1, lsl #16
20012638:	e2522008 	subs	r2, r2, #8	; 0x8
2001263c:	24831004 	strcs	r1, [r3], #4
20012640:	24831004 	strcs	r1, [r3], #4
20012644:	22522008 	subscs	r2, r2, #8	; 0x8
20012648:	24831004 	strcs	r1, [r3], #4
2001264c:	24831004 	strcs	r1, [r3], #4
20012650:	22522008 	subscs	r2, r2, #8	; 0x8
20012654:	24831004 	strcs	r1, [r3], #4
20012658:	24831004 	strcs	r1, [r3], #4
2001265c:	22522008 	subscs	r2, r2, #8	; 0x8
20012660:	24831004 	strcs	r1, [r3], #4
20012664:	24831004 	strcs	r1, [r3], #4
20012668:	2afffff2 	bcs	20012638 <memset+0x28>
2001266c:	e2022007 	and	r2, r2, #7	; 0x7
20012670:	e2522001 	subs	r2, r2, #1	; 0x1
20012674:	24c31001 	strbcs	r1, [r3], #1
20012678:	22522001 	subscs	r2, r2, #1	; 0x1
2001267c:	24c31001 	strbcs	r1, [r3], #1
20012680:	22522001 	subscs	r2, r2, #1	; 0x1
20012684:	24c31001 	strbcs	r1, [r3], #1
20012688:	22522001 	subscs	r2, r2, #1	; 0x1
2001268c:	24c31001 	strbcs	r1, [r3], #1
20012690:	2afffff6 	bcs	20012670 <memset+0x60>
20012694:	e12fff1e 	bx	lr
20012698:	e1a00000 	nop			(mov r0,r0)
2001269c:	e1a00000 	nop			(mov r0,r0)

200126a0 <memcpy>:
200126a0:	e92d4011 	push	{r0, r4, lr}
200126a4:	e2522004 	subs	r2, r2, #4	; 0x4
200126a8:	ba00002b 	blt	2001275c <memcpy+0xbc>
200126ac:	e210c003 	ands	ip, r0, #3	; 0x3
200126b0:	f5d1f000 	pld	[r1]
200126b4:	1a000030 	bne	2001277c <memcpy+0xdc>
200126b8:	e211c003 	ands	ip, r1, #3	; 0x3
200126bc:	1a00003a 	bne	200127ac <memcpy+0x10c>
200126c0:	e252201c 	subs	r2, r2, #28	; 0x1c
200126c4:	e92d01e0 	push	{r5, r6, r7, r8}
200126c8:	ba00000c 	blt	20012700 <memcpy+0x60>
200126cc:	f5d1f000 	pld	[r1]
200126d0:	e2522060 	subs	r2, r2, #96	; 0x60
200126d4:	f5d1f01c 	pld	[r1, #28]
200126d8:	ba000002 	blt	200126e8 <memcpy+0x48>
200126dc:	f5d1f03c 	pld	[r1, #60]
200126e0:	f5d1f05c 	pld	[r1, #92]
200126e4:	f5d1f07c 	pld	[r1, #124]
200126e8:	e8b151f8 	ldm	r1!, {r3, r4, r5, r6, r7, r8, ip, lr}
200126ec:	e2522020 	subs	r2, r2, #32	; 0x20
200126f0:	e8a051f8 	stmia	r0!, {r3, r4, r5, r6, r7, r8, ip, lr}
200126f4:	aafffffa 	bge	200126e4 <memcpy+0x44>
200126f8:	e3720060 	cmn	r2, #96	; 0x60
200126fc:	aafffff9 	bge	200126e8 <memcpy+0x48>
20012700:	e212c01c 	ands	ip, r2, #28	; 0x1c
20012704:	e26cc020 	rsb	ip, ip, #32	; 0x20
20012708:	108ff00c 	addne	pc, pc, ip
2001270c:	ea000011 	b	20012758 <memcpy+0xb8>
20012710:	e1a00000 	nop			(mov r0,r0)
20012714:	e4913004 	ldr	r3, [r1], #4
20012718:	e4914004 	ldr	r4, [r1], #4
2001271c:	e4915004 	ldr	r5, [r1], #4
20012720:	e4916004 	ldr	r6, [r1], #4
20012724:	e4917004 	ldr	r7, [r1], #4
20012728:	e4918004 	ldr	r8, [r1], #4
2001272c:	e491e004 	ldr	lr, [r1], #4
20012730:	e08ff00c 	add	pc, pc, ip
20012734:	e1a00000 	nop			(mov r0,r0)
20012738:	e1a00000 	nop			(mov r0,r0)
2001273c:	e4803004 	str	r3, [r0], #4
20012740:	e4804004 	str	r4, [r0], #4
20012744:	e4805004 	str	r5, [r0], #4
20012748:	e4806004 	str	r6, [r0], #4
2001274c:	e4807004 	str	r7, [r0], #4
20012750:	e4808004 	str	r8, [r0], #4
20012754:	e480e004 	str	lr, [r0], #4
20012758:	e8bd01e0 	pop	{r5, r6, r7, r8}
2001275c:	e1b02f82 	lsls	r2, r2, #31
20012760:	14d13001 	ldrbne	r3, [r1], #1
20012764:	24d14001 	ldrbcs	r4, [r1], #1
20012768:	25d1c000 	ldrbcs	ip, [r1]
2001276c:	14c03001 	strbne	r3, [r0], #1
20012770:	24c04001 	strbcs	r4, [r0], #1
20012774:	25c0c000 	strbcs	ip, [r0]
20012778:	e8bd8011 	pop	{r0, r4, pc}
2001277c:	e26cc004 	rsb	ip, ip, #4	; 0x4
20012780:	e35c0002 	cmp	ip, #2	; 0x2
20012784:	c4d13001 	ldrbgt	r3, [r1], #1
20012788:	a4d14001 	ldrbge	r4, [r1], #1
2001278c:	e4d1e001 	ldrb	lr, [r1], #1
20012790:	c4c03001 	strbgt	r3, [r0], #1
20012794:	a4c04001 	strbge	r4, [r0], #1
20012798:	e052200c 	subs	r2, r2, ip
2001279c:	e4c0e001 	strb	lr, [r0], #1
200127a0:	baffffed 	blt	2001275c <memcpy+0xbc>
200127a4:	e211c003 	ands	ip, r1, #3	; 0x3
200127a8:	0affffc4 	beq	200126c0 <memcpy+0x20>
200127ac:	e3c11003 	bic	r1, r1, #3	; 0x3
200127b0:	e35c0002 	cmp	ip, #2	; 0x2
200127b4:	e491e004 	ldr	lr, [r1], #4
200127b8:	0a00002c 	beq	20012870 <memcpy+0x1d0>
200127bc:	ca000057 	bgt	20012920 <memcpy+0x280>
200127c0:	e252201c 	subs	r2, r2, #28	; 0x1c
200127c4:	ba00001f 	blt	20012848 <memcpy+0x1a8>
200127c8:	e92d03e0 	push	{r5, r6, r7, r8, r9}
200127cc:	f5d1f000 	pld	[r1]
200127d0:	e2522060 	subs	r2, r2, #96	; 0x60
200127d4:	f5d1f01c 	pld	[r1, #28]
200127d8:	ba000002 	blt	200127e8 <memcpy+0x148>
200127dc:	f5d1f03c 	pld	[r1, #60]
200127e0:	f5d1f05c 	pld	[r1, #92]
200127e4:	f5d1f07c 	pld	[r1, #124]
200127e8:	e8b100f0 	ldm	r1!, {r4, r5, r6, r7}
200127ec:	e1a0342e 	lsr	r3, lr, #8
200127f0:	e2522020 	subs	r2, r2, #32	; 0x20
200127f4:	e8b15300 	ldm	r1!, {r8, r9, ip, lr}
200127f8:	e1833c04 	orr	r3, r3, r4, lsl #24
200127fc:	e1a04424 	lsr	r4, r4, #8
20012800:	e1844c05 	orr	r4, r4, r5, lsl #24
20012804:	e1a05425 	lsr	r5, r5, #8
20012808:	e1855c06 	orr	r5, r5, r6, lsl #24
2001280c:	e1a06426 	lsr	r6, r6, #8
20012810:	e1866c07 	orr	r6, r6, r7, lsl #24
20012814:	e1a07427 	lsr	r7, r7, #8
20012818:	e1877c08 	orr	r7, r7, r8, lsl #24
2001281c:	e1a08428 	lsr	r8, r8, #8
20012820:	e1888c09 	orr	r8, r8, r9, lsl #24
20012824:	e1a09429 	lsr	r9, r9, #8
20012828:	e1899c0c 	orr	r9, r9, ip, lsl #24
2001282c:	e1a0c42c 	lsr	ip, ip, #8
20012830:	e18ccc0e 	orr	ip, ip, lr, lsl #24
20012834:	e8a013f8 	stmia	r0!, {r3, r4, r5, r6, r7, r8, r9, ip}
20012838:	aaffffe9 	bge	200127e4 <memcpy+0x144>
2001283c:	e3720060 	cmn	r2, #96	; 0x60
20012840:	aaffffe8 	bge	200127e8 <memcpy+0x148>
20012844:	e8bd03e0 	pop	{r5, r6, r7, r8, r9}
20012848:	e212c01c 	ands	ip, r2, #28	; 0x1c
2001284c:	0a000005 	beq	20012868 <memcpy+0x1c8>
20012850:	e1a0342e 	lsr	r3, lr, #8
20012854:	e491e004 	ldr	lr, [r1], #4
20012858:	e25cc004 	subs	ip, ip, #4	; 0x4
2001285c:	e1833c0e 	orr	r3, r3, lr, lsl #24
20012860:	e4803004 	str	r3, [r0], #4
20012864:	cafffff9 	bgt	20012850 <memcpy+0x1b0>
20012868:	e2411003 	sub	r1, r1, #3	; 0x3
2001286c:	eaffffba 	b	2001275c <memcpy+0xbc>
20012870:	e252201c 	subs	r2, r2, #28	; 0x1c
20012874:	ba00001f 	blt	200128f8 <memcpy+0x258>
20012878:	e92d03e0 	push	{r5, r6, r7, r8, r9}
2001287c:	f5d1f000 	pld	[r1]
20012880:	e2522060 	subs	r2, r2, #96	; 0x60
20012884:	f5d1f01c 	pld	[r1, #28]
20012888:	ba000002 	blt	20012898 <memcpy+0x1f8>
2001288c:	f5d1f03c 	pld	[r1, #60]
20012890:	f5d1f05c 	pld	[r1, #92]
20012894:	f5d1f07c 	pld	[r1, #124]
20012898:	e8b100f0 	ldm	r1!, {r4, r5, r6, r7}
2001289c:	e1a0382e 	lsr	r3, lr, #16
200128a0:	e2522020 	subs	r2, r2, #32	; 0x20
200128a4:	e8b15300 	ldm	r1!, {r8, r9, ip, lr}
200128a8:	e1833804 	orr	r3, r3, r4, lsl #16
200128ac:	e1a04824 	lsr	r4, r4, #16
200128b0:	e1844805 	orr	r4, r4, r5, lsl #16
200128b4:	e1a05825 	lsr	r5, r5, #16
200128b8:	e1855806 	orr	r5, r5, r6, lsl #16
200128bc:	e1a06826 	lsr	r6, r6, #16
200128c0:	e1866807 	orr	r6, r6, r7, lsl #16
200128c4:	e1a07827 	lsr	r7, r7, #16
200128c8:	e1877808 	orr	r7, r7, r8, lsl #16
200128cc:	e1a08828 	lsr	r8, r8, #16
200128d0:	e1888809 	orr	r8, r8, r9, lsl #16
200128d4:	e1a09829 	lsr	r9, r9, #16
200128d8:	e189980c 	orr	r9, r9, ip, lsl #16
200128dc:	e1a0c82c 	lsr	ip, ip, #16
200128e0:	e18cc80e 	orr	ip, ip, lr, lsl #16
200128e4:	e8a013f8 	stmia	r0!, {r3, r4, r5, r6, r7, r8, r9, ip}
200128e8:	aaffffe9 	bge	20012894 <memcpy+0x1f4>
200128ec:	e3720060 	cmn	r2, #96	; 0x60
200128f0:	aaffffe8 	bge	20012898 <memcpy+0x1f8>
200128f4:	e8bd03e0 	pop	{r5, r6, r7, r8, r9}
200128f8:	e212c01c 	ands	ip, r2, #28	; 0x1c
200128fc:	0a000005 	beq	20012918 <memcpy+0x278>
20012900:	e1a0382e 	lsr	r3, lr, #16
20012904:	e491e004 	ldr	lr, [r1], #4
20012908:	e25cc004 	subs	ip, ip, #4	; 0x4
2001290c:	e183380e 	orr	r3, r3, lr, lsl #16
20012910:	e4803004 	str	r3, [r0], #4
20012914:	cafffff9 	bgt	20012900 <memcpy+0x260>
20012918:	e2411002 	sub	r1, r1, #2	; 0x2
2001291c:	eaffff8e 	b	2001275c <memcpy+0xbc>
20012920:	e252201c 	subs	r2, r2, #28	; 0x1c
20012924:	ba00001f 	blt	200129a8 <memcpy+0x308>
20012928:	e92d03e0 	push	{r5, r6, r7, r8, r9}
2001292c:	f5d1f000 	pld	[r1]
20012930:	e2522060 	subs	r2, r2, #96	; 0x60
20012934:	f5d1f01c 	pld	[r1, #28]
20012938:	ba000002 	blt	20012948 <memcpy+0x2a8>
2001293c:	f5d1f03c 	pld	[r1, #60]
20012940:	f5d1f05c 	pld	[r1, #92]
20012944:	f5d1f07c 	pld	[r1, #124]
20012948:	e8b100f0 	ldm	r1!, {r4, r5, r6, r7}
2001294c:	e1a03c2e 	lsr	r3, lr, #24
20012950:	e2522020 	subs	r2, r2, #32	; 0x20
20012954:	e8b15300 	ldm	r1!, {r8, r9, ip, lr}
20012958:	e1833404 	orr	r3, r3, r4, lsl #8
2001295c:	e1a04c24 	lsr	r4, r4, #24
20012960:	e1844405 	orr	r4, r4, r5, lsl #8
20012964:	e1a05c25 	lsr	r5, r5, #24
20012968:	e1855406 	orr	r5, r5, r6, lsl #8
2001296c:	e1a06c26 	lsr	r6, r6, #24
20012970:	e1866407 	orr	r6, r6, r7, lsl #8
20012974:	e1a07c27 	lsr	r7, r7, #24
20012978:	e1877408 	orr	r7, r7, r8, lsl #8
2001297c:	e1a08c28 	lsr	r8, r8, #24
20012980:	e1888409 	orr	r8, r8, r9, lsl #8
20012984:	e1a09c29 	lsr	r9, r9, #24
20012988:	e189940c 	orr	r9, r9, ip, lsl #8
2001298c:	e1a0cc2c 	lsr	ip, ip, #24
20012990:	e18cc40e 	orr	ip, ip, lr, lsl #8
20012994:	e8a013f8 	stmia	r0!, {r3, r4, r5, r6, r7, r8, r9, ip}
20012998:	aaffffe9 	bge	20012944 <memcpy+0x2a4>
2001299c:	e3720060 	cmn	r2, #96	; 0x60
200129a0:	aaffffe8 	bge	20012948 <memcpy+0x2a8>
200129a4:	e8bd03e0 	pop	{r5, r6, r7, r8, r9}
200129a8:	e212c01c 	ands	ip, r2, #28	; 0x1c
200129ac:	0a000005 	beq	200129c8 <memcpy+0x328>
200129b0:	e1a03c2e 	lsr	r3, lr, #24
200129b4:	e491e004 	ldr	lr, [r1], #4
200129b8:	e25cc004 	subs	ip, ip, #4	; 0x4
200129bc:	e183340e 	orr	r3, r3, lr, lsl #8
200129c0:	e4803004 	str	r3, [r0], #4
200129c4:	cafffff9 	bgt	200129b0 <memcpy+0x310>
200129c8:	e2411001 	sub	r1, r1, #1	; 0x1
200129cc:	eaffff62 	b	2001275c <memcpy+0xbc>

200129d0 <__aeabi_read_tp>:
200129d0:	e3e00a0f 	mvn	r0, #61440	; 0xf000
200129d4:	e240f01f 	sub	pc, r0, #31	; 0x1f
200129d8:	e1a00000 	nop			(mov r0,r0)
200129dc:	e1a00000 	nop			(mov r0,r0)
